# objdump -d --section .text ../2/sizes
../2/sizes:     file format elf64-x86-64


Disassembly of section .text:

0000000000001640 <_start>:
    1640:	31 ed                	xor    %ebp,%ebp
    1642:	49 89 d1             	mov    %rdx,%r9
    1645:	5e                   	pop    %rsi
    1646:	48 89 e2             	mov    %rsp,%rdx
    1649:	48 83 e4 f0          	and    $0xfffffffffffffff0,%rsp
    164d:	50                   	push   %rax
    164e:	54                   	push   %rsp
    164f:	4c 8d 05 1a 8a 00 00 	lea    0x8a1a(%rip),%r8        # a070 <__libc_csu_fini>
    1656:	48 8d 0d a3 89 00 00 	lea    0x89a3(%rip),%rcx        # a000 <__libc_csu_init>
    165d:	48 8d 3d e6 00 00 00 	lea    0xe6(%rip),%rdi        # 174a <main>
    1664:	ff 15 5e e9 20 00    	callq  *0x20e95e(%rip)        # 20ffc8 <__libc_start_main@GLIBC_2.2.5>
    166a:	f4                   	hlt    
    166b:	0f 1f 44 00 00       	nopl   0x0(%rax,%rax,1)

0000000000001670 <deregister_tm_clones>:
    1670:	48 8d 3d c9 e9 20 00 	lea    0x20e9c9(%rip),%rdi        # 210040 <_ZSt4cout@@GLIBCXX_3.4>
    1677:	55                   	push   %rbp
    1678:	48 8d 05 c1 e9 20 00 	lea    0x20e9c1(%rip),%rax        # 210040 <_ZSt4cout@@GLIBCXX_3.4>
    167f:	48 39 f8             	cmp    %rdi,%rax
    1682:	48 89 e5             	mov    %rsp,%rbp
    1685:	74 19                	je     16a0 <deregister_tm_clones+0x30>
    1687:	48 8b 05 32 e9 20 00 	mov    0x20e932(%rip),%rax        # 20ffc0 <_ITM_deregisterTMCloneTable>
    168e:	48 85 c0             	test   %rax,%rax
    1691:	74 0d                	je     16a0 <deregister_tm_clones+0x30>
    1693:	5d                   	pop    %rbp
    1694:	ff e0                	jmpq   *%rax
    1696:	66 2e 0f 1f 84 00 00 	nopw   %cs:0x0(%rax,%rax,1)
    169d:	00 00 00 
    16a0:	5d                   	pop    %rbp
    16a1:	c3                   	retq   
    16a2:	0f 1f 40 00          	nopl   0x0(%rax)
    16a6:	66 2e 0f 1f 84 00 00 	nopw   %cs:0x0(%rax,%rax,1)
    16ad:	00 00 00 

00000000000016b0 <register_tm_clones>:
    16b0:	48 8d 3d 89 e9 20 00 	lea    0x20e989(%rip),%rdi        # 210040 <_ZSt4cout@@GLIBCXX_3.4>
    16b7:	48 8d 35 82 e9 20 00 	lea    0x20e982(%rip),%rsi        # 210040 <_ZSt4cout@@GLIBCXX_3.4>
    16be:	55                   	push   %rbp
    16bf:	48 29 fe             	sub    %rdi,%rsi
    16c2:	48 89 e5             	mov    %rsp,%rbp
    16c5:	48 c1 fe 03          	sar    $0x3,%rsi
    16c9:	48 89 f0             	mov    %rsi,%rax
    16cc:	48 c1 e8 3f          	shr    $0x3f,%rax
    16d0:	48 01 c6             	add    %rax,%rsi
    16d3:	48 d1 fe             	sar    %rsi
    16d6:	74 18                	je     16f0 <register_tm_clones+0x40>
    16d8:	48 8b 05 f9 e8 20 00 	mov    0x20e8f9(%rip),%rax        # 20ffd8 <_ITM_registerTMCloneTable>
    16df:	48 85 c0             	test   %rax,%rax
    16e2:	74 0c                	je     16f0 <register_tm_clones+0x40>
    16e4:	5d                   	pop    %rbp
    16e5:	ff e0                	jmpq   *%rax
    16e7:	66 0f 1f 84 00 00 00 	nopw   0x0(%rax,%rax,1)
    16ee:	00 00 
    16f0:	5d                   	pop    %rbp
    16f1:	c3                   	retq   
    16f2:	0f 1f 40 00          	nopl   0x0(%rax)
    16f6:	66 2e 0f 1f 84 00 00 	nopw   %cs:0x0(%rax,%rax,1)
    16fd:	00 00 00 

0000000000001700 <__do_global_dtors_aux>:
    1700:	80 3d 49 ea 20 00 00 	cmpb   $0x0,0x20ea49(%rip)        # 210150 <completed.7698>
    1707:	75 2f                	jne    1738 <__do_global_dtors_aux+0x38>
    1709:	48 83 3d 9f e8 20 00 	cmpq   $0x0,0x20e89f(%rip)        # 20ffb0 <__cxa_finalize@GLIBC_2.2.5>
    1710:	00 
    1711:	55                   	push   %rbp
    1712:	48 89 e5             	mov    %rsp,%rbp
    1715:	74 0c                	je     1723 <__do_global_dtors_aux+0x23>
    1717:	48 8b 3d ea e8 20 00 	mov    0x20e8ea(%rip),%rdi        # 210008 <__dso_handle>
    171e:	e8 0d ff ff ff       	callq  1630 <__cxa_finalize@plt>
    1723:	e8 48 ff ff ff       	callq  1670 <deregister_tm_clones>
    1728:	c6 05 21 ea 20 00 01 	movb   $0x1,0x20ea21(%rip)        # 210150 <completed.7698>
    172f:	5d                   	pop    %rbp
    1730:	c3                   	retq   
    1731:	0f 1f 80 00 00 00 00 	nopl   0x0(%rax)
    1738:	f3 c3                	repz retq 
    173a:	66 0f 1f 44 00 00    	nopw   0x0(%rax,%rax,1)

0000000000001740 <frame_dummy>:
    1740:	55                   	push   %rbp
    1741:	48 89 e5             	mov    %rsp,%rbp
    1744:	5d                   	pop    %rbp
    1745:	e9 66 ff ff ff       	jmpq   16b0 <register_tm_clones>

000000000000174a <main>:
    174a:	55                   	push   %rbp
    174b:	48 89 e5             	mov    %rsp,%rbp
    174e:	53                   	push   %rbx
    174f:	48 83 ec 58          	sub    $0x58,%rsp
    1753:	64 48 8b 04 25 28 00 	mov    %fs:0x28,%rax
    175a:	00 00 
    175c:	48 89 45 e8          	mov    %rax,-0x18(%rbp)
    1760:	31 c0                	xor    %eax,%eax
    1762:	48 8d 35 2a 89 00 00 	lea    0x892a(%rip),%rsi        # a093 <_ZStL6ignore+0x1>
    1769:	48 8d 3d d0 e8 20 00 	lea    0x20e8d0(%rip),%rdi        # 210040 <_ZSt4cout@@GLIBCXX_3.4>
    1770:	e8 ab fd ff ff       	callq  1520 <_ZStlsISt11char_traitsIcEERSt13basic_ostreamIcT_ES5_PKc@plt>
    1775:	be 08 00 00 00       	mov    $0x8,%esi
    177a:	48 89 c7             	mov    %rax,%rdi
    177d:	e8 6e fe ff ff       	callq  15f0 <_ZNSolsEi@plt>
    1782:	48 8d 35 1b 89 00 00 	lea    0x891b(%rip),%rsi        # a0a4 <_ZStL6ignore+0x12>
    1789:	48 89 c7             	mov    %rax,%rdi
    178c:	e8 8f fd ff ff       	callq  1520 <_ZStlsISt11char_traitsIcEERSt13basic_ostreamIcT_ES5_PKc@plt>
    1791:	48 8d 35 0e 89 00 00 	lea    0x890e(%rip),%rsi        # a0a6 <_ZStL6ignore+0x14>
    1798:	48 8d 3d a1 e8 20 00 	lea    0x20e8a1(%rip),%rdi        # 210040 <_ZSt4cout@@GLIBCXX_3.4>
    179f:	e8 7c fd ff ff       	callq  1520 <_ZStlsISt11char_traitsIcEERSt13basic_ostreamIcT_ES5_PKc@plt>
    17a4:	48 89 c2             	mov    %rax,%rdx
    17a7:	8b 05 73 e8 20 00    	mov    0x20e873(%rip),%eax        # 210020 <test_obj>
    17ad:	89 c6                	mov    %eax,%esi
    17af:	48 89 d7             	mov    %rdx,%rdi
    17b2:	e8 39 fe ff ff       	callq  15f0 <_ZNSolsEi@plt>
    17b7:	48 8d 35 e6 88 00 00 	lea    0x88e6(%rip),%rsi        # a0a4 <_ZStL6ignore+0x12>
    17be:	48 89 c7             	mov    %rax,%rdi
    17c1:	e8 5a fd ff ff       	callq  1520 <_ZStlsISt11char_traitsIcEERSt13basic_ostreamIcT_ES5_PKc@plt>
    17c6:	48 8d 35 dd 88 00 00 	lea    0x88dd(%rip),%rsi        # a0aa <_ZStL6ignore+0x18>
    17cd:	48 8d 3d 6c e8 20 00 	lea    0x20e86c(%rip),%rdi        # 210040 <_ZSt4cout@@GLIBCXX_3.4>
    17d4:	e8 47 fd ff ff       	callq  1520 <_ZStlsISt11char_traitsIcEERSt13basic_ostreamIcT_ES5_PKc@plt>
    17d9:	48 89 c3             	mov    %rax,%rbx
    17dc:	48 8d 3d 9d e3 20 00 	lea    0x20e39d(%rip),%rdi        # 20fb80 <_ZTIi@@CXXABI_1.3>
    17e3:	e8 96 15 00 00       	callq  2d7e <_ZNKSt9type_info4nameEv>
    17e8:	48 89 c2             	mov    %rax,%rdx
    17eb:	48 8d 45 c0          	lea    -0x40(%rbp),%rax
    17ef:	48 89 d6             	mov    %rdx,%rsi
    17f2:	48 89 c7             	mov    %rax,%rdi
    17f5:	e8 8f 2e 00 00       	callq  4689 <_Z7getKey1IPKcENSt7__cxx1112basic_stringIcSt11char_traitsIcESaIcEEET_>
    17fa:	48 8d 45 c0          	lea    -0x40(%rbp),%rax
    17fe:	48 89 c6             	mov    %rax,%rsi
    1801:	48 89 df             	mov    %rbx,%rdi
    1804:	e8 f7 fc ff ff       	callq  1500 <_ZStlsIcSt11char_traitsIcESaIcEERSt13basic_ostreamIT_T0_ES7_RKNSt7__cxx1112basic_stringIS4_S5_T1_EE@plt>
    1809:	48 8d 35 a1 88 00 00 	lea    0x88a1(%rip),%rsi        # a0b1 <_ZStL6ignore+0x1f>
    1810:	48 89 c7             	mov    %rax,%rdi
    1813:	e8 08 fd ff ff       	callq  1520 <_ZStlsISt11char_traitsIcEERSt13basic_ostreamIcT_ES5_PKc@plt>
    1818:	be 20 00 00 00       	mov    $0x20,%esi
    181d:	48 89 c7             	mov    %rax,%rdi
    1820:	e8 2b fc ff ff       	callq  1450 <_ZNSolsEm@plt>
    1825:	48 8d 35 9a 88 00 00 	lea    0x889a(%rip),%rsi        # a0c6 <_ZStL6ignore+0x34>
    182c:	48 89 c7             	mov    %rax,%rdi
    182f:	e8 ec fc ff ff       	callq  1520 <_ZStlsISt11char_traitsIcEERSt13basic_ostreamIcT_ES5_PKc@plt>
    1834:	48 8d 45 c0          	lea    -0x40(%rbp),%rax
    1838:	48 89 c7             	mov    %rax,%rdi
    183b:	e8 70 fc ff ff       	callq  14b0 <_ZNSt7__cxx1112basic_stringIcSt11char_traitsIcESaIcEED1Ev@plt>
    1840:	c7 45 a4 20 00 00 00 	movl   $0x20,-0x5c(%rbp)
    1847:	8b 45 a4             	mov    -0x5c(%rbp),%eax
    184a:	8d 50 ff             	lea    -0x1(%rax),%edx
    184d:	89 55 a4             	mov    %edx,-0x5c(%rbp)
    1850:	85 c0                	test   %eax,%eax
    1852:	0f 95 c0             	setne  %al
    1855:	84 c0                	test   %al,%al
    1857:	74 32                	je     188b <main+0x141>
    1859:	8b 15 c1 e7 20 00    	mov    0x20e7c1(%rip),%edx        # 210020 <test_obj>
    185f:	8b 45 a4             	mov    -0x5c(%rbp),%eax
    1862:	89 c1                	mov    %eax,%ecx
    1864:	d3 fa                	sar    %cl,%edx
    1866:	89 d0                	mov    %edx,%eax
    1868:	83 e0 01             	and    $0x1,%eax
    186b:	85 c0                	test   %eax,%eax
    186d:	74 07                	je     1876 <main+0x12c>
    186f:	b8 31 00 00 00       	mov    $0x31,%eax
    1874:	eb 05                	jmp    187b <main+0x131>
    1876:	b8 30 00 00 00       	mov    $0x30,%eax
    187b:	89 c6                	mov    %eax,%esi
    187d:	48 8d 3d bc e7 20 00 	lea    0x20e7bc(%rip),%rdi        # 210040 <_ZSt4cout@@GLIBCXX_3.4>
    1884:	e8 e7 fc ff ff       	callq  1570 <_ZStlsISt11char_traitsIcEERSt13basic_ostreamIcT_ES5_c@plt>
    1889:	eb bc                	jmp    1847 <main+0xfd>
    188b:	48 8d 35 3c 88 00 00 	lea    0x883c(%rip),%rsi        # a0ce <_ZStL6ignore+0x3c>
    1892:	48 8d 3d a7 e7 20 00 	lea    0x20e7a7(%rip),%rdi        # 210040 <_ZSt4cout@@GLIBCXX_3.4>
    1899:	e8 82 fc ff ff       	callq  1520 <_ZStlsISt11char_traitsIcEERSt13basic_ostreamIcT_ES5_PKc@plt>
    189e:	48 89 c2             	mov    %rax,%rdx
    18a1:	48 8b 05 80 e7 20 00 	mov    0x20e780(%rip),%rax        # 210028 <test_obj+0x8>
    18a8:	48 89 c6             	mov    %rax,%rsi
    18ab:	48 89 d7             	mov    %rdx,%rdi
    18ae:	e8 2d fc ff ff       	callq  14e0 <_ZNSolsEPKv@plt>
    18b3:	48 8d 35 ea 87 00 00 	lea    0x87ea(%rip),%rsi        # a0a4 <_ZStL6ignore+0x12>
    18ba:	48 89 c7             	mov    %rax,%rdi
    18bd:	e8 5e fc ff ff       	callq  1520 <_ZStlsISt11char_traitsIcEERSt13basic_ostreamIcT_ES5_PKc@plt>
    18c2:	48 8d 35 e1 87 00 00 	lea    0x87e1(%rip),%rsi        # a0aa <_ZStL6ignore+0x18>
    18c9:	48 8d 3d 70 e7 20 00 	lea    0x20e770(%rip),%rdi        # 210040 <_ZSt4cout@@GLIBCXX_3.4>
    18d0:	e8 4b fc ff ff       	callq  1520 <_ZStlsISt11char_traitsIcEERSt13basic_ostreamIcT_ES5_PKc@plt>
    18d5:	48 89 c3             	mov    %rax,%rbx
    18d8:	48 8d 3d e1 e2 20 00 	lea    0x20e2e1(%rip),%rdi        # 20fbc0 <_ZTIPi@@CXXABI_1.3>
    18df:	e8 9a 14 00 00       	callq  2d7e <_ZNKSt9type_info4nameEv>
    18e4:	48 89 c2             	mov    %rax,%rdx
    18e7:	48 8d 45 c0          	lea    -0x40(%rbp),%rax
    18eb:	48 89 d6             	mov    %rdx,%rsi
    18ee:	48 89 c7             	mov    %rax,%rdi
    18f1:	e8 93 2d 00 00       	callq  4689 <_Z7getKey1IPKcENSt7__cxx1112basic_stringIcSt11char_traitsIcESaIcEEET_>
    18f6:	48 8d 45 c0          	lea    -0x40(%rbp),%rax
    18fa:	48 89 c6             	mov    %rax,%rsi
    18fd:	48 89 df             	mov    %rbx,%rdi
    1900:	e8 fb fb ff ff       	callq  1500 <_ZStlsIcSt11char_traitsIcESaIcEERSt13basic_ostreamIT_T0_ES7_RKNSt7__cxx1112basic_stringIS4_S5_T1_EE@plt>
    1905:	48 8d 35 a5 87 00 00 	lea    0x87a5(%rip),%rsi        # a0b1 <_ZStL6ignore+0x1f>
    190c:	48 89 c7             	mov    %rax,%rdi
    190f:	e8 0c fc ff ff       	callq  1520 <_ZStlsISt11char_traitsIcEERSt13basic_ostreamIcT_ES5_PKc@plt>
    1914:	be 40 00 00 00       	mov    $0x40,%esi
    1919:	48 89 c7             	mov    %rax,%rdi
    191c:	e8 2f fb ff ff       	callq  1450 <_ZNSolsEm@plt>
    1921:	48 8d 35 ab 87 00 00 	lea    0x87ab(%rip),%rsi        # a0d3 <_ZStL6ignore+0x41>
    1928:	48 89 c7             	mov    %rax,%rdi
    192b:	e8 f0 fb ff ff       	callq  1520 <_ZStlsISt11char_traitsIcEERSt13basic_ostreamIcT_ES5_PKc@plt>
    1930:	48 8d 45 c0          	lea    -0x40(%rbp),%rax
    1934:	48 89 c7             	mov    %rax,%rdi
    1937:	e8 74 fb ff ff       	callq  14b0 <_ZNSt7__cxx1112basic_stringIcSt11char_traitsIcESaIcEED1Ev@plt>
    193c:	c7 45 a8 40 00 00 00 	movl   $0x40,-0x58(%rbp)
    1943:	8b 45 a8             	mov    -0x58(%rbp),%eax
    1946:	8d 50 ff             	lea    -0x1(%rax),%edx
    1949:	89 55 a8             	mov    %edx,-0x58(%rbp)
    194c:	85 c0                	test   %eax,%eax
    194e:	0f 95 c0             	setne  %al
    1951:	84 c0                	test   %al,%al
    1953:	74 13                	je     1968 <main+0x21e>
    1955:	be 62 00 00 00       	mov    $0x62,%esi
    195a:	48 8d 3d df e6 20 00 	lea    0x20e6df(%rip),%rdi        # 210040 <_ZSt4cout@@GLIBCXX_3.4>
    1961:	e8 0a fc ff ff       	callq  1570 <_ZStlsISt11char_traitsIcEERSt13basic_ostreamIcT_ES5_c@plt>
    1966:	eb db                	jmp    1943 <main+0x1f9>
    1968:	48 8d 35 71 87 00 00 	lea    0x8771(%rip),%rsi        # a0e0 <_ZStL6ignore+0x4e>
    196f:	48 8d 3d ca e6 20 00 	lea    0x20e6ca(%rip),%rdi        # 210040 <_ZSt4cout@@GLIBCXX_3.4>
    1976:	e8 a5 fb ff ff       	callq  1520 <_ZStlsISt11char_traitsIcEERSt13basic_ostreamIcT_ES5_PKc@plt>
    197b:	48 89 c2             	mov    %rax,%rdx
    197e:	0f b6 05 ab e6 20 00 	movzbl 0x20e6ab(%rip),%eax        # 210030 <test_obj+0x10>
    1985:	0f b6 c0             	movzbl %al,%eax
    1988:	89 c6                	mov    %eax,%esi
    198a:	48 89 d7             	mov    %rdx,%rdi
    198d:	e8 8e fc ff ff       	callq  1620 <_ZNSolsEb@plt>
    1992:	48 89 c2             	mov    %rax,%rdx
    1995:	48 8b 05 1c e6 20 00 	mov    0x20e61c(%rip),%rax        # 20ffb8 <_ZSt4endlIcSt11char_traitsIcEERSt13basic_ostreamIT_T0_ES6_@GLIBCXX_3.4>
    199c:	48 89 c6             	mov    %rax,%rsi
    199f:	48 89 d7             	mov    %rdx,%rdi
    19a2:	e8 99 fb ff ff       	callq  1540 <_ZNSolsEPFRSoS_E@plt>
    19a7:	48 8d 35 fc 86 00 00 	lea    0x86fc(%rip),%rsi        # a0aa <_ZStL6ignore+0x18>
    19ae:	48 8d 3d 8b e6 20 00 	lea    0x20e68b(%rip),%rdi        # 210040 <_ZSt4cout@@GLIBCXX_3.4>
    19b5:	e8 66 fb ff ff       	callq  1520 <_ZStlsISt11char_traitsIcEERSt13basic_ostreamIcT_ES5_PKc@plt>
    19ba:	48 89 c3             	mov    %rax,%rbx
    19bd:	48 8d 3d 3c e2 20 00 	lea    0x20e23c(%rip),%rdi        # 20fc00 <_ZTIb@@CXXABI_1.3>
    19c4:	e8 b5 13 00 00       	callq  2d7e <_ZNKSt9type_info4nameEv>
    19c9:	48 89 c2             	mov    %rax,%rdx
    19cc:	48 8d 45 c0          	lea    -0x40(%rbp),%rax
    19d0:	48 89 d6             	mov    %rdx,%rsi
    19d3:	48 89 c7             	mov    %rax,%rdi
    19d6:	e8 ae 2c 00 00       	callq  4689 <_Z7getKey1IPKcENSt7__cxx1112basic_stringIcSt11char_traitsIcESaIcEEET_>
    19db:	48 8d 45 c0          	lea    -0x40(%rbp),%rax
    19df:	48 89 c6             	mov    %rax,%rsi
    19e2:	48 89 df             	mov    %rbx,%rdi
    19e5:	e8 16 fb ff ff       	callq  1500 <_ZStlsIcSt11char_traitsIcESaIcEERSt13basic_ostreamIT_T0_ES7_RKNSt7__cxx1112basic_stringIS4_S5_T1_EE@plt>
    19ea:	48 8d 35 c0 86 00 00 	lea    0x86c0(%rip),%rsi        # a0b1 <_ZStL6ignore+0x1f>
    19f1:	48 89 c7             	mov    %rax,%rdi
    19f4:	e8 27 fb ff ff       	callq  1520 <_ZStlsISt11char_traitsIcEERSt13basic_ostreamIcT_ES5_PKc@plt>
    19f9:	be 08 00 00 00       	mov    $0x8,%esi
    19fe:	48 89 c7             	mov    %rax,%rdi
    1a01:	e8 4a fa ff ff       	callq  1450 <_ZNSolsEm@plt>
    1a06:	48 8d 35 b9 86 00 00 	lea    0x86b9(%rip),%rsi        # a0c6 <_ZStL6ignore+0x34>
    1a0d:	48 89 c7             	mov    %rax,%rdi
    1a10:	e8 0b fb ff ff       	callq  1520 <_ZStlsISt11char_traitsIcEERSt13basic_ostreamIcT_ES5_PKc@plt>
    1a15:	48 8d 45 c0          	lea    -0x40(%rbp),%rax
    1a19:	48 89 c7             	mov    %rax,%rdi
    1a1c:	e8 8f fa ff ff       	callq  14b0 <_ZNSt7__cxx1112basic_stringIcSt11char_traitsIcESaIcEED1Ev@plt>
    1a21:	c7 45 ac 08 00 00 00 	movl   $0x8,-0x54(%rbp)
    1a28:	8b 45 ac             	mov    -0x54(%rbp),%eax
    1a2b:	8d 50 ff             	lea    -0x1(%rax),%edx
    1a2e:	89 55 ac             	mov    %edx,-0x54(%rbp)
    1a31:	85 c0                	test   %eax,%eax
    1a33:	0f 95 c0             	setne  %al
    1a36:	84 c0                	test   %al,%al
    1a38:	74 13                	je     1a4d <main+0x303>
    1a3a:	be 62 00 00 00       	mov    $0x62,%esi
    1a3f:	48 8d 3d fa e5 20 00 	lea    0x20e5fa(%rip),%rdi        # 210040 <_ZSt4cout@@GLIBCXX_3.4>
    1a46:	e8 25 fb ff ff       	callq  1570 <_ZStlsISt11char_traitsIcEERSt13basic_ostreamIcT_ES5_c@plt>
    1a4b:	eb db                	jmp    1a28 <main+0x2de>
    1a4d:	48 8d 35 50 86 00 00 	lea    0x8650(%rip),%rsi        # a0a4 <_ZStL6ignore+0x12>
    1a54:	48 8d 3d e5 e5 20 00 	lea    0x20e5e5(%rip),%rdi        # 210040 <_ZSt4cout@@GLIBCXX_3.4>
    1a5b:	e8 c0 fa ff ff       	callq  1520 <_ZStlsISt11char_traitsIcEERSt13basic_ostreamIcT_ES5_PKc@plt>
    1a60:	48 8d 3d 79 e7 20 00 	lea    0x20e779(%rip),%rdi        # 2101e0 <_Z5type3B5cxx11>
    1a67:	e8 8c 2c 00 00       	callq  46f8 <_ZNSt13unordered_mapINSt7__cxx1112basic_stringIcSt11char_traitsIcESaIcEEEmSt4hashIS5_ESt8equal_toIS5_ESaISt4pairIKS5_mEEE5beginEv>
    1a6c:	48 89 45 b0          	mov    %rax,-0x50(%rbp)
    1a70:	48 8d 3d 69 e7 20 00 	lea    0x20e769(%rip),%rdi        # 2101e0 <_Z5type3B5cxx11>
    1a77:	e8 96 2c 00 00       	callq  4712 <_ZNSt13unordered_mapINSt7__cxx1112basic_stringIcSt11char_traitsIcESaIcEEEmSt4hashIS5_ESt8equal_toIS5_ESaISt4pairIKS5_mEEE3endEv>
    1a7c:	48 89 45 b8          	mov    %rax,-0x48(%rbp)
    1a80:	48 8d 55 b8          	lea    -0x48(%rbp),%rdx
    1a84:	48 8d 45 b0          	lea    -0x50(%rbp),%rax
    1a88:	48 89 d6             	mov    %rdx,%rsi
    1a8b:	48 89 c7             	mov    %rax,%rdi
    1a8e:	e8 99 2c 00 00       	callq  472c <_ZNSt8__detailneISt4pairIKNSt7__cxx1112basic_stringIcSt11char_traitsIcESaIcEEEmELb1EEEbRKNS_19_Node_iterator_baseIT_XT0_EEESE_>
    1a93:	84 c0                	test   %al,%al
    1a95:	0f 84 b4 00 00 00    	je     1b4f <main+0x405>
    1a9b:	48 8d 35 08 86 00 00 	lea    0x8608(%rip),%rsi        # a0aa <_ZStL6ignore+0x18>
    1aa2:	48 8d 3d 97 e5 20 00 	lea    0x20e597(%rip),%rdi        # 210040 <_ZSt4cout@@GLIBCXX_3.4>
    1aa9:	e8 72 fa ff ff       	callq  1520 <_ZStlsISt11char_traitsIcEERSt13basic_ostreamIcT_ES5_PKc@plt>
    1aae:	48 89 c3             	mov    %rax,%rbx
    1ab1:	48 8d 45 b0          	lea    -0x50(%rbp),%rax
    1ab5:	48 89 c7             	mov    %rax,%rdi
    1ab8:	e8 e1 2c 00 00       	callq  479e <_ZNKSt8__detail14_Node_iteratorISt4pairIKNSt7__cxx1112basic_stringIcSt11char_traitsIcESaIcEEEmELb0ELb1EEptEv>
    1abd:	48 89 c6             	mov    %rax,%rsi
    1ac0:	48 89 df             	mov    %rbx,%rdi
    1ac3:	e8 38 fa ff ff       	callq  1500 <_ZStlsIcSt11char_traitsIcESaIcEERSt13basic_ostreamIT_T0_ES7_RKNSt7__cxx1112basic_stringIS4_S5_T1_EE@plt>
    1ac8:	48 8d 35 16 86 00 00 	lea    0x8616(%rip),%rsi        # a0e5 <_ZStL6ignore+0x53>
    1acf:	48 89 c7             	mov    %rax,%rdi
    1ad2:	e8 49 fa ff ff       	callq  1520 <_ZStlsISt11char_traitsIcEERSt13basic_ostreamIcT_ES5_PKc@plt>
    1ad7:	48 89 c3             	mov    %rax,%rbx
    1ada:	48 8d 45 b0          	lea    -0x50(%rbp),%rax
    1ade:	48 89 c7             	mov    %rax,%rdi
    1ae1:	e8 b8 2c 00 00       	callq  479e <_ZNKSt8__detail14_Node_iteratorISt4pairIKNSt7__cxx1112basic_stringIcSt11char_traitsIcESaIcEEEmELb0ELb1EEptEv>
    1ae6:	48 8b 40 20          	mov    0x20(%rax),%rax
    1aea:	48 89 c6             	mov    %rax,%rsi
    1aed:	48 89 df             	mov    %rbx,%rdi
    1af0:	e8 5b f9 ff ff       	callq  1450 <_ZNSolsEm@plt>
    1af5:	48 8d 35 00 86 00 00 	lea    0x8600(%rip),%rsi        # a0fc <_ZStL6ignore+0x6a>
    1afc:	48 89 c7             	mov    %rax,%rdi
    1aff:	e8 1c fa ff ff       	callq  1520 <_ZStlsISt11char_traitsIcEERSt13basic_ostreamIcT_ES5_PKc@plt>
    1b04:	48 89 c3             	mov    %rax,%rbx
    1b07:	48 8d 45 b0          	lea    -0x50(%rbp),%rax
    1b0b:	48 89 c7             	mov    %rax,%rdi
    1b0e:	e8 8b 2c 00 00       	callq  479e <_ZNKSt8__detail14_Node_iteratorISt4pairIKNSt7__cxx1112basic_stringIcSt11char_traitsIcESaIcEEEmELb0ELb1EEptEv>
    1b13:	48 8b 40 20          	mov    0x20(%rax),%rax
    1b17:	48 c1 e0 03          	shl    $0x3,%rax
    1b1b:	48 89 c6             	mov    %rax,%rsi
    1b1e:	48 89 df             	mov    %rbx,%rdi
    1b21:	e8 2a f9 ff ff       	callq  1450 <_ZNSolsEm@plt>
    1b26:	48 8d 35 77 85 00 00 	lea    0x8577(%rip),%rsi        # a0a4 <_ZStL6ignore+0x12>
    1b2d:	48 8d 3d 0c e5 20 00 	lea    0x20e50c(%rip),%rdi        # 210040 <_ZSt4cout@@GLIBCXX_3.4>
    1b34:	e8 e7 f9 ff ff       	callq  1520 <_ZStlsISt11char_traitsIcEERSt13basic_ostreamIcT_ES5_PKc@plt>
    1b39:	48 8d 45 b0          	lea    -0x50(%rbp),%rax
    1b3d:	be 00 00 00 00       	mov    $0x0,%esi
    1b42:	48 89 c7             	mov    %rax,%rdi
    1b45:	e8 04 2c 00 00       	callq  474e <_ZNSt8__detail14_Node_iteratorISt4pairIKNSt7__cxx1112basic_stringIcSt11char_traitsIcESaIcEEEmELb0ELb1EEppEi>
    1b4a:	e9 21 ff ff ff       	jmpq   1a70 <main+0x326>
    1b4f:	b8 00 00 00 00       	mov    $0x0,%eax
    1b54:	48 8b 4d e8          	mov    -0x18(%rbp),%rcx
    1b58:	64 48 33 0c 25 28 00 	xor    %fs:0x28,%rcx
    1b5f:	00 00 
    1b61:	74 55                	je     1bb8 <main+0x46e>
    1b63:	eb 4e                	jmp    1bb3 <main+0x469>
    1b65:	48 89 c3             	mov    %rax,%rbx
    1b68:	48 8d 45 c0          	lea    -0x40(%rbp),%rax
    1b6c:	48 89 c7             	mov    %rax,%rdi
    1b6f:	e8 3c f9 ff ff       	callq  14b0 <_ZNSt7__cxx1112basic_stringIcSt11char_traitsIcESaIcEED1Ev@plt>
    1b74:	48 89 d8             	mov    %rbx,%rax
    1b77:	48 89 c7             	mov    %rax,%rdi
    1b7a:	e8 81 fa ff ff       	callq  1600 <_Unwind_Resume@plt>
    1b7f:	48 89 c3             	mov    %rax,%rbx
    1b82:	48 8d 45 c0          	lea    -0x40(%rbp),%rax
    1b86:	48 89 c7             	mov    %rax,%rdi
    1b89:	e8 22 f9 ff ff       	callq  14b0 <_ZNSt7__cxx1112basic_stringIcSt11char_traitsIcESaIcEED1Ev@plt>
    1b8e:	48 89 d8             	mov    %rbx,%rax
    1b91:	48 89 c7             	mov    %rax,%rdi
    1b94:	e8 67 fa ff ff       	callq  1600 <_Unwind_Resume@plt>
    1b99:	48 89 c3             	mov    %rax,%rbx
    1b9c:	48 8d 45 c0          	lea    -0x40(%rbp),%rax
    1ba0:	48 89 c7             	mov    %rax,%rdi
    1ba3:	e8 08 f9 ff ff       	callq  14b0 <_ZNSt7__cxx1112basic_stringIcSt11char_traitsIcESaIcEED1Ev@plt>
    1ba8:	48 89 d8             	mov    %rbx,%rax
    1bab:	48 89 c7             	mov    %rax,%rdi
    1bae:	e8 4d fa ff ff       	callq  1600 <_Unwind_Resume@plt>
    1bb3:	e8 a8 f9 ff ff       	callq  1560 <__stack_chk_fail@plt>
    1bb8:	48 83 c4 58          	add    $0x58,%rsp
    1bbc:	5b                   	pop    %rbx
    1bbd:	5d                   	pop    %rbp
    1bbe:	c3                   	retq   

0000000000001bbf <_Z41__static_initialization_and_destruction_0ii>:
    1bbf:	55                   	push   %rbp
    1bc0:	48 89 e5             	mov    %rsp,%rbp
    1bc3:	41 57                	push   %r15
    1bc5:	41 56                	push   %r14
    1bc7:	41 55                	push   %r13
    1bc9:	41 54                	push   %r12
    1bcb:	53                   	push   %rbx
    1bcc:	48 81 ec 08 09 00 00 	sub    $0x908,%rsp
    1bd3:	89 bd ec f6 ff ff    	mov    %edi,-0x914(%rbp)
    1bd9:	89 b5 e8 f6 ff ff    	mov    %esi,-0x918(%rbp)
    1bdf:	64 48 8b 04 25 28 00 	mov    %fs:0x28,%rax
    1be6:	00 00 
    1be8:	48 89 45 c8          	mov    %rax,-0x38(%rbp)
    1bec:	31 c0                	xor    %eax,%eax
    1bee:	83 bd ec f6 ff ff 01 	cmpl   $0x1,-0x914(%rbp)
    1bf5:	0f 85 4b 11 00 00    	jne    2d46 <_Z41__static_initialization_and_destruction_0ii+0x1187>
    1bfb:	81 bd e8 f6 ff ff ff 	cmpl   $0xffff,-0x918(%rbp)
    1c02:	ff 00 00 
    1c05:	0f 85 3b 11 00 00    	jne    2d46 <_Z41__static_initialization_and_destruction_0ii+0x1187>
    1c0b:	48 8d 3d 06 e6 20 00 	lea    0x20e606(%rip),%rdi        # 210218 <_ZStL8__ioinit>
    1c12:	e8 b9 f9 ff ff       	callq  15d0 <_ZNSt8ios_base4InitC1Ev@plt>
    1c17:	48 8d 15 ea e3 20 00 	lea    0x20e3ea(%rip),%rdx        # 210008 <__dso_handle>
    1c1e:	48 8d 35 f3 e5 20 00 	lea    0x20e5f3(%rip),%rsi        # 210218 <_ZStL8__ioinit>
    1c25:	48 8b 05 b4 e3 20 00 	mov    0x20e3b4(%rip),%rax        # 20ffe0 <_ZNSt8ios_base4InitD1Ev@GLIBCXX_3.4>
    1c2c:	48 89 c7             	mov    %rax,%rdi
    1c2f:	e8 bc f8 ff ff       	callq  14f0 <__cxa_atexit@plt>
    1c34:	48 8d 3d 45 df 20 00 	lea    0x20df45(%rip),%rdi        # 20fb80 <_ZTIi@@CXXABI_1.3>
    1c3b:	e8 3e 11 00 00       	callq  2d7e <_ZNKSt9type_info4nameEv>
    1c40:	48 89 85 10 f8 ff ff 	mov    %rax,-0x7f0(%rbp)
    1c47:	48 8d 8d 10 f8 ff ff 	lea    -0x7f0(%rbp),%rcx
    1c4e:	48 8d 85 70 f8 ff ff 	lea    -0x790(%rbp),%rax
    1c55:	48 8d 15 b6 84 00 00 	lea    0x84b6(%rip),%rdx        # a112 <_ZStL6ignore+0x80>
    1c5c:	48 89 ce             	mov    %rcx,%rsi
    1c5f:	48 89 c7             	mov    %rax,%rdi
    1c62:	e8 31 22 00 00       	callq  3e98 <_ZNSt4pairIKPKcNSt7__cxx1112basic_stringIcSt11char_traitsIcESaIcEEEEC1IS1_RA11_S0_Lb1EEEOT_OT0_>
    1c67:	48 8d 3d 92 df 20 00 	lea    0x20df92(%rip),%rdi        # 20fc00 <_ZTIb@@CXXABI_1.3>
    1c6e:	e8 0b 11 00 00       	callq  2d7e <_ZNKSt9type_info4nameEv>
    1c73:	48 89 85 18 f8 ff ff 	mov    %rax,-0x7e8(%rbp)
    1c7a:	48 8d 85 18 f8 ff ff 	lea    -0x7e8(%rbp),%rax
    1c81:	48 8d 95 70 f8 ff ff 	lea    -0x790(%rbp),%rdx
    1c88:	48 8d 4a 28          	lea    0x28(%rdx),%rcx
    1c8c:	48 8d 15 8a 84 00 00 	lea    0x848a(%rip),%rdx        # a11d <_ZStL6ignore+0x8b>
    1c93:	48 89 c6             	mov    %rax,%rsi
    1c96:	48 89 cf             	mov    %rcx,%rdi
    1c99:	e8 ae 22 00 00       	callq  3f4c <_ZNSt4pairIKPKcNSt7__cxx1112basic_stringIcSt11char_traitsIcESaIcEEEEC1IS1_RA5_S0_Lb1EEEOT_OT0_>
    1c9e:	48 8d 3d eb de 20 00 	lea    0x20deeb(%rip),%rdi        # 20fb90 <_ZTIx@@CXXABI_1.3>
    1ca5:	e8 d4 10 00 00       	callq  2d7e <_ZNKSt9type_info4nameEv>
    1caa:	48 89 85 20 f8 ff ff 	mov    %rax,-0x7e0(%rbp)
    1cb1:	48 8d 85 20 f8 ff ff 	lea    -0x7e0(%rbp),%rax
    1cb8:	48 8d 95 70 f8 ff ff 	lea    -0x790(%rbp),%rdx
    1cbf:	48 8d 4a 50          	lea    0x50(%rdx),%rcx
    1cc3:	48 8d 15 58 84 00 00 	lea    0x8458(%rip),%rdx        # a122 <_ZStL6ignore+0x90>
    1cca:	48 89 c6             	mov    %rax,%rsi
    1ccd:	48 89 cf             	mov    %rcx,%rdi
    1cd0:	e8 2b 23 00 00       	callq  4000 <_ZNSt4pairIKPKcNSt7__cxx1112basic_stringIcSt11char_traitsIcESaIcEEEEC1IS1_RA10_S0_Lb1EEEOT_OT0_>
    1cd5:	48 8d 3d 04 df 20 00 	lea    0x20df04(%rip),%rdi        # 20fbe0 <_ZTIs@@CXXABI_1.3>
    1cdc:	e8 9d 10 00 00       	callq  2d7e <_ZNKSt9type_info4nameEv>
    1ce1:	48 89 85 28 f8 ff ff 	mov    %rax,-0x7d8(%rbp)
    1ce8:	48 8d 85 28 f8 ff ff 	lea    -0x7d8(%rbp),%rax
    1cef:	48 8d 95 70 f8 ff ff 	lea    -0x790(%rbp),%rdx
    1cf6:	48 8d 4a 78          	lea    0x78(%rdx),%rcx
    1cfa:	48 8d 15 2b 84 00 00 	lea    0x842b(%rip),%rdx        # a12c <_ZStL6ignore+0x9a>
    1d01:	48 89 c6             	mov    %rax,%rsi
    1d04:	48 89 cf             	mov    %rcx,%rdi
    1d07:	e8 a8 23 00 00       	callq  40b4 <_ZNSt4pairIKPKcNSt7__cxx1112basic_stringIcSt11char_traitsIcESaIcEEEEC1IS1_RA6_S0_Lb1EEEOT_OT0_>
    1d0c:	48 8d 3d 2d df 20 00 	lea    0x20df2d(%rip),%rdi        # 20fc40 <_ZTId@@CXXABI_1.3>
    1d13:	e8 66 10 00 00       	callq  2d7e <_ZNKSt9type_info4nameEv>
    1d18:	48 89 85 30 f8 ff ff 	mov    %rax,-0x7d0(%rbp)
    1d1f:	48 8d 85 30 f8 ff ff 	lea    -0x7d0(%rbp),%rax
    1d26:	48 8d 95 70 f8 ff ff 	lea    -0x790(%rbp),%rdx
    1d2d:	48 8d 8a a0 00 00 00 	lea    0xa0(%rdx),%rcx
    1d34:	48 8d 15 f7 83 00 00 	lea    0x83f7(%rip),%rdx        # a132 <_ZStL6ignore+0xa0>
    1d3b:	48 89 c6             	mov    %rax,%rsi
    1d3e:	48 89 cf             	mov    %rcx,%rdi
    1d41:	e8 22 24 00 00       	callq  4168 <_ZNSt4pairIKPKcNSt7__cxx1112basic_stringIcSt11char_traitsIcESaIcEEEEC1IS1_RA7_S0_Lb1EEEOT_OT0_>
    1d46:	48 8d 3d c3 de 20 00 	lea    0x20dec3(%rip),%rdi        # 20fc10 <_ZTIf@@CXXABI_1.3>
    1d4d:	e8 2c 10 00 00       	callq  2d7e <_ZNKSt9type_info4nameEv>
    1d52:	48 89 85 38 f8 ff ff 	mov    %rax,-0x7c8(%rbp)
    1d59:	48 8d 85 38 f8 ff ff 	lea    -0x7c8(%rbp),%rax
    1d60:	48 8d 95 70 f8 ff ff 	lea    -0x790(%rbp),%rdx
    1d67:	48 8d 8a c8 00 00 00 	lea    0xc8(%rdx),%rcx
    1d6e:	48 8d 15 c4 83 00 00 	lea    0x83c4(%rip),%rdx        # a139 <_ZStL6ignore+0xa7>
    1d75:	48 89 c6             	mov    %rax,%rsi
    1d78:	48 89 cf             	mov    %rcx,%rdi
    1d7b:	e8 34 23 00 00       	callq  40b4 <_ZNSt4pairIKPKcNSt7__cxx1112basic_stringIcSt11char_traitsIcESaIcEEEEC1IS1_RA6_S0_Lb1EEEOT_OT0_>
    1d80:	48 8d 3d 99 de 20 00 	lea    0x20de99(%rip),%rdi        # 20fc20 <_ZTIj@@CXXABI_1.3>
    1d87:	e8 f2 0f 00 00       	callq  2d7e <_ZNKSt9type_info4nameEv>
    1d8c:	48 89 85 40 f8 ff ff 	mov    %rax,-0x7c0(%rbp)
    1d93:	48 8d 85 40 f8 ff ff 	lea    -0x7c0(%rbp),%rax
    1d9a:	48 8d 95 70 f8 ff ff 	lea    -0x790(%rbp),%rdx
    1da1:	48 8d 8a f0 00 00 00 	lea    0xf0(%rdx),%rcx
    1da8:	48 8d 15 90 83 00 00 	lea    0x8390(%rip),%rdx        # a13f <_ZStL6ignore+0xad>
    1daf:	48 89 c6             	mov    %rax,%rsi
    1db2:	48 89 cf             	mov    %rcx,%rdi
    1db5:	e8 62 24 00 00       	callq  421c <_ZNSt4pairIKPKcNSt7__cxx1112basic_stringIcSt11char_traitsIcESaIcEEEEC1IS1_RA13_S0_Lb1EEEOT_OT0_>
    1dba:	48 8d 3d bf de 20 00 	lea    0x20debf(%rip),%rdi        # 20fc80 <_ZTVN10__cxxabiv117__class_type_infoE@CXXABI_1.3>
    1dc1:	e8 b8 0f 00 00       	callq  2d7e <_ZNKSt9type_info4nameEv>
    1dc6:	48 89 85 48 f8 ff ff 	mov    %rax,-0x7b8(%rbp)
    1dcd:	48 8d 85 48 f8 ff ff 	lea    -0x7b8(%rbp),%rax
    1dd4:	48 8d 95 70 f8 ff ff 	lea    -0x790(%rbp),%rdx
    1ddb:	48 8d 8a 18 01 00 00 	lea    0x118(%rdx),%rcx
    1de2:	48 8d 15 63 83 00 00 	lea    0x8363(%rip),%rdx        # a14c <_ZStL6ignore+0xba>
    1de9:	48 89 c6             	mov    %rax,%rsi
    1dec:	48 89 cf             	mov    %rcx,%rdi
    1def:	e8 74 23 00 00       	callq  4168 <_ZNSt4pairIKPKcNSt7__cxx1112basic_stringIcSt11char_traitsIcESaIcEEEEC1IS1_RA7_S0_Lb1EEEOT_OT0_>
    1df4:	48 8d 3d c5 dd 20 00 	lea    0x20ddc5(%rip),%rdi        # 20fbc0 <_ZTIPi@@CXXABI_1.3>
    1dfb:	e8 7e 0f 00 00       	callq  2d7e <_ZNKSt9type_info4nameEv>
    1e00:	48 89 85 50 f8 ff ff 	mov    %rax,-0x7b0(%rbp)
    1e07:	48 8d 85 50 f8 ff ff 	lea    -0x7b0(%rbp),%rax
    1e0e:	48 8d 95 70 f8 ff ff 	lea    -0x790(%rbp),%rdx
    1e15:	48 8d 8a 40 01 00 00 	lea    0x140(%rdx),%rcx
    1e1c:	48 8d 15 30 83 00 00 	lea    0x8330(%rip),%rdx        # a153 <_ZStL6ignore+0xc1>
    1e23:	48 89 c6             	mov    %rax,%rsi
    1e26:	48 89 cf             	mov    %rcx,%rdi
    1e29:	e8 ee 23 00 00       	callq  421c <_ZNSt4pairIKPKcNSt7__cxx1112basic_stringIcSt11char_traitsIcESaIcEEEEC1IS1_RA13_S0_Lb1EEEOT_OT0_>
    1e2e:	48 8d 3d 2b de 20 00 	lea    0x20de2b(%rip),%rdi        # 20fc60 <_ZTIPj@@CXXABI_1.3>
    1e35:	e8 44 0f 00 00       	callq  2d7e <_ZNKSt9type_info4nameEv>
    1e3a:	48 89 85 58 f8 ff ff 	mov    %rax,-0x7a8(%rbp)
    1e41:	48 8d 85 58 f8 ff ff 	lea    -0x7a8(%rbp),%rax
    1e48:	48 8d 95 70 f8 ff ff 	lea    -0x790(%rbp),%rdx
    1e4f:	48 8d 8a 68 01 00 00 	lea    0x168(%rdx),%rcx
    1e56:	48 8d 15 03 83 00 00 	lea    0x8303(%rip),%rdx        # a160 <_ZStL6ignore+0xce>
    1e5d:	48 89 c6             	mov    %rax,%rsi
    1e60:	48 89 cf             	mov    %rcx,%rdi
    1e63:	e8 68 24 00 00       	callq  42d0 <_ZNSt4pairIKPKcNSt7__cxx1112basic_stringIcSt11char_traitsIcESaIcEEEEC1IS1_RA15_S0_Lb1EEEOT_OT0_>
    1e68:	48 8d 3d 31 dd 20 00 	lea    0x20dd31(%rip),%rdi        # 20fba0 <_ZTIPv@@CXXABI_1.3>
    1e6f:	e8 0a 0f 00 00       	callq  2d7e <_ZNKSt9type_info4nameEv>
    1e74:	48 89 85 60 f8 ff ff 	mov    %rax,-0x7a0(%rbp)
    1e7b:	48 8d 85 60 f8 ff ff 	lea    -0x7a0(%rbp),%rax
    1e82:	48 8d 95 70 f8 ff ff 	lea    -0x790(%rbp),%rdx
    1e89:	48 8d 8a 90 01 00 00 	lea    0x190(%rdx),%rcx
    1e90:	48 8d 15 d8 82 00 00 	lea    0x82d8(%rip),%rdx        # a16f <_ZStL6ignore+0xdd>
    1e97:	48 89 c6             	mov    %rax,%rsi
    1e9a:	48 89 cf             	mov    %rcx,%rdi
    1e9d:	e8 c6 22 00 00       	callq  4168 <_ZNSt4pairIKPKcNSt7__cxx1112basic_stringIcSt11char_traitsIcESaIcEEEEC1IS1_RA7_S0_Lb1EEEOT_OT0_>
    1ea2:	48 8d 3d 47 dd 20 00 	lea    0x20dd47(%rip),%rdi        # 20fbf0 <_ZTIv@@CXXABI_1.3>
    1ea9:	e8 d0 0e 00 00       	callq  2d7e <_ZNKSt9type_info4nameEv>
    1eae:	48 89 85 68 f8 ff ff 	mov    %rax,-0x798(%rbp)
    1eb5:	48 8d 85 68 f8 ff ff 	lea    -0x798(%rbp),%rax
    1ebc:	48 8d 95 70 f8 ff ff 	lea    -0x790(%rbp),%rdx
    1ec3:	48 8d 8a b8 01 00 00 	lea    0x1b8(%rdx),%rcx
    1eca:	48 8d 15 a5 82 00 00 	lea    0x82a5(%rip),%rdx        # a176 <_ZStL6ignore+0xe4>
    1ed1:	48 89 c6             	mov    %rax,%rsi
    1ed4:	48 89 cf             	mov    %rcx,%rdi
    1ed7:	e8 70 20 00 00       	callq  3f4c <_ZNSt4pairIKPKcNSt7__cxx1112basic_stringIcSt11char_traitsIcESaIcEEEEC1IS1_RA5_S0_Lb1EEEOT_OT0_>
    1edc:	48 8d 85 70 f8 ff ff 	lea    -0x790(%rbp),%rax
    1ee3:	48 89 85 d0 f6 ff ff 	mov    %rax,-0x930(%rbp)
    1eea:	48 c7 85 d8 f6 ff ff 	movq   $0xc,-0x928(%rbp)
    1ef1:	0c 00 00 00 
    1ef5:	48 8d 85 08 f8 ff ff 	lea    -0x7f8(%rbp),%rax
    1efc:	48 89 c7             	mov    %rax,%rdi
    1eff:	e8 80 24 00 00       	callq  4384 <_ZNSaISt4pairIKPKcNSt7__cxx1112basic_stringIcSt11char_traitsIcESaIcEEEEEC1Ev>
    1f04:	48 8d bd 00 f8 ff ff 	lea    -0x800(%rbp),%rdi
    1f0b:	48 8d b5 f8 f7 ff ff 	lea    -0x808(%rbp),%rsi
    1f12:	48 8b 85 d0 f6 ff ff 	mov    -0x930(%rbp),%rax
    1f19:	48 8b 95 d8 f6 ff ff 	mov    -0x928(%rbp),%rdx
    1f20:	48 89 c1             	mov    %rax,%rcx
    1f23:	48 89 d3             	mov    %rdx,%rbx
    1f26:	49 89 ca             	mov    %rcx,%r10
    1f29:	48 83 ec 08          	sub    $0x8,%rsp
    1f2d:	48 8d 85 08 f8 ff ff 	lea    -0x7f8(%rbp),%rax
    1f34:	50                   	push   %rax
    1f35:	49 89 f9             	mov    %rdi,%r9
    1f38:	49 89 f0             	mov    %rsi,%r8
    1f3b:	b9 00 00 00 00       	mov    $0x0,%ecx
    1f40:	4c 89 d6             	mov    %r10,%rsi
    1f43:	48 8d 3d 16 e2 20 00 	lea    0x20e216(%rip),%rdi        # 210160 <_Z5type1B5cxx11>
    1f4a:	e8 6d 24 00 00       	callq  43bc <_ZNSt13unordered_mapIPKcNSt7__cxx1112basic_stringIcSt11char_traitsIcESaIcEEESt4hashIS1_ESt8equal_toIS1_ESaISt4pairIKS1_S7_EEEC1ESt16initializer_listISE_EmRKS9_RKSB_RKSF_>
    1f4f:	48 83 c4 10          	add    $0x10,%rsp
    1f53:	48 8d 85 08 f8 ff ff 	lea    -0x7f8(%rbp),%rax
    1f5a:	48 89 c7             	mov    %rax,%rdi
    1f5d:	e8 3e 24 00 00       	callq  43a0 <_ZNSaISt4pairIKPKcNSt7__cxx1112basic_stringIcSt11char_traitsIcESaIcEEEEED1Ev>
    1f62:	48 8d 9d 70 f8 ff ff 	lea    -0x790(%rbp),%rbx
    1f69:	48 81 c3 e0 01 00 00 	add    $0x1e0,%rbx
    1f70:	48 8d 85 70 f8 ff ff 	lea    -0x790(%rbp),%rax
    1f77:	48 39 c3             	cmp    %rax,%rbx
    1f7a:	74 0e                	je     1f8a <_Z41__static_initialization_and_destruction_0ii+0x3cb>
    1f7c:	48 83 eb 28          	sub    $0x28,%rbx
    1f80:	48 89 df             	mov    %rbx,%rdi
    1f83:	e8 62 10 00 00       	callq  2fea <_ZNSt4pairIKPKcNSt7__cxx1112basic_stringIcSt11char_traitsIcESaIcEEEED1Ev>
    1f88:	eb e6                	jmp    1f70 <_Z41__static_initialization_and_destruction_0ii+0x3b1>
    1f8a:	48 8d 15 77 e0 20 00 	lea    0x20e077(%rip),%rdx        # 210008 <__dso_handle>
    1f91:	48 8d 35 c8 e1 20 00 	lea    0x20e1c8(%rip),%rsi        # 210160 <_Z5type1B5cxx11>
    1f98:	48 8d 3d 6b 10 00 00 	lea    0x106b(%rip),%rdi        # 300a <_ZNSt13unordered_mapIPKcNSt7__cxx1112basic_stringIcSt11char_traitsIcESaIcEEESt4hashIS1_ESt8equal_toIS1_ESaISt4pairIKS1_S7_EEED1Ev>
    1f9f:	e8 4c f5 ff ff       	callq  14f0 <__cxa_atexit@plt>
    1fa4:	c7 85 10 f8 ff ff 00 	movl   $0x0,-0x7f0(%rbp)
    1fab:	00 00 00 
    1fae:	48 8d 8d 10 f8 ff ff 	lea    -0x7f0(%rbp),%rcx
    1fb5:	48 8d 85 70 f8 ff ff 	lea    -0x790(%rbp),%rax
    1fbc:	48 8d 15 4f 81 00 00 	lea    0x814f(%rip),%rdx        # a112 <_ZStL6ignore+0x80>
    1fc3:	48 89 ce             	mov    %rcx,%rsi
    1fc6:	48 89 c7             	mov    %rax,%rdi
    1fc9:	e8 86 10 00 00       	callq  3054 <_ZNSt4pairIKiNSt7__cxx1112basic_stringIcSt11char_traitsIcESaIcEEEEC1IiRA11_KcLb1EEEOT_OT0_>
    1fce:	c7 85 18 f8 ff ff 01 	movl   $0x1,-0x7e8(%rbp)
    1fd5:	00 00 00 
    1fd8:	48 8d 85 18 f8 ff ff 	lea    -0x7e8(%rbp),%rax
    1fdf:	48 8d 95 70 f8 ff ff 	lea    -0x790(%rbp),%rdx
    1fe6:	48 8d 4a 28          	lea    0x28(%rdx),%rcx
    1fea:	48 8d 15 2c 81 00 00 	lea    0x812c(%rip),%rdx        # a11d <_ZStL6ignore+0x8b>
    1ff1:	48 89 c6             	mov    %rax,%rsi
    1ff4:	48 89 cf             	mov    %rcx,%rdi
    1ff7:	e8 18 11 00 00       	callq  3114 <_ZNSt4pairIKiNSt7__cxx1112basic_stringIcSt11char_traitsIcESaIcEEEEC1IiRA5_KcLb1EEEOT_OT0_>
    1ffc:	c7 85 20 f8 ff ff 02 	movl   $0x2,-0x7e0(%rbp)
    2003:	00 00 00 
    2006:	48 8d 85 20 f8 ff ff 	lea    -0x7e0(%rbp),%rax
    200d:	48 8d 95 70 f8 ff ff 	lea    -0x790(%rbp),%rdx
    2014:	48 8d 4a 50          	lea    0x50(%rdx),%rcx
    2018:	48 8d 15 03 81 00 00 	lea    0x8103(%rip),%rdx        # a122 <_ZStL6ignore+0x90>
    201f:	48 89 c6             	mov    %rax,%rsi
    2022:	48 89 cf             	mov    %rcx,%rdi
    2025:	e8 aa 11 00 00       	callq  31d4 <_ZNSt4pairIKiNSt7__cxx1112basic_stringIcSt11char_traitsIcESaIcEEEEC1IiRA10_KcLb1EEEOT_OT0_>
    202a:	c7 85 28 f8 ff ff 03 	movl   $0x3,-0x7d8(%rbp)
    2031:	00 00 00 
    2034:	48 8d 85 28 f8 ff ff 	lea    -0x7d8(%rbp),%rax
    203b:	48 8d 95 70 f8 ff ff 	lea    -0x790(%rbp),%rdx
    2042:	48 8d 4a 78          	lea    0x78(%rdx),%rcx
    2046:	48 8d 15 df 80 00 00 	lea    0x80df(%rip),%rdx        # a12c <_ZStL6ignore+0x9a>
    204d:	48 89 c6             	mov    %rax,%rsi
    2050:	48 89 cf             	mov    %rcx,%rdi
    2053:	e8 3c 12 00 00       	callq  3294 <_ZNSt4pairIKiNSt7__cxx1112basic_stringIcSt11char_traitsIcESaIcEEEEC1IiRA6_KcLb1EEEOT_OT0_>
    2058:	c7 85 30 f8 ff ff 04 	movl   $0x4,-0x7d0(%rbp)
    205f:	00 00 00 
    2062:	48 8d 85 30 f8 ff ff 	lea    -0x7d0(%rbp),%rax
    2069:	48 8d 95 70 f8 ff ff 	lea    -0x790(%rbp),%rdx
    2070:	48 8d 8a a0 00 00 00 	lea    0xa0(%rdx),%rcx
    2077:	48 8d 15 b4 80 00 00 	lea    0x80b4(%rip),%rdx        # a132 <_ZStL6ignore+0xa0>
    207e:	48 89 c6             	mov    %rax,%rsi
    2081:	48 89 cf             	mov    %rcx,%rdi
    2084:	e8 cb 12 00 00       	callq  3354 <_ZNSt4pairIKiNSt7__cxx1112basic_stringIcSt11char_traitsIcESaIcEEEEC1IiRA7_KcLb1EEEOT_OT0_>
    2089:	c7 85 38 f8 ff ff 05 	movl   $0x5,-0x7c8(%rbp)
    2090:	00 00 00 
    2093:	48 8d 85 38 f8 ff ff 	lea    -0x7c8(%rbp),%rax
    209a:	48 8d 95 70 f8 ff ff 	lea    -0x790(%rbp),%rdx
    20a1:	48 8d 8a c8 00 00 00 	lea    0xc8(%rdx),%rcx
    20a8:	48 8d 15 8a 80 00 00 	lea    0x808a(%rip),%rdx        # a139 <_ZStL6ignore+0xa7>
    20af:	48 89 c6             	mov    %rax,%rsi
    20b2:	48 89 cf             	mov    %rcx,%rdi
    20b5:	e8 da 11 00 00       	callq  3294 <_ZNSt4pairIKiNSt7__cxx1112basic_stringIcSt11char_traitsIcESaIcEEEEC1IiRA6_KcLb1EEEOT_OT0_>
    20ba:	c7 85 40 f8 ff ff 06 	movl   $0x6,-0x7c0(%rbp)
    20c1:	00 00 00 
    20c4:	48 8d 85 40 f8 ff ff 	lea    -0x7c0(%rbp),%rax
    20cb:	48 8d 95 70 f8 ff ff 	lea    -0x790(%rbp),%rdx
    20d2:	48 8d 8a f0 00 00 00 	lea    0xf0(%rdx),%rcx
    20d9:	48 8d 15 5f 80 00 00 	lea    0x805f(%rip),%rdx        # a13f <_ZStL6ignore+0xad>
    20e0:	48 89 c6             	mov    %rax,%rsi
    20e3:	48 89 cf             	mov    %rcx,%rdi
    20e6:	e8 29 13 00 00       	callq  3414 <_ZNSt4pairIKiNSt7__cxx1112basic_stringIcSt11char_traitsIcESaIcEEEEC1IiRA13_KcLb1EEEOT_OT0_>
    20eb:	c7 85 48 f8 ff ff 07 	movl   $0x7,-0x7b8(%rbp)
    20f2:	00 00 00 
    20f5:	48 8d 85 48 f8 ff ff 	lea    -0x7b8(%rbp),%rax
    20fc:	48 8d 95 70 f8 ff ff 	lea    -0x790(%rbp),%rdx
    2103:	48 8d 8a 18 01 00 00 	lea    0x118(%rdx),%rcx
    210a:	48 8d 15 3b 80 00 00 	lea    0x803b(%rip),%rdx        # a14c <_ZStL6ignore+0xba>
    2111:	48 89 c6             	mov    %rax,%rsi
    2114:	48 89 cf             	mov    %rcx,%rdi
    2117:	e8 38 12 00 00       	callq  3354 <_ZNSt4pairIKiNSt7__cxx1112basic_stringIcSt11char_traitsIcESaIcEEEEC1IiRA7_KcLb1EEEOT_OT0_>
    211c:	c7 85 50 f8 ff ff 08 	movl   $0x8,-0x7b0(%rbp)
    2123:	00 00 00 
    2126:	48 8d 85 50 f8 ff ff 	lea    -0x7b0(%rbp),%rax
    212d:	48 8d 95 70 f8 ff ff 	lea    -0x790(%rbp),%rdx
    2134:	48 8d 8a 40 01 00 00 	lea    0x140(%rdx),%rcx
    213b:	48 8d 15 11 80 00 00 	lea    0x8011(%rip),%rdx        # a153 <_ZStL6ignore+0xc1>
    2142:	48 89 c6             	mov    %rax,%rsi
    2145:	48 89 cf             	mov    %rcx,%rdi
    2148:	e8 c7 12 00 00       	callq  3414 <_ZNSt4pairIKiNSt7__cxx1112basic_stringIcSt11char_traitsIcESaIcEEEEC1IiRA13_KcLb1EEEOT_OT0_>
    214d:	c7 85 58 f8 ff ff 09 	movl   $0x9,-0x7a8(%rbp)
    2154:	00 00 00 
    2157:	48 8d 85 58 f8 ff ff 	lea    -0x7a8(%rbp),%rax
    215e:	48 8d 95 70 f8 ff ff 	lea    -0x790(%rbp),%rdx
    2165:	48 8d 8a 68 01 00 00 	lea    0x168(%rdx),%rcx
    216c:	48 8d 15 ed 7f 00 00 	lea    0x7fed(%rip),%rdx        # a160 <_ZStL6ignore+0xce>
    2173:	48 89 c6             	mov    %rax,%rsi
    2176:	48 89 cf             	mov    %rcx,%rdi
    2179:	e8 56 13 00 00       	callq  34d4 <_ZNSt4pairIKiNSt7__cxx1112basic_stringIcSt11char_traitsIcESaIcEEEEC1IiRA15_KcLb1EEEOT_OT0_>
    217e:	c7 85 60 f8 ff ff 0a 	movl   $0xa,-0x7a0(%rbp)
    2185:	00 00 00 
    2188:	48 8d 85 60 f8 ff ff 	lea    -0x7a0(%rbp),%rax
    218f:	48 8d 95 70 f8 ff ff 	lea    -0x790(%rbp),%rdx
    2196:	48 8d 8a 90 01 00 00 	lea    0x190(%rdx),%rcx
    219d:	48 8d 15 cb 7f 00 00 	lea    0x7fcb(%rip),%rdx        # a16f <_ZStL6ignore+0xdd>
    21a4:	48 89 c6             	mov    %rax,%rsi
    21a7:	48 89 cf             	mov    %rcx,%rdi
    21aa:	e8 a5 11 00 00       	callq  3354 <_ZNSt4pairIKiNSt7__cxx1112basic_stringIcSt11char_traitsIcESaIcEEEEC1IiRA7_KcLb1EEEOT_OT0_>
    21af:	c7 85 68 f8 ff ff 0b 	movl   $0xb,-0x798(%rbp)
    21b6:	00 00 00 
    21b9:	48 8d 85 68 f8 ff ff 	lea    -0x798(%rbp),%rax
    21c0:	48 8d 95 70 f8 ff ff 	lea    -0x790(%rbp),%rdx
    21c7:	48 8d 8a b8 01 00 00 	lea    0x1b8(%rdx),%rcx
    21ce:	48 8d 15 a1 7f 00 00 	lea    0x7fa1(%rip),%rdx        # a176 <_ZStL6ignore+0xe4>
    21d5:	48 89 c6             	mov    %rax,%rsi
    21d8:	48 89 cf             	mov    %rcx,%rdi
    21db:	e8 34 0f 00 00       	callq  3114 <_ZNSt4pairIKiNSt7__cxx1112basic_stringIcSt11char_traitsIcESaIcEEEEC1IiRA5_KcLb1EEEOT_OT0_>
    21e0:	48 8d 85 70 f8 ff ff 	lea    -0x790(%rbp),%rax
    21e7:	49 89 c6             	mov    %rax,%r14
    21ea:	41 bf 0c 00 00 00    	mov    $0xc,%r15d
    21f0:	48 8d 85 08 f8 ff ff 	lea    -0x7f8(%rbp),%rax
    21f7:	48 89 c7             	mov    %rax,%rdi
    21fa:	e8 87 22 00 00       	callq  4486 <_ZNSaISt4pairIKiNSt7__cxx1112basic_stringIcSt11char_traitsIcESaIcEEEEEC1Ev>
    21ff:	48 8d bd 00 f8 ff ff 	lea    -0x800(%rbp),%rdi
    2206:	48 8d b5 f8 f7 ff ff 	lea    -0x808(%rbp),%rsi
    220d:	4c 89 f1             	mov    %r14,%rcx
    2210:	4c 89 fb             	mov    %r15,%rbx
    2213:	4c 89 f0             	mov    %r14,%rax
    2216:	4c 89 fa             	mov    %r15,%rdx
    2219:	49 89 ca             	mov    %rcx,%r10
    221c:	48 83 ec 08          	sub    $0x8,%rsp
    2220:	48 8d 85 08 f8 ff ff 	lea    -0x7f8(%rbp),%rax
    2227:	50                   	push   %rax
    2228:	49 89 f9             	mov    %rdi,%r9
    222b:	49 89 f0             	mov    %rsi,%r8
    222e:	b9 00 00 00 00       	mov    $0x0,%ecx
    2233:	4c 89 d6             	mov    %r10,%rsi
    2236:	48 8d 3d 63 df 20 00 	lea    0x20df63(%rip),%rdi        # 2101a0 <_Z5type2B5cxx11>
    223d:	e8 7c 22 00 00       	callq  44be <_ZNSt13unordered_mapIiNSt7__cxx1112basic_stringIcSt11char_traitsIcESaIcEEESt4hashIiESt8equal_toIiESaISt4pairIKiS5_EEEC1ESt16initializer_listISC_EmRKS7_RKS9_RKSD_>
    2242:	48 83 c4 10          	add    $0x10,%rsp
    2246:	48 8d 85 08 f8 ff ff 	lea    -0x7f8(%rbp),%rax
    224d:	48 89 c7             	mov    %rax,%rdi
    2250:	e8 4d 22 00 00       	callq  44a2 <_ZNSaISt4pairIKiNSt7__cxx1112basic_stringIcSt11char_traitsIcESaIcEEEEED1Ev>
    2255:	48 8d 9d 70 f8 ff ff 	lea    -0x790(%rbp),%rbx
    225c:	48 81 c3 e0 01 00 00 	add    $0x1e0,%rbx
    2263:	48 8d 85 70 f8 ff ff 	lea    -0x790(%rbp),%rax
    226a:	48 39 c3             	cmp    %rax,%rbx
    226d:	74 0e                	je     227d <_Z41__static_initialization_and_destruction_0ii+0x6be>
    226f:	48 83 eb 28          	sub    $0x28,%rbx
    2273:	48 89 df             	mov    %rbx,%rdi
    2276:	e8 ab 0d 00 00       	callq  3026 <_ZNSt4pairIKiNSt7__cxx1112basic_stringIcSt11char_traitsIcESaIcEEEED1Ev>
    227b:	eb e6                	jmp    2263 <_Z41__static_initialization_and_destruction_0ii+0x6a4>
    227d:	48 8d 15 84 dd 20 00 	lea    0x20dd84(%rip),%rdx        # 210008 <__dso_handle>
    2284:	48 8d 35 15 df 20 00 	lea    0x20df15(%rip),%rsi        # 2101a0 <_Z5type2B5cxx11>
    228b:	48 8d 3d f4 12 00 00 	lea    0x12f4(%rip),%rdi        # 3586 <_ZNSt13unordered_mapIiNSt7__cxx1112basic_stringIcSt11char_traitsIcESaIcEEESt4hashIiESt8equal_toIiESaISt4pairIKiS5_EEED1Ev>
    2292:	e8 59 f2 ff ff       	callq  14f0 <__cxa_atexit@plt>
    2297:	48 c7 85 f8 f6 ff ff 	movq   $0x4,-0x908(%rbp)
    229e:	04 00 00 00 
    22a2:	48 8d 95 f8 f6 ff ff 	lea    -0x908(%rbp),%rdx
    22a9:	48 8d 85 70 f8 ff ff 	lea    -0x790(%rbp),%rax
    22b0:	48 8d 35 5b 7e 00 00 	lea    0x7e5b(%rip),%rsi        # a112 <_ZStL6ignore+0x80>
    22b7:	48 89 c7             	mov    %rax,%rdi
    22ba:	e8 ff 12 00 00       	callq  35be <_ZNSt4pairIKNSt7__cxx1112basic_stringIcSt11char_traitsIcESaIcEEEmEC1IRA11_KcmLb1EEEOT_OT0_>
    22bf:	48 c7 85 00 f7 ff ff 	movq   $0x1,-0x900(%rbp)
    22c6:	01 00 00 00 
    22ca:	48 8d 85 00 f7 ff ff 	lea    -0x900(%rbp),%rax
    22d1:	48 8d 95 70 f8 ff ff 	lea    -0x790(%rbp),%rdx
    22d8:	48 8d 4a 28          	lea    0x28(%rdx),%rcx
    22dc:	48 89 c2             	mov    %rax,%rdx
    22df:	48 8d 35 37 7e 00 00 	lea    0x7e37(%rip),%rsi        # a11d <_ZStL6ignore+0x8b>
    22e6:	48 89 cf             	mov    %rcx,%rdi
    22e9:	e8 80 13 00 00       	callq  366e <_ZNSt4pairIKNSt7__cxx1112basic_stringIcSt11char_traitsIcESaIcEEEmEC1IRA5_KcmLb1EEEOT_OT0_>
    22ee:	48 c7 85 08 f7 ff ff 	movq   $0x8,-0x8f8(%rbp)
    22f5:	08 00 00 00 
    22f9:	48 8d 85 08 f7 ff ff 	lea    -0x8f8(%rbp),%rax
    2300:	48 8d 95 70 f8 ff ff 	lea    -0x790(%rbp),%rdx
    2307:	48 8d 4a 50          	lea    0x50(%rdx),%rcx
    230b:	48 89 c2             	mov    %rax,%rdx
    230e:	48 8d 35 0d 7e 00 00 	lea    0x7e0d(%rip),%rsi        # a122 <_ZStL6ignore+0x90>
    2315:	48 89 cf             	mov    %rcx,%rdi
    2318:	e8 01 14 00 00       	callq  371e <_ZNSt4pairIKNSt7__cxx1112basic_stringIcSt11char_traitsIcESaIcEEEmEC1IRA10_KcmLb1EEEOT_OT0_>
    231d:	48 c7 85 10 f7 ff ff 	movq   $0x2,-0x8f0(%rbp)
    2324:	02 00 00 00 
    2328:	48 8d 85 10 f7 ff ff 	lea    -0x8f0(%rbp),%rax
    232f:	48 8d 95 70 f8 ff ff 	lea    -0x790(%rbp),%rdx
    2336:	48 8d 4a 78          	lea    0x78(%rdx),%rcx
    233a:	48 89 c2             	mov    %rax,%rdx
    233d:	48 8d 35 e8 7d 00 00 	lea    0x7de8(%rip),%rsi        # a12c <_ZStL6ignore+0x9a>
    2344:	48 89 cf             	mov    %rcx,%rdi
    2347:	e8 82 14 00 00       	callq  37ce <_ZNSt4pairIKNSt7__cxx1112basic_stringIcSt11char_traitsIcESaIcEEEmEC1IRA6_KcmLb1EEEOT_OT0_>
    234c:	48 c7 85 18 f7 ff ff 	movq   $0x2,-0x8e8(%rbp)
    2353:	02 00 00 00 
    2357:	48 8d 85 18 f7 ff ff 	lea    -0x8e8(%rbp),%rax
    235e:	48 8d 95 70 f8 ff ff 	lea    -0x790(%rbp),%rdx
    2365:	48 8d 8a a0 00 00 00 	lea    0xa0(%rdx),%rcx
    236c:	48 89 c2             	mov    %rax,%rdx
    236f:	48 8d 35 05 7e 00 00 	lea    0x7e05(%rip),%rsi        # a17b <_ZStL6ignore+0xe9>
    2376:	48 89 cf             	mov    %rcx,%rdi
    2379:	e8 00 15 00 00       	callq  387e <_ZNSt4pairIKNSt7__cxx1112basic_stringIcSt11char_traitsIcESaIcEEEmEC1IRA15_KcmLb1EEEOT_OT0_>
    237e:	48 c7 85 20 f7 ff ff 	movq   $0x8,-0x8e0(%rbp)
    2385:	08 00 00 00 
    2389:	48 8d 85 20 f7 ff ff 	lea    -0x8e0(%rbp),%rax
    2390:	48 8d 95 70 f8 ff ff 	lea    -0x790(%rbp),%rdx
    2397:	48 8d 8a c8 00 00 00 	lea    0xc8(%rdx),%rcx
    239e:	48 89 c2             	mov    %rax,%rdx
    23a1:	48 8d 35 8a 7d 00 00 	lea    0x7d8a(%rip),%rsi        # a132 <_ZStL6ignore+0xa0>
    23a8:	48 89 cf             	mov    %rcx,%rdi
    23ab:	e8 7e 15 00 00       	callq  392e <_ZNSt4pairIKNSt7__cxx1112basic_stringIcSt11char_traitsIcESaIcEEEmEC1IRA7_KcmLb1EEEOT_OT0_>
    23b0:	48 c7 85 28 f7 ff ff 	movq   $0x10,-0x8d8(%rbp)
    23b7:	10 00 00 00 
    23bb:	48 8d 85 28 f7 ff ff 	lea    -0x8d8(%rbp),%rax
    23c2:	48 8d 95 70 f8 ff ff 	lea    -0x790(%rbp),%rdx
    23c9:	48 8d 8a f0 00 00 00 	lea    0xf0(%rdx),%rcx
    23d0:	48 89 c2             	mov    %rax,%rdx
    23d3:	48 8d 35 b0 7d 00 00 	lea    0x7db0(%rip),%rsi        # a18a <_ZStL6ignore+0xf8>
    23da:	48 89 cf             	mov    %rcx,%rdi
    23dd:	e8 0a 16 00 00       	callq  39ec <_ZNSt4pairIKNSt7__cxx1112basic_stringIcSt11char_traitsIcESaIcEEEmEC1IRA12_KcmLb1EEEOT_OT0_>
    23e2:	48 c7 85 30 f7 ff ff 	movq   $0x4,-0x8d0(%rbp)
    23e9:	04 00 00 00 
    23ed:	48 8d 85 30 f7 ff ff 	lea    -0x8d0(%rbp),%rax
    23f4:	48 8d 95 70 f8 ff ff 	lea    -0x790(%rbp),%rdx
    23fb:	48 8d 8a 18 01 00 00 	lea    0x118(%rdx),%rcx
    2402:	48 89 c2             	mov    %rax,%rdx
    2405:	48 8d 35 2d 7d 00 00 	lea    0x7d2d(%rip),%rsi        # a139 <_ZStL6ignore+0xa7>
    240c:	48 89 cf             	mov    %rcx,%rdi
    240f:	e8 ba 13 00 00       	callq  37ce <_ZNSt4pairIKNSt7__cxx1112basic_stringIcSt11char_traitsIcESaIcEEEmEC1IRA6_KcmLb1EEEOT_OT0_>
    2414:	48 c7 85 38 f7 ff ff 	movq   $0x4,-0x8c8(%rbp)
    241b:	04 00 00 00 
    241f:	48 8d 85 38 f7 ff ff 	lea    -0x8c8(%rbp),%rax
    2426:	48 8d 95 70 f8 ff ff 	lea    -0x790(%rbp),%rdx
    242d:	48 8d 8a 40 01 00 00 	lea    0x140(%rdx),%rcx
    2434:	48 89 c2             	mov    %rax,%rdx
    2437:	48 8d 35 01 7d 00 00 	lea    0x7d01(%rip),%rsi        # a13f <_ZStL6ignore+0xad>
    243e:	48 89 cf             	mov    %rcx,%rdi
    2441:	e8 56 16 00 00       	callq  3a9c <_ZNSt4pairIKNSt7__cxx1112basic_stringIcSt11char_traitsIcESaIcEEEmEC1IRA13_KcmLb1EEEOT_OT0_>
    2446:	48 c7 85 40 f7 ff ff 	movq   $0x8,-0x8c0(%rbp)
    244d:	08 00 00 00 
    2451:	48 8d 85 40 f7 ff ff 	lea    -0x8c0(%rbp),%rax
    2458:	48 8d 95 70 f8 ff ff 	lea    -0x790(%rbp),%rdx
    245f:	48 8d 8a 68 01 00 00 	lea    0x168(%rdx),%rcx
    2466:	48 89 c2             	mov    %rax,%rdx
    2469:	48 8d 35 26 7d 00 00 	lea    0x7d26(%rip),%rsi        # a196 <_ZStL6ignore+0x104>
    2470:	48 89 cf             	mov    %rcx,%rdi
    2473:	e8 e2 16 00 00       	callq  3b5a <_ZNSt4pairIKNSt7__cxx1112basic_stringIcSt11char_traitsIcESaIcEEEmEC1IRA14_KcmLb1EEEOT_OT0_>
    2478:	48 c7 85 48 f7 ff ff 	movq   $0x8,-0x8b8(%rbp)
    247f:	08 00 00 00 
    2483:	48 8d 85 48 f7 ff ff 	lea    -0x8b8(%rbp),%rax
    248a:	48 8d 95 70 f8 ff ff 	lea    -0x790(%rbp),%rdx
    2491:	48 8d 8a 90 01 00 00 	lea    0x190(%rdx),%rcx
    2498:	48 89 c2             	mov    %rax,%rdx
    249b:	48 8d 35 02 7d 00 00 	lea    0x7d02(%rip),%rsi        # a1a4 <_ZStL6ignore+0x112>
    24a2:	48 89 cf             	mov    %rcx,%rdi
    24a5:	e8 6e 17 00 00       	callq  3c18 <_ZNSt4pairIKNSt7__cxx1112basic_stringIcSt11char_traitsIcESaIcEEEmEC1IRA19_KcmLb1EEEOT_OT0_>
    24aa:	48 c7 85 50 f7 ff ff 	movq   $0x20,-0x8b0(%rbp)
    24b1:	20 00 00 00 
    24b5:	48 8d 85 50 f7 ff ff 	lea    -0x8b0(%rbp),%rax
    24bc:	48 8d 95 70 f8 ff ff 	lea    -0x790(%rbp),%rdx
    24c3:	48 8d 8a b8 01 00 00 	lea    0x1b8(%rdx),%rcx
    24ca:	48 89 c2             	mov    %rax,%rdx
    24cd:	48 8d 35 78 7c 00 00 	lea    0x7c78(%rip),%rsi        # a14c <_ZStL6ignore+0xba>
    24d4:	48 89 cf             	mov    %rcx,%rdi
    24d7:	e8 52 14 00 00       	callq  392e <_ZNSt4pairIKNSt7__cxx1112basic_stringIcSt11char_traitsIcESaIcEEEmEC1IRA7_KcmLb1EEEOT_OT0_>
    24dc:	48 c7 85 58 f7 ff ff 	movq   $0x8,-0x8a8(%rbp)
    24e3:	08 00 00 00 
    24e7:	48 8d 85 58 f7 ff ff 	lea    -0x8a8(%rbp),%rax
    24ee:	48 8d 95 70 f8 ff ff 	lea    -0x790(%rbp),%rdx
    24f5:	48 8d 8a e0 01 00 00 	lea    0x1e0(%rdx),%rcx
    24fc:	48 89 c2             	mov    %rax,%rdx
    24ff:	48 8d 35 4d 7c 00 00 	lea    0x7c4d(%rip),%rsi        # a153 <_ZStL6ignore+0xc1>
    2506:	48 89 cf             	mov    %rcx,%rdi
    2509:	e8 8e 15 00 00       	callq  3a9c <_ZNSt4pairIKNSt7__cxx1112basic_stringIcSt11char_traitsIcESaIcEEEmEC1IRA13_KcmLb1EEEOT_OT0_>
    250e:	48 c7 85 60 f7 ff ff 	movq   $0x8,-0x8a0(%rbp)
    2515:	08 00 00 00 
    2519:	48 8d 85 60 f7 ff ff 	lea    -0x8a0(%rbp),%rax
    2520:	48 8d 95 70 f8 ff ff 	lea    -0x790(%rbp),%rdx
    2527:	48 8d 8a 08 02 00 00 	lea    0x208(%rdx),%rcx
    252e:	48 89 c2             	mov    %rax,%rdx
    2531:	48 8d 35 28 7c 00 00 	lea    0x7c28(%rip),%rsi        # a160 <_ZStL6ignore+0xce>
    2538:	48 89 cf             	mov    %rcx,%rdi
    253b:	e8 3e 13 00 00       	callq  387e <_ZNSt4pairIKNSt7__cxx1112basic_stringIcSt11char_traitsIcESaIcEEEmEC1IRA15_KcmLb1EEEOT_OT0_>
    2540:	48 c7 85 68 f7 ff ff 	movq   $0x8,-0x898(%rbp)
    2547:	08 00 00 00 
    254b:	48 8d 85 68 f7 ff ff 	lea    -0x898(%rbp),%rax
    2552:	48 8d 95 70 f8 ff ff 	lea    -0x790(%rbp),%rdx
    2559:	48 8d 8a 30 02 00 00 	lea    0x230(%rdx),%rcx
    2560:	48 89 c2             	mov    %rax,%rdx
    2563:	48 8d 35 4d 7c 00 00 	lea    0x7c4d(%rip),%rsi        # a1b7 <_ZStL6ignore+0x125>
    256a:	48 89 cf             	mov    %rcx,%rdi
    256d:	e8 bc 13 00 00       	callq  392e <_ZNSt4pairIKNSt7__cxx1112basic_stringIcSt11char_traitsIcESaIcEEEmEC1IRA7_KcmLb1EEEOT_OT0_>
    2572:	48 c7 85 70 f7 ff ff 	movq   $0x8,-0x890(%rbp)
    2579:	08 00 00 00 
    257d:	48 8d 85 70 f7 ff ff 	lea    -0x890(%rbp),%rax
    2584:	48 8d 95 70 f8 ff ff 	lea    -0x790(%rbp),%rdx
    258b:	48 8d 8a 58 02 00 00 	lea    0x258(%rdx),%rcx
    2592:	48 89 c2             	mov    %rax,%rdx
    2595:	48 8d 35 22 7c 00 00 	lea    0x7c22(%rip),%rsi        # a1be <_ZStL6ignore+0x12c>
    259c:	48 89 cf             	mov    %rcx,%rdi
    259f:	e8 32 17 00 00       	callq  3cd6 <_ZNSt4pairIKNSt7__cxx1112basic_stringIcSt11char_traitsIcESaIcEEEmEC1IRA8_KcmLb1EEEOT_OT0_>
    25a4:	48 c7 85 78 f7 ff ff 	movq   $0x4,-0x888(%rbp)
    25ab:	04 00 00 00 
    25af:	48 8d 85 78 f7 ff ff 	lea    -0x888(%rbp),%rax
    25b6:	48 8d 95 70 f8 ff ff 	lea    -0x790(%rbp),%rdx
    25bd:	48 8d 8a 80 02 00 00 	lea    0x280(%rdx),%rcx
    25c4:	48 89 c2             	mov    %rax,%rdx
    25c7:	48 8d 35 f8 7b 00 00 	lea    0x7bf8(%rip),%rsi        # a1c6 <_ZStL6ignore+0x134>
    25ce:	48 89 cf             	mov    %rcx,%rdi
    25d1:	e8 00 17 00 00       	callq  3cd6 <_ZNSt4pairIKNSt7__cxx1112basic_stringIcSt11char_traitsIcESaIcEEEmEC1IRA8_KcmLb1EEEOT_OT0_>
    25d6:	48 c7 85 80 f7 ff ff 	movq   $0x2,-0x880(%rbp)
    25dd:	02 00 00 00 
    25e1:	48 8d 85 80 f7 ff ff 	lea    -0x880(%rbp),%rax
    25e8:	48 8d 95 70 f8 ff ff 	lea    -0x790(%rbp),%rdx
    25ef:	48 8d 8a a8 02 00 00 	lea    0x2a8(%rdx),%rcx
    25f6:	48 89 c2             	mov    %rax,%rdx
    25f9:	48 8d 35 ce 7b 00 00 	lea    0x7bce(%rip),%rsi        # a1ce <_ZStL6ignore+0x13c>
    2600:	48 89 cf             	mov    %rcx,%rdi
    2603:	e8 8c 17 00 00       	callq  3d94 <_ZNSt4pairIKNSt7__cxx1112basic_stringIcSt11char_traitsIcESaIcEEEmEC1IRA9_KcmLb1EEEOT_OT0_>
    2608:	48 c7 85 88 f7 ff ff 	movq   $0x4,-0x878(%rbp)
    260f:	04 00 00 00 
    2613:	48 8d 85 88 f7 ff ff 	lea    -0x878(%rbp),%rax
    261a:	48 8d 95 70 f8 ff ff 	lea    -0x790(%rbp),%rdx
    2621:	48 8d 8a d0 02 00 00 	lea    0x2d0(%rdx),%rcx
    2628:	48 89 c2             	mov    %rax,%rdx
    262b:	48 8d 35 a5 7b 00 00 	lea    0x7ba5(%rip),%rsi        # a1d7 <_ZStL6ignore+0x145>
    2632:	48 89 cf             	mov    %rcx,%rdi
    2635:	e8 5a 17 00 00       	callq  3d94 <_ZNSt4pairIKNSt7__cxx1112basic_stringIcSt11char_traitsIcESaIcEEEmEC1IRA9_KcmLb1EEEOT_OT0_>
    263a:	48 c7 85 90 f7 ff ff 	movq   $0x8,-0x870(%rbp)
    2641:	08 00 00 00 
    2645:	48 8d 85 90 f7 ff ff 	lea    -0x870(%rbp),%rax
    264c:	48 8d 95 70 f8 ff ff 	lea    -0x790(%rbp),%rdx
    2653:	48 8d 8a f8 02 00 00 	lea    0x2f8(%rdx),%rcx
    265a:	48 89 c2             	mov    %rax,%rdx
    265d:	48 8d 35 7c 7b 00 00 	lea    0x7b7c(%rip),%rsi        # a1e0 <_ZStL6ignore+0x14e>
    2664:	48 89 cf             	mov    %rcx,%rdi
    2667:	e8 28 17 00 00       	callq  3d94 <_ZNSt4pairIKNSt7__cxx1112basic_stringIcSt11char_traitsIcESaIcEEEmEC1IRA9_KcmLb1EEEOT_OT0_>
    266c:	48 c7 85 98 f7 ff ff 	movq   $0x1,-0x868(%rbp)
    2673:	01 00 00 00 
    2677:	48 8d 85 98 f7 ff ff 	lea    -0x868(%rbp),%rax
    267e:	48 8d 95 70 f8 ff ff 	lea    -0x790(%rbp),%rdx
    2685:	48 8d 8a 20 03 00 00 	lea    0x320(%rdx),%rcx
    268c:	48 89 c2             	mov    %rax,%rdx
    268f:	48 8d 35 53 7b 00 00 	lea    0x7b53(%rip),%rsi        # a1e9 <_ZStL6ignore+0x157>
    2696:	48 89 cf             	mov    %rcx,%rdi
    2699:	e8 90 12 00 00       	callq  392e <_ZNSt4pairIKNSt7__cxx1112basic_stringIcSt11char_traitsIcESaIcEEEmEC1IRA7_KcmLb1EEEOT_OT0_>
    269e:	48 c7 85 a0 f7 ff ff 	movq   $0x2,-0x860(%rbp)
    26a5:	02 00 00 00 
    26a9:	48 8d 85 a0 f7 ff ff 	lea    -0x860(%rbp),%rax
    26b0:	48 8d 95 70 f8 ff ff 	lea    -0x790(%rbp),%rdx
    26b7:	48 8d 8a 48 03 00 00 	lea    0x348(%rdx),%rcx
    26be:	48 89 c2             	mov    %rax,%rdx
    26c1:	48 8d 35 28 7b 00 00 	lea    0x7b28(%rip),%rsi        # a1f0 <_ZStL6ignore+0x15e>
    26c8:	48 89 cf             	mov    %rcx,%rdi
    26cb:	e8 06 16 00 00       	callq  3cd6 <_ZNSt4pairIKNSt7__cxx1112basic_stringIcSt11char_traitsIcESaIcEEEmEC1IRA8_KcmLb1EEEOT_OT0_>
    26d0:	48 c7 85 a8 f7 ff ff 	movq   $0x4,-0x858(%rbp)
    26d7:	04 00 00 00 
    26db:	48 8d 85 a8 f7 ff ff 	lea    -0x858(%rbp),%rax
    26e2:	48 8d 95 70 f8 ff ff 	lea    -0x790(%rbp),%rdx
    26e9:	48 8d 8a 70 03 00 00 	lea    0x370(%rdx),%rcx
    26f0:	48 89 c2             	mov    %rax,%rdx
    26f3:	48 8d 35 fe 7a 00 00 	lea    0x7afe(%rip),%rsi        # a1f8 <_ZStL6ignore+0x166>
    26fa:	48 89 cf             	mov    %rcx,%rdi
    26fd:	e8 d4 15 00 00       	callq  3cd6 <_ZNSt4pairIKNSt7__cxx1112basic_stringIcSt11char_traitsIcESaIcEEEmEC1IRA8_KcmLb1EEEOT_OT0_>
    2702:	48 c7 85 b0 f7 ff ff 	movq   $0x8,-0x850(%rbp)
    2709:	08 00 00 00 
    270d:	48 8d 85 b0 f7 ff ff 	lea    -0x850(%rbp),%rax
    2714:	48 8d 95 70 f8 ff ff 	lea    -0x790(%rbp),%rdx
    271b:	48 8d 8a 98 03 00 00 	lea    0x398(%rdx),%rcx
    2722:	48 89 c2             	mov    %rax,%rdx
    2725:	48 8d 35 d4 7a 00 00 	lea    0x7ad4(%rip),%rsi        # a200 <_ZStL6ignore+0x16e>
    272c:	48 89 cf             	mov    %rcx,%rdi
    272f:	e8 a2 15 00 00       	callq  3cd6 <_ZNSt4pairIKNSt7__cxx1112basic_stringIcSt11char_traitsIcESaIcEEEmEC1IRA8_KcmLb1EEEOT_OT0_>
    2734:	48 c7 85 b8 f7 ff ff 	movq   $0x1,-0x848(%rbp)
    273b:	01 00 00 00 
    273f:	48 8d 85 b8 f7 ff ff 	lea    -0x848(%rbp),%rax
    2746:	48 8d 95 70 f8 ff ff 	lea    -0x790(%rbp),%rdx
    274d:	48 8d 8a c0 03 00 00 	lea    0x3c0(%rdx),%rcx
    2754:	48 89 c2             	mov    %rax,%rdx
    2757:	48 8d 35 aa 7a 00 00 	lea    0x7aaa(%rip),%rsi        # a208 <_ZStL6ignore+0x176>
    275e:	48 89 cf             	mov    %rcx,%rdi
    2761:	e8 36 13 00 00       	callq  3a9c <_ZNSt4pairIKNSt7__cxx1112basic_stringIcSt11char_traitsIcESaIcEEEmEC1IRA13_KcmLb1EEEOT_OT0_>
    2766:	48 c7 85 c0 f7 ff ff 	movq   $0x2,-0x840(%rbp)
    276d:	02 00 00 00 
    2771:	48 8d 85 c0 f7 ff ff 	lea    -0x840(%rbp),%rax
    2778:	48 8d 95 70 f8 ff ff 	lea    -0x790(%rbp),%rdx
    277f:	48 8d 8a e8 03 00 00 	lea    0x3e8(%rdx),%rcx
    2786:	48 89 c2             	mov    %rax,%rdx
    2789:	48 8d 35 85 7a 00 00 	lea    0x7a85(%rip),%rsi        # a215 <_ZStL6ignore+0x183>
    2790:	48 89 cf             	mov    %rcx,%rdi
    2793:	e8 c2 13 00 00       	callq  3b5a <_ZNSt4pairIKNSt7__cxx1112basic_stringIcSt11char_traitsIcESaIcEEEmEC1IRA14_KcmLb1EEEOT_OT0_>
    2798:	48 c7 85 c8 f7 ff ff 	movq   $0x4,-0x838(%rbp)
    279f:	04 00 00 00 
    27a3:	48 8d 85 c8 f7 ff ff 	lea    -0x838(%rbp),%rax
    27aa:	48 8d 95 70 f8 ff ff 	lea    -0x790(%rbp),%rdx
    27b1:	48 8d 8a 10 04 00 00 	lea    0x410(%rdx),%rcx
    27b8:	48 89 c2             	mov    %rax,%rdx
    27bb:	48 8d 35 61 7a 00 00 	lea    0x7a61(%rip),%rsi        # a223 <_ZStL6ignore+0x191>
    27c2:	48 89 cf             	mov    %rcx,%rdi
    27c5:	e8 90 13 00 00       	callq  3b5a <_ZNSt4pairIKNSt7__cxx1112basic_stringIcSt11char_traitsIcESaIcEEEmEC1IRA14_KcmLb1EEEOT_OT0_>
    27ca:	48 c7 85 d0 f7 ff ff 	movq   $0x8,-0x830(%rbp)
    27d1:	08 00 00 00 
    27d5:	48 8d 85 d0 f7 ff ff 	lea    -0x830(%rbp),%rax
    27dc:	48 8d 95 70 f8 ff ff 	lea    -0x790(%rbp),%rdx
    27e3:	48 8d 8a 38 04 00 00 	lea    0x438(%rdx),%rcx
    27ea:	48 89 c2             	mov    %rax,%rdx
    27ed:	48 8d 35 3d 7a 00 00 	lea    0x7a3d(%rip),%rsi        # a231 <_ZStL6ignore+0x19f>
    27f4:	48 89 cf             	mov    %rcx,%rdi
    27f7:	e8 5e 13 00 00       	callq  3b5a <_ZNSt4pairIKNSt7__cxx1112basic_stringIcSt11char_traitsIcESaIcEEEmEC1IRA14_KcmLb1EEEOT_OT0_>
    27fc:	48 c7 85 d8 f7 ff ff 	movq   $0x1,-0x828(%rbp)
    2803:	01 00 00 00 
    2807:	48 8d 85 d8 f7 ff ff 	lea    -0x828(%rbp),%rax
    280e:	48 8d 95 70 f8 ff ff 	lea    -0x790(%rbp),%rdx
    2815:	48 8d 8a 60 04 00 00 	lea    0x460(%rdx),%rcx
    281c:	48 89 c2             	mov    %rax,%rdx
    281f:	48 8d 35 19 7a 00 00 	lea    0x7a19(%rip),%rsi        # a23f <_ZStL6ignore+0x1ad>
    2826:	48 89 cf             	mov    %rcx,%rdi
    2829:	e8 be 11 00 00       	callq  39ec <_ZNSt4pairIKNSt7__cxx1112basic_stringIcSt11char_traitsIcESaIcEEEmEC1IRA12_KcmLb1EEEOT_OT0_>
    282e:	48 c7 85 e0 f7 ff ff 	movq   $0x8,-0x820(%rbp)
    2835:	08 00 00 00 
    2839:	48 8d 85 e0 f7 ff ff 	lea    -0x820(%rbp),%rax
    2840:	48 8d 95 70 f8 ff ff 	lea    -0x790(%rbp),%rdx
    2847:	48 8d 8a 88 04 00 00 	lea    0x488(%rdx),%rcx
    284e:	48 89 c2             	mov    %rax,%rdx
    2851:	48 8d 35 f3 79 00 00 	lea    0x79f3(%rip),%rsi        # a24b <_ZStL6ignore+0x1b9>
    2858:	48 89 cf             	mov    %rcx,%rdi
    285b:	e8 3c 12 00 00       	callq  3a9c <_ZNSt4pairIKNSt7__cxx1112basic_stringIcSt11char_traitsIcESaIcEEEmEC1IRA13_KcmLb1EEEOT_OT0_>
    2860:	48 c7 85 e8 f7 ff ff 	movq   $0x8,-0x818(%rbp)
    2867:	08 00 00 00 
    286b:	48 8d 85 e8 f7 ff ff 	lea    -0x818(%rbp),%rax
    2872:	48 8d 95 70 f8 ff ff 	lea    -0x790(%rbp),%rdx
    2879:	48 8d 8a b0 04 00 00 	lea    0x4b0(%rdx),%rcx
    2880:	48 89 c2             	mov    %rax,%rdx
    2883:	48 8d 35 ce 79 00 00 	lea    0x79ce(%rip),%rsi        # a258 <_ZStL6ignore+0x1c6>
    288a:	48 89 cf             	mov    %rcx,%rdi
    288d:	e8 0a 12 00 00       	callq  3a9c <_ZNSt4pairIKNSt7__cxx1112basic_stringIcSt11char_traitsIcESaIcEEEmEC1IRA13_KcmLb1EEEOT_OT0_>
    2892:	48 c7 85 f0 f7 ff ff 	movq   $0x8,-0x810(%rbp)
    2899:	08 00 00 00 
    289d:	48 8d 85 f0 f7 ff ff 	lea    -0x810(%rbp),%rax
    28a4:	48 8d 95 70 f8 ff ff 	lea    -0x790(%rbp),%rdx
    28ab:	48 8d 8a d8 04 00 00 	lea    0x4d8(%rdx),%rcx
    28b2:	48 89 c2             	mov    %rax,%rdx
    28b5:	48 8d 35 a9 79 00 00 	lea    0x79a9(%rip),%rsi        # a265 <_ZStL6ignore+0x1d3>
    28bc:	48 89 cf             	mov    %rcx,%rdi
    28bf:	e8 d8 11 00 00       	callq  3a9c <_ZNSt4pairIKNSt7__cxx1112basic_stringIcSt11char_traitsIcESaIcEEEmEC1IRA13_KcmLb1EEEOT_OT0_>
    28c4:	48 c7 85 f8 f7 ff ff 	movq   $0x8,-0x808(%rbp)
    28cb:	08 00 00 00 
    28cf:	48 8d 85 f8 f7 ff ff 	lea    -0x808(%rbp),%rax
    28d6:	48 8d 95 70 f8 ff ff 	lea    -0x790(%rbp),%rdx
    28dd:	48 8d 8a 00 05 00 00 	lea    0x500(%rdx),%rcx
    28e4:	48 89 c2             	mov    %rax,%rdx
    28e7:	48 8d 35 84 79 00 00 	lea    0x7984(%rip),%rsi        # a272 <_ZStL6ignore+0x1e0>
    28ee:	48 89 cf             	mov    %rcx,%rdi
    28f1:	e8 9e 14 00 00       	callq  3d94 <_ZNSt4pairIKNSt7__cxx1112basic_stringIcSt11char_traitsIcESaIcEEEmEC1IRA9_KcmLb1EEEOT_OT0_>
    28f6:	48 c7 85 00 f8 ff ff 	movq   $0x8,-0x800(%rbp)
    28fd:	08 00 00 00 
    2901:	48 8d 85 00 f8 ff ff 	lea    -0x800(%rbp),%rax
    2908:	48 8d 95 70 f8 ff ff 	lea    -0x790(%rbp),%rdx
    290f:	48 8d 8a 28 05 00 00 	lea    0x528(%rdx),%rcx
    2916:	48 89 c2             	mov    %rax,%rdx
    2919:	48 8d 35 5b 79 00 00 	lea    0x795b(%rip),%rsi        # a27b <_ZStL6ignore+0x1e9>
    2920:	48 89 cf             	mov    %rcx,%rdi
    2923:	e8 f6 0d 00 00       	callq  371e <_ZNSt4pairIKNSt7__cxx1112basic_stringIcSt11char_traitsIcESaIcEEEmEC1IRA10_KcmLb1EEEOT_OT0_>
    2928:	48 c7 85 08 f8 ff ff 	movq   $0x1,-0x7f8(%rbp)
    292f:	01 00 00 00 
    2933:	48 8d 85 08 f8 ff ff 	lea    -0x7f8(%rbp),%rax
    293a:	48 8d 95 70 f8 ff ff 	lea    -0x790(%rbp),%rdx
    2941:	48 8d 8a 50 05 00 00 	lea    0x550(%rdx),%rcx
    2948:	48 89 c2             	mov    %rax,%rdx
    294b:	48 8d 35 33 79 00 00 	lea    0x7933(%rip),%rsi        # a285 <_ZStL6ignore+0x1f3>
    2952:	48 89 cf             	mov    %rcx,%rdi
    2955:	e8 7c 13 00 00       	callq  3cd6 <_ZNSt4pairIKNSt7__cxx1112basic_stringIcSt11char_traitsIcESaIcEEEmEC1IRA8_KcmLb1EEEOT_OT0_>
    295a:	48 c7 85 10 f8 ff ff 	movq   $0x2,-0x7f0(%rbp)
    2961:	02 00 00 00 
    2965:	48 8d 85 10 f8 ff ff 	lea    -0x7f0(%rbp),%rax
    296c:	48 8d 95 70 f8 ff ff 	lea    -0x790(%rbp),%rdx
    2973:	48 8d 8a 78 05 00 00 	lea    0x578(%rdx),%rcx
    297a:	48 89 c2             	mov    %rax,%rdx
    297d:	48 8d 35 09 79 00 00 	lea    0x7909(%rip),%rsi        # a28d <_ZStL6ignore+0x1fb>
    2984:	48 89 cf             	mov    %rcx,%rdi
    2987:	e8 08 14 00 00       	callq  3d94 <_ZNSt4pairIKNSt7__cxx1112basic_stringIcSt11char_traitsIcESaIcEEEmEC1IRA9_KcmLb1EEEOT_OT0_>
    298c:	48 c7 85 18 f8 ff ff 	movq   $0x4,-0x7e8(%rbp)
    2993:	04 00 00 00 
    2997:	48 8d 85 18 f8 ff ff 	lea    -0x7e8(%rbp),%rax
    299e:	48 8d 95 70 f8 ff ff 	lea    -0x790(%rbp),%rdx
    29a5:	48 8d 8a a0 05 00 00 	lea    0x5a0(%rdx),%rcx
    29ac:	48 89 c2             	mov    %rax,%rdx
    29af:	48 8d 35 e0 78 00 00 	lea    0x78e0(%rip),%rsi        # a296 <_ZStL6ignore+0x204>
    29b6:	48 89 cf             	mov    %rcx,%rdi
    29b9:	e8 d6 13 00 00       	callq  3d94 <_ZNSt4pairIKNSt7__cxx1112basic_stringIcSt11char_traitsIcESaIcEEEmEC1IRA9_KcmLb1EEEOT_OT0_>
    29be:	48 c7 85 20 f8 ff ff 	movq   $0x8,-0x7e0(%rbp)
    29c5:	08 00 00 00 
    29c9:	48 8d 85 20 f8 ff ff 	lea    -0x7e0(%rbp),%rax
    29d0:	48 8d 95 70 f8 ff ff 	lea    -0x790(%rbp),%rdx
    29d7:	48 8d 8a c8 05 00 00 	lea    0x5c8(%rdx),%rcx
    29de:	48 89 c2             	mov    %rax,%rdx
    29e1:	48 8d 35 b7 78 00 00 	lea    0x78b7(%rip),%rsi        # a29f <_ZStL6ignore+0x20d>
    29e8:	48 89 cf             	mov    %rcx,%rdi
    29eb:	e8 a4 13 00 00       	callq  3d94 <_ZNSt4pairIKNSt7__cxx1112basic_stringIcSt11char_traitsIcESaIcEEEmEC1IRA9_KcmLb1EEEOT_OT0_>
    29f0:	48 c7 85 28 f8 ff ff 	movq   $0x1,-0x7d8(%rbp)
    29f7:	01 00 00 00 
    29fb:	48 8d 85 28 f8 ff ff 	lea    -0x7d8(%rbp),%rax
    2a02:	48 8d 95 70 f8 ff ff 	lea    -0x790(%rbp),%rdx
    2a09:	48 8d 8a f0 05 00 00 	lea    0x5f0(%rdx),%rcx
    2a10:	48 89 c2             	mov    %rax,%rdx
    2a13:	48 8d 35 8e 78 00 00 	lea    0x788e(%rip),%rsi        # a2a8 <_ZStL6ignore+0x216>
    2a1a:	48 89 cf             	mov    %rcx,%rdi
    2a1d:	e8 38 11 00 00       	callq  3b5a <_ZNSt4pairIKNSt7__cxx1112basic_stringIcSt11char_traitsIcESaIcEEEmEC1IRA14_KcmLb1EEEOT_OT0_>
    2a22:	48 c7 85 30 f8 ff ff 	movq   $0x2,-0x7d0(%rbp)
    2a29:	02 00 00 00 
    2a2d:	48 8d 85 30 f8 ff ff 	lea    -0x7d0(%rbp),%rax
    2a34:	48 8d 95 70 f8 ff ff 	lea    -0x790(%rbp),%rdx
    2a3b:	48 8d 8a 18 06 00 00 	lea    0x618(%rdx),%rcx
    2a42:	48 89 c2             	mov    %rax,%rdx
    2a45:	48 8d 35 6a 78 00 00 	lea    0x786a(%rip),%rsi        # a2b6 <_ZStL6ignore+0x224>
    2a4c:	48 89 cf             	mov    %rcx,%rdi
    2a4f:	e8 2a 0e 00 00       	callq  387e <_ZNSt4pairIKNSt7__cxx1112basic_stringIcSt11char_traitsIcESaIcEEEmEC1IRA15_KcmLb1EEEOT_OT0_>
    2a54:	48 c7 85 38 f8 ff ff 	movq   $0x4,-0x7c8(%rbp)
    2a5b:	04 00 00 00 
    2a5f:	48 8d 85 38 f8 ff ff 	lea    -0x7c8(%rbp),%rax
    2a66:	48 8d 95 70 f8 ff ff 	lea    -0x790(%rbp),%rdx
    2a6d:	48 8d 8a 40 06 00 00 	lea    0x640(%rdx),%rcx
    2a74:	48 89 c2             	mov    %rax,%rdx
    2a77:	48 8d 35 47 78 00 00 	lea    0x7847(%rip),%rsi        # a2c5 <_ZStL6ignore+0x233>
    2a7e:	48 89 cf             	mov    %rcx,%rdi
    2a81:	e8 f8 0d 00 00       	callq  387e <_ZNSt4pairIKNSt7__cxx1112basic_stringIcSt11char_traitsIcESaIcEEEmEC1IRA15_KcmLb1EEEOT_OT0_>
    2a86:	48 c7 85 40 f8 ff ff 	movq   $0x8,-0x7c0(%rbp)
    2a8d:	08 00 00 00 
    2a91:	48 8d 85 40 f8 ff ff 	lea    -0x7c0(%rbp),%rax
    2a98:	48 8d 95 70 f8 ff ff 	lea    -0x790(%rbp),%rdx
    2a9f:	48 8d 8a 68 06 00 00 	lea    0x668(%rdx),%rcx
    2aa6:	48 89 c2             	mov    %rax,%rdx
    2aa9:	48 8d 35 24 78 00 00 	lea    0x7824(%rip),%rsi        # a2d4 <_ZStL6ignore+0x242>
    2ab0:	48 89 cf             	mov    %rcx,%rdi
    2ab3:	e8 c6 0d 00 00       	callq  387e <_ZNSt4pairIKNSt7__cxx1112basic_stringIcSt11char_traitsIcESaIcEEEmEC1IRA15_KcmLb1EEEOT_OT0_>
    2ab8:	48 c7 85 48 f8 ff ff 	movq   $0x1,-0x7b8(%rbp)
    2abf:	01 00 00 00 
    2ac3:	48 8d 85 48 f8 ff ff 	lea    -0x7b8(%rbp),%rax
    2aca:	48 8d 95 70 f8 ff ff 	lea    -0x790(%rbp),%rdx
    2ad1:	48 8d 8a 90 06 00 00 	lea    0x690(%rdx),%rcx
    2ad8:	48 89 c2             	mov    %rax,%rdx
    2adb:	48 8d 35 01 78 00 00 	lea    0x7801(%rip),%rsi        # a2e3 <_ZStL6ignore+0x251>
    2ae2:	48 89 cf             	mov    %rcx,%rdi
    2ae5:	e8 b2 0f 00 00       	callq  3a9c <_ZNSt4pairIKNSt7__cxx1112basic_stringIcSt11char_traitsIcESaIcEEEmEC1IRA13_KcmLb1EEEOT_OT0_>
    2aea:	48 c7 85 50 f8 ff ff 	movq   $0x8,-0x7b0(%rbp)
    2af1:	08 00 00 00 
    2af5:	48 8d 85 50 f8 ff ff 	lea    -0x7b0(%rbp),%rax
    2afc:	48 8d 95 70 f8 ff ff 	lea    -0x790(%rbp),%rdx
    2b03:	48 8d 8a b8 06 00 00 	lea    0x6b8(%rdx),%rcx
    2b0a:	48 89 c2             	mov    %rax,%rdx
    2b0d:	48 8d 35 dc 77 00 00 	lea    0x77dc(%rip),%rsi        # a2f0 <_ZStL6ignore+0x25e>
    2b14:	48 89 cf             	mov    %rcx,%rdi
    2b17:	e8 3e 10 00 00       	callq  3b5a <_ZNSt4pairIKNSt7__cxx1112basic_stringIcSt11char_traitsIcESaIcEEEmEC1IRA14_KcmLb1EEEOT_OT0_>
    2b1c:	48 c7 85 58 f8 ff ff 	movq   $0x8,-0x7a8(%rbp)
    2b23:	08 00 00 00 
    2b27:	48 8d 85 58 f8 ff ff 	lea    -0x7a8(%rbp),%rax
    2b2e:	48 8d 95 70 f8 ff ff 	lea    -0x790(%rbp),%rdx
    2b35:	48 8d 8a e0 06 00 00 	lea    0x6e0(%rdx),%rcx
    2b3c:	48 89 c2             	mov    %rax,%rdx
    2b3f:	48 8d 35 b8 77 00 00 	lea    0x77b8(%rip),%rsi        # a2fe <_ZStL6ignore+0x26c>
    2b46:	48 89 cf             	mov    %rcx,%rdi
    2b49:	e8 0c 10 00 00       	callq  3b5a <_ZNSt4pairIKNSt7__cxx1112basic_stringIcSt11char_traitsIcESaIcEEEmEC1IRA14_KcmLb1EEEOT_OT0_>
    2b4e:	48 c7 85 60 f8 ff ff 	movq   $0x8,-0x7a0(%rbp)
    2b55:	08 00 00 00 
    2b59:	48 8d 85 60 f8 ff ff 	lea    -0x7a0(%rbp),%rax
    2b60:	48 8d 95 70 f8 ff ff 	lea    -0x790(%rbp),%rdx
    2b67:	48 8d 8a 08 07 00 00 	lea    0x708(%rdx),%rcx
    2b6e:	48 89 c2             	mov    %rax,%rdx
    2b71:	48 8d 35 94 77 00 00 	lea    0x7794(%rip),%rsi        # a30c <_ZStL6ignore+0x27a>
    2b78:	48 89 cf             	mov    %rcx,%rdi
    2b7b:	e8 da 0f 00 00       	callq  3b5a <_ZNSt4pairIKNSt7__cxx1112basic_stringIcSt11char_traitsIcESaIcEEEmEC1IRA14_KcmLb1EEEOT_OT0_>
    2b80:	48 c7 85 68 f8 ff ff 	movq   $0x8,-0x798(%rbp)
    2b87:	08 00 00 00 
    2b8b:	48 8d 85 68 f8 ff ff 	lea    -0x798(%rbp),%rax
    2b92:	48 8d 95 70 f8 ff ff 	lea    -0x790(%rbp),%rdx
    2b99:	48 8d 8a 30 07 00 00 	lea    0x730(%rdx),%rcx
    2ba0:	48 89 c2             	mov    %rax,%rdx
    2ba3:	48 8d 35 70 77 00 00 	lea    0x7770(%rip),%rsi        # a31a <_ZStL6ignore+0x288>
    2baa:	48 89 cf             	mov    %rcx,%rdi
    2bad:	e8 6c 0b 00 00       	callq  371e <_ZNSt4pairIKNSt7__cxx1112basic_stringIcSt11char_traitsIcESaIcEEEmEC1IRA10_KcmLb1EEEOT_OT0_>
    2bb2:	48 8d 85 70 f8 ff ff 	lea    -0x790(%rbp),%rax
    2bb9:	49 89 c4             	mov    %rax,%r12
    2bbc:	41 bd 2f 00 00 00    	mov    $0x2f,%r13d
    2bc2:	48 8d 85 f7 f6 ff ff 	lea    -0x909(%rbp),%rax
    2bc9:	48 89 c7             	mov    %rax,%rdi
    2bcc:	e8 b7 19 00 00       	callq  4588 <_ZNSaISt4pairIKNSt7__cxx1112basic_stringIcSt11char_traitsIcESaIcEEEmEEC1Ev>
    2bd1:	48 8d bd f6 f6 ff ff 	lea    -0x90a(%rbp),%rdi
    2bd8:	48 8d b5 f5 f6 ff ff 	lea    -0x90b(%rbp),%rsi
    2bdf:	4c 89 e1             	mov    %r12,%rcx
    2be2:	4c 89 eb             	mov    %r13,%rbx
    2be5:	4c 89 e0             	mov    %r12,%rax
    2be8:	4c 89 ea             	mov    %r13,%rdx
    2beb:	49 89 ca             	mov    %rcx,%r10
    2bee:	48 83 ec 08          	sub    $0x8,%rsp
    2bf2:	48 8d 85 f7 f6 ff ff 	lea    -0x909(%rbp),%rax
    2bf9:	50                   	push   %rax
    2bfa:	49 89 f9             	mov    %rdi,%r9
    2bfd:	49 89 f0             	mov    %rsi,%r8
    2c00:	b9 00 00 00 00       	mov    $0x0,%ecx
    2c05:	4c 89 d6             	mov    %r10,%rsi
    2c08:	48 8d 3d d1 d5 20 00 	lea    0x20d5d1(%rip),%rdi        # 2101e0 <_Z5type3B5cxx11>
    2c0f:	e8 ac 19 00 00       	callq  45c0 <_ZNSt13unordered_mapINSt7__cxx1112basic_stringIcSt11char_traitsIcESaIcEEEmSt4hashIS5_ESt8equal_toIS5_ESaISt4pairIKS5_mEEEC1ESt16initializer_listISC_EmRKS7_RKS9_RKSD_>
    2c14:	48 83 c4 10          	add    $0x10,%rsp
    2c18:	48 8d 85 f7 f6 ff ff 	lea    -0x909(%rbp),%rax
    2c1f:	48 89 c7             	mov    %rax,%rdi
    2c22:	e8 7d 19 00 00       	callq  45a4 <_ZNSaISt4pairIKNSt7__cxx1112basic_stringIcSt11char_traitsIcESaIcEEEmEED1Ev>
    2c27:	48 8d 9d 70 f8 ff ff 	lea    -0x790(%rbp),%rbx
    2c2e:	48 81 c3 58 07 00 00 	add    $0x758,%rbx
    2c35:	48 8d 85 70 f8 ff ff 	lea    -0x790(%rbp),%rax
    2c3c:	48 39 c3             	cmp    %rax,%rbx
    2c3f:	74 0e                	je     2c4f <_Z41__static_initialization_and_destruction_0ii+0x1090>
    2c41:	48 83 eb 28          	sub    $0x28,%rbx
    2c45:	48 89 df             	mov    %rbx,%rdi
    2c48:	e8 55 09 00 00       	callq  35a2 <_ZNSt4pairIKNSt7__cxx1112basic_stringIcSt11char_traitsIcESaIcEEEmED1Ev>
    2c4d:	eb e6                	jmp    2c35 <_Z41__static_initialization_and_destruction_0ii+0x1076>
    2c4f:	48 8d 15 b2 d3 20 00 	lea    0x20d3b2(%rip),%rdx        # 210008 <__dso_handle>
    2c56:	48 8d 35 83 d5 20 00 	lea    0x20d583(%rip),%rsi        # 2101e0 <_Z5type3B5cxx11>
    2c5d:	48 8d 3d e0 11 00 00 	lea    0x11e0(%rip),%rdi        # 3e44 <_ZNSt13unordered_mapINSt7__cxx1112basic_stringIcSt11char_traitsIcESaIcEEEmSt4hashIS5_ESt8equal_toIS5_ESaISt4pairIKS5_mEEED1Ev>
    2c64:	e8 87 e8 ff ff       	callq  14f0 <__cxa_atexit@plt>
    2c69:	e9 d8 00 00 00       	jmpq   2d46 <_Z41__static_initialization_and_destruction_0ii+0x1187>
    2c6e:	48 89 c3             	mov    %rax,%rbx
    2c71:	48 8d 85 08 f8 ff ff 	lea    -0x7f8(%rbp),%rax
    2c78:	48 89 c7             	mov    %rax,%rdi
    2c7b:	e8 20 17 00 00       	callq  43a0 <_ZNSaISt4pairIKPKcNSt7__cxx1112basic_stringIcSt11char_traitsIcESaIcEEEEED1Ev>
    2c80:	49 89 dc             	mov    %rbx,%r12
    2c83:	48 8d 9d 70 f8 ff ff 	lea    -0x790(%rbp),%rbx
    2c8a:	48 81 c3 e0 01 00 00 	add    $0x1e0,%rbx
    2c91:	48 8d 85 70 f8 ff ff 	lea    -0x790(%rbp),%rax
    2c98:	48 39 c3             	cmp    %rax,%rbx
    2c9b:	74 0e                	je     2cab <_Z41__static_initialization_and_destruction_0ii+0x10ec>
    2c9d:	48 83 eb 28          	sub    $0x28,%rbx
    2ca1:	48 89 df             	mov    %rbx,%rdi
    2ca4:	e8 41 03 00 00       	callq  2fea <_ZNSt4pairIKPKcNSt7__cxx1112basic_stringIcSt11char_traitsIcESaIcEEEED1Ev>
    2ca9:	eb e6                	jmp    2c91 <_Z41__static_initialization_and_destruction_0ii+0x10d2>
    2cab:	4c 89 e0             	mov    %r12,%rax
    2cae:	48 89 c7             	mov    %rax,%rdi
    2cb1:	e8 4a e9 ff ff       	callq  1600 <_Unwind_Resume@plt>
    2cb6:	48 89 c3             	mov    %rax,%rbx
    2cb9:	48 8d 85 08 f8 ff ff 	lea    -0x7f8(%rbp),%rax
    2cc0:	48 89 c7             	mov    %rax,%rdi
    2cc3:	e8 da 17 00 00       	callq  44a2 <_ZNSaISt4pairIKiNSt7__cxx1112basic_stringIcSt11char_traitsIcESaIcEEEEED1Ev>
    2cc8:	49 89 dc             	mov    %rbx,%r12
    2ccb:	48 8d 9d 70 f8 ff ff 	lea    -0x790(%rbp),%rbx
    2cd2:	48 81 c3 e0 01 00 00 	add    $0x1e0,%rbx
    2cd9:	48 8d 85 70 f8 ff ff 	lea    -0x790(%rbp),%rax
    2ce0:	48 39 c3             	cmp    %rax,%rbx
    2ce3:	74 0e                	je     2cf3 <_Z41__static_initialization_and_destruction_0ii+0x1134>
    2ce5:	48 83 eb 28          	sub    $0x28,%rbx
    2ce9:	48 89 df             	mov    %rbx,%rdi
    2cec:	e8 35 03 00 00       	callq  3026 <_ZNSt4pairIKiNSt7__cxx1112basic_stringIcSt11char_traitsIcESaIcEEEED1Ev>
    2cf1:	eb e6                	jmp    2cd9 <_Z41__static_initialization_and_destruction_0ii+0x111a>
    2cf3:	4c 89 e0             	mov    %r12,%rax
    2cf6:	48 89 c7             	mov    %rax,%rdi
    2cf9:	e8 02 e9 ff ff       	callq  1600 <_Unwind_Resume@plt>
    2cfe:	48 89 c3             	mov    %rax,%rbx
    2d01:	48 8d 85 f7 f6 ff ff 	lea    -0x909(%rbp),%rax
    2d08:	48 89 c7             	mov    %rax,%rdi
    2d0b:	e8 94 18 00 00       	callq  45a4 <_ZNSaISt4pairIKNSt7__cxx1112basic_stringIcSt11char_traitsIcESaIcEEEmEED1Ev>
    2d10:	49 89 dc             	mov    %rbx,%r12
    2d13:	48 8d 9d 70 f8 ff ff 	lea    -0x790(%rbp),%rbx
    2d1a:	48 81 c3 58 07 00 00 	add    $0x758,%rbx
    2d21:	48 8d 85 70 f8 ff ff 	lea    -0x790(%rbp),%rax
    2d28:	48 39 c3             	cmp    %rax,%rbx
    2d2b:	74 0e                	je     2d3b <_Z41__static_initialization_and_destruction_0ii+0x117c>
    2d2d:	48 83 eb 28          	sub    $0x28,%rbx
    2d31:	48 89 df             	mov    %rbx,%rdi
    2d34:	e8 69 08 00 00       	callq  35a2 <_ZNSt4pairIKNSt7__cxx1112basic_stringIcSt11char_traitsIcESaIcEEEmED1Ev>
    2d39:	eb e6                	jmp    2d21 <_Z41__static_initialization_and_destruction_0ii+0x1162>
    2d3b:	4c 89 e0             	mov    %r12,%rax
    2d3e:	48 89 c7             	mov    %rax,%rdi
    2d41:	e8 ba e8 ff ff       	callq  1600 <_Unwind_Resume@plt>
    2d46:	48 8b 45 c8          	mov    -0x38(%rbp),%rax
    2d4a:	64 48 33 04 25 28 00 	xor    %fs:0x28,%rax
    2d51:	00 00 
    2d53:	74 05                	je     2d5a <_Z41__static_initialization_and_destruction_0ii+0x119b>
    2d55:	e8 06 e8 ff ff       	callq  1560 <__stack_chk_fail@plt>
    2d5a:	48 8d 65 d8          	lea    -0x28(%rbp),%rsp
    2d5e:	5b                   	pop    %rbx
    2d5f:	41 5c                	pop    %r12
    2d61:	41 5d                	pop    %r13
    2d63:	41 5e                	pop    %r14
    2d65:	41 5f                	pop    %r15
    2d67:	5d                   	pop    %rbp
    2d68:	c3                   	retq   

0000000000002d69 <_GLOBAL__sub_I_gi>:
    2d69:	55                   	push   %rbp
    2d6a:	48 89 e5             	mov    %rsp,%rbp
    2d6d:	be ff ff 00 00       	mov    $0xffff,%esi
    2d72:	bf 01 00 00 00       	mov    $0x1,%edi
    2d77:	e8 43 ee ff ff       	callq  1bbf <_Z41__static_initialization_and_destruction_0ii>
    2d7c:	5d                   	pop    %rbp
    2d7d:	c3                   	retq   

0000000000002d7e <_ZNKSt9type_info4nameEv>:
    2d7e:	55                   	push   %rbp
    2d7f:	48 89 e5             	mov    %rsp,%rbp
    2d82:	48 89 7d f8          	mov    %rdi,-0x8(%rbp)
    2d86:	48 8b 45 f8          	mov    -0x8(%rbp),%rax
    2d8a:	48 8b 40 08          	mov    0x8(%rax),%rax
    2d8e:	0f b6 00             	movzbl (%rax),%eax
    2d91:	3c 2a                	cmp    $0x2a,%al
    2d93:	75 0e                	jne    2da3 <_ZNKSt9type_info4nameEv+0x25>
    2d95:	48 8b 45 f8          	mov    -0x8(%rbp),%rax
    2d99:	48 8b 40 08          	mov    0x8(%rax),%rax
    2d9d:	48 83 c0 01          	add    $0x1,%rax
    2da1:	eb 08                	jmp    2dab <_ZNKSt9type_info4nameEv+0x2d>
    2da3:	48 8b 45 f8          	mov    -0x8(%rbp),%rax
    2da7:	48 8b 40 08          	mov    0x8(%rax),%rax
    2dab:	5d                   	pop    %rbp
    2dac:	c3                   	retq   

0000000000002dad <_ZnwmPv>:
    2dad:	55                   	push   %rbp
    2dae:	48 89 e5             	mov    %rsp,%rbp
    2db1:	48 89 7d f8          	mov    %rdi,-0x8(%rbp)
    2db5:	48 89 75 f0          	mov    %rsi,-0x10(%rbp)
    2db9:	48 8b 45 f0          	mov    -0x10(%rbp),%rax
    2dbd:	5d                   	pop    %rbp
    2dbe:	c3                   	retq   

0000000000002dbf <_ZdlPvS_>:
    2dbf:	55                   	push   %rbp
    2dc0:	48 89 e5             	mov    %rsp,%rbp
    2dc3:	48 89 7d f8          	mov    %rdi,-0x8(%rbp)
    2dc7:	48 89 75 f0          	mov    %rsi,-0x10(%rbp)
    2dcb:	90                   	nop
    2dcc:	5d                   	pop    %rbp
    2dcd:	c3                   	retq   

0000000000002dce <_ZNSt11char_traitsIcE7compareEPKcS2_m>:
    2dce:	55                   	push   %rbp
    2dcf:	48 89 e5             	mov    %rsp,%rbp
    2dd2:	48 83 ec 20          	sub    $0x20,%rsp
    2dd6:	48 89 7d f8          	mov    %rdi,-0x8(%rbp)
    2dda:	48 89 75 f0          	mov    %rsi,-0x10(%rbp)
    2dde:	48 89 55 e8          	mov    %rdx,-0x18(%rbp)
    2de2:	48 83 7d e8 00       	cmpq   $0x0,-0x18(%rbp)
    2de7:	75 07                	jne    2df0 <_ZNSt11char_traitsIcE7compareEPKcS2_m+0x22>
    2de9:	b8 00 00 00 00       	mov    $0x0,%eax
    2dee:	eb 17                	jmp    2e07 <_ZNSt11char_traitsIcE7compareEPKcS2_m+0x39>
    2df0:	48 8b 55 e8          	mov    -0x18(%rbp),%rdx
    2df4:	48 8b 4d f0          	mov    -0x10(%rbp),%rcx
    2df8:	48 8b 45 f8          	mov    -0x8(%rbp),%rax
    2dfc:	48 89 ce             	mov    %rcx,%rsi
    2dff:	48 89 c7             	mov    %rax,%rdi
    2e02:	e8 89 e6 ff ff       	callq  1490 <memcmp@plt>
    2e07:	c9                   	leaveq 
    2e08:	c3                   	retq   
    2e09:	90                   	nop

0000000000002e0a <_ZNKSt4hashIiEclEi>:
    2e0a:	55                   	push   %rbp
    2e0b:	48 89 e5             	mov    %rsp,%rbp
    2e0e:	48 89 7d f8          	mov    %rdi,-0x8(%rbp)
    2e12:	89 75 f4             	mov    %esi,-0xc(%rbp)
    2e15:	8b 45 f4             	mov    -0xc(%rbp),%eax
    2e18:	48 98                	cltq   
    2e1a:	5d                   	pop    %rbp
    2e1b:	c3                   	retq   

0000000000002e1c <_ZNSt10_Hash_impl4hashEPKvmm>:
    2e1c:	55                   	push   %rbp
    2e1d:	48 89 e5             	mov    %rsp,%rbp
    2e20:	48 83 ec 20          	sub    $0x20,%rsp
    2e24:	48 89 7d f8          	mov    %rdi,-0x8(%rbp)
    2e28:	48 89 75 f0          	mov    %rsi,-0x10(%rbp)
    2e2c:	48 89 55 e8          	mov    %rdx,-0x18(%rbp)
    2e30:	48 8b 55 e8          	mov    -0x18(%rbp),%rdx
    2e34:	48 8b 4d f0          	mov    -0x10(%rbp),%rcx
    2e38:	48 8b 45 f8          	mov    -0x8(%rbp),%rax
    2e3c:	48 89 ce             	mov    %rcx,%rsi
    2e3f:	48 89 c7             	mov    %rax,%rdi
    2e42:	e8 f9 e5 ff ff       	callq  1440 <_ZSt11_Hash_bytesPKvmm@plt>
    2e47:	c9                   	leaveq 
    2e48:	c3                   	retq   
    2e49:	90                   	nop

0000000000002e4a <_ZNKSt4hashINSt7__cxx1112basic_stringIcSt11char_traitsIcESaIcEEEEclERKS5_>:
    2e4a:	55                   	push   %rbp
    2e4b:	48 89 e5             	mov    %rsp,%rbp
    2e4e:	53                   	push   %rbx
    2e4f:	48 83 ec 18          	sub    $0x18,%rsp
    2e53:	48 89 7d e8          	mov    %rdi,-0x18(%rbp)
    2e57:	48 89 75 e0          	mov    %rsi,-0x20(%rbp)
    2e5b:	48 8b 45 e0          	mov    -0x20(%rbp),%rax
    2e5f:	48 89 c7             	mov    %rax,%rdi
    2e62:	e8 59 e7 ff ff       	callq  15c0 <_ZNKSt7__cxx1112basic_stringIcSt11char_traitsIcESaIcEE6lengthEv@plt>
    2e67:	48 89 c3             	mov    %rax,%rbx
    2e6a:	48 8b 45 e0          	mov    -0x20(%rbp),%rax
    2e6e:	48 89 c7             	mov    %rax,%rdi
    2e71:	e8 0a e7 ff ff       	callq  1580 <_ZNKSt7__cxx1112basic_stringIcSt11char_traitsIcESaIcEE4dataEv@plt>
    2e76:	ba 07 69 0f c7       	mov    $0xc70f6907,%edx
    2e7b:	48 89 de             	mov    %rbx,%rsi
    2e7e:	48 89 c7             	mov    %rax,%rdi
    2e81:	e8 96 ff ff ff       	callq  2e1c <_ZNSt10_Hash_impl4hashEPKvmm>
    2e86:	48 83 c4 18          	add    $0x18,%rsp
    2e8a:	5b                   	pop    %rbx
    2e8b:	5d                   	pop    %rbp
    2e8c:	c3                   	retq   
    2e8d:	90                   	nop

0000000000002e8e <_ZNSt8__detail15_Hash_node_baseC1Ev>:
    2e8e:	55                   	push   %rbp
    2e8f:	48 89 e5             	mov    %rsp,%rbp
    2e92:	48 89 7d f8          	mov    %rdi,-0x8(%rbp)
    2e96:	48 8b 45 f8          	mov    -0x8(%rbp),%rax
    2e9a:	48 c7 00 00 00 00 00 	movq   $0x0,(%rax)
    2ea1:	90                   	nop
    2ea2:	5d                   	pop    %rbp
    2ea3:	c3                   	retq   

0000000000002ea4 <_ZNKSt8__detail18_Mod_range_hashingclEmm>:
    2ea4:	55                   	push   %rbp
    2ea5:	48 89 e5             	mov    %rsp,%rbp
    2ea8:	48 89 7d f8          	mov    %rdi,-0x8(%rbp)
    2eac:	48 89 75 f0          	mov    %rsi,-0x10(%rbp)
    2eb0:	48 89 55 e8          	mov    %rdx,-0x18(%rbp)
    2eb4:	48 8b 45 f0          	mov    -0x10(%rbp),%rax
    2eb8:	ba 00 00 00 00       	mov    $0x0,%edx
    2ebd:	48 f7 75 e8          	divq   -0x18(%rbp)
    2ec1:	48 89 d0             	mov    %rdx,%rax
    2ec4:	5d                   	pop    %rbp
    2ec5:	c3                   	retq   

0000000000002ec6 <_ZNSt8__detail20_Prime_rehash_policyC1Ef>:
    2ec6:	55                   	push   %rbp
    2ec7:	48 89 e5             	mov    %rsp,%rbp
    2eca:	48 89 7d f8          	mov    %rdi,-0x8(%rbp)
    2ece:	f3 0f 11 45 f4       	movss  %xmm0,-0xc(%rbp)
    2ed3:	48 8b 45 f8          	mov    -0x8(%rbp),%rax
    2ed7:	f3 0f 10 45 f4       	movss  -0xc(%rbp),%xmm0
    2edc:	f3 0f 11 00          	movss  %xmm0,(%rax)
    2ee0:	48 8b 45 f8          	mov    -0x8(%rbp),%rax
    2ee4:	48 c7 40 08 00 00 00 	movq   $0x0,0x8(%rax)
    2eeb:	00 
    2eec:	90                   	nop
    2eed:	5d                   	pop    %rbp
    2eee:	c3                   	retq   
    2eef:	90                   	nop

0000000000002ef0 <_ZNKSt8__detail20_Prime_rehash_policy19_M_bkt_for_elementsEm>:
    2ef0:	55                   	push   %rbp
    2ef1:	48 89 e5             	mov    %rsp,%rbp
    2ef4:	48 89 7d f8          	mov    %rdi,-0x8(%rbp)
    2ef8:	48 89 75 f0          	mov    %rsi,-0x10(%rbp)
    2efc:	df 6d f0             	fildll -0x10(%rbp)
    2eff:	48 83 7d f0 00       	cmpq   $0x0,-0x10(%rbp)
    2f04:	79 08                	jns    2f0e <_ZNKSt8__detail20_Prime_rehash_policy19_M_bkt_for_elementsEm+0x1e>
    2f06:	db 2d 24 74 00 00    	fldt   0x7424(%rip)        # a330 <_ZStL6ignore+0x29e>
    2f0c:	de c1                	faddp  %st,%st(1)
    2f0e:	48 8b 45 f8          	mov    -0x8(%rbp),%rax
    2f12:	d9 00                	flds   (%rax)
    2f14:	de f9                	fdivrp %st,%st(1)
    2f16:	dd 5d e8             	fstpl  -0x18(%rbp)
    2f19:	f2 0f 10 65 e8       	movsd  -0x18(%rbp),%xmm4
    2f1e:	f2 0f 10 1d 1a 74 00 	movsd  0x741a(%rip),%xmm3        # a340 <_ZStL6ignore+0x2ae>
    2f25:	00 
    2f26:	66 0f 28 c4          	movapd %xmm4,%xmm0
    2f2a:	f3 0f 7e 0d 1e 74 00 	movq   0x741e(%rip),%xmm1        # a350 <_ZStL6ignore+0x2be>
    2f31:	00 
    2f32:	66 0f 28 d1          	movapd %xmm1,%xmm2
    2f36:	66 0f 28 c8          	movapd %xmm0,%xmm1
    2f3a:	66 0f 54 ca          	andpd  %xmm2,%xmm1
    2f3e:	66 0f 2e d9          	ucomisd %xmm1,%xmm3
    2f42:	76 2b                	jbe    2f6f <_ZNKSt8__detail20_Prime_rehash_policy19_M_bkt_for_elementsEm+0x7f>
    2f44:	f2 48 0f 2c c0       	cvttsd2si %xmm0,%rax
    2f49:	f2 48 0f 2a c8       	cvtsi2sd %rax,%xmm1
    2f4e:	f2 0f 10 1d 0a 74 00 	movsd  0x740a(%rip),%xmm3        # a360 <_ZStL6ignore+0x2ce>
    2f55:	00 
    2f56:	f2 0f c2 c1 06       	cmpnlesd %xmm1,%xmm0
    2f5b:	66 0f 54 c3          	andpd  %xmm3,%xmm0
    2f5f:	f2 0f 58 c1          	addsd  %xmm1,%xmm0
    2f63:	66 0f 55 d4          	andnpd %xmm4,%xmm2
    2f67:	66 0f 28 ca          	movapd %xmm2,%xmm1
    2f6b:	66 0f 56 c1          	orpd   %xmm1,%xmm0
    2f6f:	66 0f 2e 05 f1 73 00 	ucomisd 0x73f1(%rip),%xmm0        # a368 <_ZStL6ignore+0x2d6>
    2f76:	00 
    2f77:	73 07                	jae    2f80 <_ZNKSt8__detail20_Prime_rehash_policy19_M_bkt_for_elementsEm+0x90>
    2f79:	f2 48 0f 2c c0       	cvttsd2si %xmm0,%rax
    2f7e:	eb 1e                	jmp    2f9e <_ZNKSt8__detail20_Prime_rehash_policy19_M_bkt_for_elementsEm+0xae>
    2f80:	f2 0f 10 0d e0 73 00 	movsd  0x73e0(%rip),%xmm1        # a368 <_ZStL6ignore+0x2d6>
    2f87:	00 
    2f88:	f2 0f 5c c1          	subsd  %xmm1,%xmm0
    2f8c:	f2 48 0f 2c c0       	cvttsd2si %xmm0,%rax
    2f91:	48 ba 00 00 00 00 00 	movabs $0x8000000000000000,%rdx
    2f98:	00 00 80 
    2f9b:	48 31 d0             	xor    %rdx,%rax
    2f9e:	5d                   	pop    %rbp
    2f9f:	c3                   	retq   

0000000000002fa0 <_ZNKSt8__detail20_Prime_rehash_policy8_M_stateEv>:
    2fa0:	55                   	push   %rbp
    2fa1:	48 89 e5             	mov    %rsp,%rbp
    2fa4:	48 89 7d f8          	mov    %rdi,-0x8(%rbp)
    2fa8:	48 8b 45 f8          	mov    -0x8(%rbp),%rax
    2fac:	48 8b 40 08          	mov    0x8(%rax),%rax
    2fb0:	5d                   	pop    %rbp
    2fb1:	c3                   	retq   

0000000000002fb2 <_ZNSt8__detail20_Prime_rehash_policy8_M_resetEm>:
    2fb2:	55                   	push   %rbp
    2fb3:	48 89 e5             	mov    %rsp,%rbp
    2fb6:	48 89 7d f8          	mov    %rdi,-0x8(%rbp)
    2fba:	48 89 75 f0          	mov    %rsi,-0x10(%rbp)
    2fbe:	48 8b 45 f8          	mov    -0x8(%rbp),%rax
    2fc2:	48 8b 55 f0          	mov    -0x10(%rbp),%rdx
    2fc6:	48 89 50 08          	mov    %rdx,0x8(%rax)
    2fca:	90                   	nop
    2fcb:	5d                   	pop    %rbp
    2fcc:	c3                   	retq   

0000000000002fcd <_ZSt7forwardIbEOT_RNSt16remove_referenceIS0_E4typeE>:
    2fcd:	55                   	push   %rbp
    2fce:	48 89 e5             	mov    %rsp,%rbp
    2fd1:	48 89 7d f8          	mov    %rdi,-0x8(%rbp)
    2fd5:	48 8b 45 f8          	mov    -0x8(%rbp),%rax
    2fd9:	5d                   	pop    %rbp
    2fda:	c3                   	retq   

0000000000002fdb <_ZSt7forwardIiEOT_RNSt16remove_referenceIS0_E4typeE>:
    2fdb:	55                   	push   %rbp
    2fdc:	48 89 e5             	mov    %rsp,%rbp
    2fdf:	48 89 7d f8          	mov    %rdi,-0x8(%rbp)
    2fe3:	48 8b 45 f8          	mov    -0x8(%rbp),%rax
    2fe7:	5d                   	pop    %rbp
    2fe8:	c3                   	retq   
    2fe9:	90                   	nop

0000000000002fea <_ZNSt4pairIKPKcNSt7__cxx1112basic_stringIcSt11char_traitsIcESaIcEEEED1Ev>:
    2fea:	55                   	push   %rbp
    2feb:	48 89 e5             	mov    %rsp,%rbp
    2fee:	48 83 ec 10          	sub    $0x10,%rsp
    2ff2:	48 89 7d f8          	mov    %rdi,-0x8(%rbp)
    2ff6:	48 8b 45 f8          	mov    -0x8(%rbp),%rax
    2ffa:	48 83 c0 08          	add    $0x8,%rax
    2ffe:	48 89 c7             	mov    %rax,%rdi
    3001:	e8 aa e4 ff ff       	callq  14b0 <_ZNSt7__cxx1112basic_stringIcSt11char_traitsIcESaIcEED1Ev@plt>
    3006:	90                   	nop
    3007:	c9                   	leaveq 
    3008:	c3                   	retq   
    3009:	90                   	nop

000000000000300a <_ZNSt13unordered_mapIPKcNSt7__cxx1112basic_stringIcSt11char_traitsIcESaIcEEESt4hashIS1_ESt8equal_toIS1_ESaISt4pairIKS1_S7_EEED1Ev>:
    300a:	55                   	push   %rbp
    300b:	48 89 e5             	mov    %rsp,%rbp
    300e:	48 83 ec 10          	sub    $0x10,%rsp
    3012:	48 89 7d f8          	mov    %rdi,-0x8(%rbp)
    3016:	48 8b 45 f8          	mov    -0x8(%rbp),%rax
    301a:	48 89 c7             	mov    %rax,%rdi
    301d:	e8 30 14 00 00       	callq  4452 <_ZNSt10_HashtableIPKcSt4pairIKS1_NSt7__cxx1112basic_stringIcSt11char_traitsIcESaIcEEEESaISA_ENSt8__detail10_Select1stESt8equal_toIS1_ESt4hashIS1_ENSC_18_Mod_range_hashingENSC_20_Default_ranged_hashENSC_20_Prime_rehash_policyENSC_17_Hashtable_traitsILb0ELb0ELb1EEEED1Ev>
    3022:	90                   	nop
    3023:	c9                   	leaveq 
    3024:	c3                   	retq   
    3025:	90                   	nop

0000000000003026 <_ZNSt4pairIKiNSt7__cxx1112basic_stringIcSt11char_traitsIcESaIcEEEED1Ev>:
    3026:	55                   	push   %rbp
    3027:	48 89 e5             	mov    %rsp,%rbp
    302a:	48 83 ec 10          	sub    $0x10,%rsp
    302e:	48 89 7d f8          	mov    %rdi,-0x8(%rbp)
    3032:	48 8b 45 f8          	mov    -0x8(%rbp),%rax
    3036:	48 83 c0 08          	add    $0x8,%rax
    303a:	48 89 c7             	mov    %rax,%rdi
    303d:	e8 6e e4 ff ff       	callq  14b0 <_ZNSt7__cxx1112basic_stringIcSt11char_traitsIcESaIcEED1Ev@plt>
    3042:	90                   	nop
    3043:	c9                   	leaveq 
    3044:	c3                   	retq   

0000000000003045 <_ZSt7forwardIRA11_KcEOT_RNSt16remove_referenceIS3_E4typeE>:
    3045:	55                   	push   %rbp
    3046:	48 89 e5             	mov    %rsp,%rbp
    3049:	48 89 7d f8          	mov    %rdi,-0x8(%rbp)
    304d:	48 8b 45 f8          	mov    -0x8(%rbp),%rax
    3051:	5d                   	pop    %rbp
    3052:	c3                   	retq   
    3053:	90                   	nop

0000000000003054 <_ZNSt4pairIKiNSt7__cxx1112basic_stringIcSt11char_traitsIcESaIcEEEEC1IiRA11_KcLb1EEEOT_OT0_>:
    3054:	55                   	push   %rbp
    3055:	48 89 e5             	mov    %rsp,%rbp
    3058:	53                   	push   %rbx
    3059:	48 83 ec 38          	sub    $0x38,%rsp
    305d:	48 89 7d d8          	mov    %rdi,-0x28(%rbp)
    3061:	48 89 75 d0          	mov    %rsi,-0x30(%rbp)
    3065:	48 89 55 c8          	mov    %rdx,-0x38(%rbp)
    3069:	64 48 8b 04 25 28 00 	mov    %fs:0x28,%rax
    3070:	00 00 
    3072:	48 89 45 e8          	mov    %rax,-0x18(%rbp)
    3076:	31 c0                	xor    %eax,%eax
    3078:	48 8b 45 d0          	mov    -0x30(%rbp),%rax
    307c:	48 89 c7             	mov    %rax,%rdi
    307f:	e8 57 ff ff ff       	callq  2fdb <_ZSt7forwardIiEOT_RNSt16remove_referenceIS0_E4typeE>
    3084:	8b 10                	mov    (%rax),%edx
    3086:	48 8b 45 d8          	mov    -0x28(%rbp),%rax
    308a:	89 10                	mov    %edx,(%rax)
    308c:	48 8b 45 d8          	mov    -0x28(%rbp),%rax
    3090:	48 8d 58 08          	lea    0x8(%rax),%rbx
    3094:	48 8d 45 e7          	lea    -0x19(%rbp),%rax
    3098:	48 89 c7             	mov    %rax,%rdi
    309b:	e8 70 e5 ff ff       	callq  1610 <_ZNSaIcEC1Ev@plt>
    30a0:	48 8b 45 c8          	mov    -0x38(%rbp),%rax
    30a4:	48 89 c7             	mov    %rax,%rdi
    30a7:	e8 99 ff ff ff       	callq  3045 <_ZSt7forwardIRA11_KcEOT_RNSt16remove_referenceIS3_E4typeE>
    30ac:	48 89 c1             	mov    %rax,%rcx
    30af:	48 8d 45 e7          	lea    -0x19(%rbp),%rax
    30b3:	48 89 c2             	mov    %rax,%rdx
    30b6:	48 89 ce             	mov    %rcx,%rsi
    30b9:	48 89 df             	mov    %rbx,%rdi
    30bc:	e8 df e4 ff ff       	callq  15a0 <_ZNSt7__cxx1112basic_stringIcSt11char_traitsIcESaIcEEC1EPKcRKS3_@plt>
    30c1:	48 8d 45 e7          	lea    -0x19(%rbp),%rax
    30c5:	48 89 c7             	mov    %rax,%rdi
    30c8:	e8 83 e4 ff ff       	callq  1550 <_ZNSaIcED1Ev@plt>
    30cd:	90                   	nop
    30ce:	48 8b 45 e8          	mov    -0x18(%rbp),%rax
    30d2:	64 48 33 04 25 28 00 	xor    %fs:0x28,%rax
    30d9:	00 00 
    30db:	74 21                	je     30fe <_ZNSt4pairIKiNSt7__cxx1112basic_stringIcSt11char_traitsIcESaIcEEEEC1IiRA11_KcLb1EEEOT_OT0_+0xaa>
    30dd:	eb 1a                	jmp    30f9 <_ZNSt4pairIKiNSt7__cxx1112basic_stringIcSt11char_traitsIcESaIcEEEEC1IiRA11_KcLb1EEEOT_OT0_+0xa5>
    30df:	48 89 c3             	mov    %rax,%rbx
    30e2:	48 8d 45 e7          	lea    -0x19(%rbp),%rax
    30e6:	48 89 c7             	mov    %rax,%rdi
    30e9:	e8 62 e4 ff ff       	callq  1550 <_ZNSaIcED1Ev@plt>
    30ee:	48 89 d8             	mov    %rbx,%rax
    30f1:	48 89 c7             	mov    %rax,%rdi
    30f4:	e8 07 e5 ff ff       	callq  1600 <_Unwind_Resume@plt>
    30f9:	e8 62 e4 ff ff       	callq  1560 <__stack_chk_fail@plt>
    30fe:	48 83 c4 38          	add    $0x38,%rsp
    3102:	5b                   	pop    %rbx
    3103:	5d                   	pop    %rbp
    3104:	c3                   	retq   

0000000000003105 <_ZSt7forwardIRA5_KcEOT_RNSt16remove_referenceIS3_E4typeE>:
    3105:	55                   	push   %rbp
    3106:	48 89 e5             	mov    %rsp,%rbp
    3109:	48 89 7d f8          	mov    %rdi,-0x8(%rbp)
    310d:	48 8b 45 f8          	mov    -0x8(%rbp),%rax
    3111:	5d                   	pop    %rbp
    3112:	c3                   	retq   
    3113:	90                   	nop

0000000000003114 <_ZNSt4pairIKiNSt7__cxx1112basic_stringIcSt11char_traitsIcESaIcEEEEC1IiRA5_KcLb1EEEOT_OT0_>:
    3114:	55                   	push   %rbp
    3115:	48 89 e5             	mov    %rsp,%rbp
    3118:	53                   	push   %rbx
    3119:	48 83 ec 38          	sub    $0x38,%rsp
    311d:	48 89 7d d8          	mov    %rdi,-0x28(%rbp)
    3121:	48 89 75 d0          	mov    %rsi,-0x30(%rbp)
    3125:	48 89 55 c8          	mov    %rdx,-0x38(%rbp)
    3129:	64 48 8b 04 25 28 00 	mov    %fs:0x28,%rax
    3130:	00 00 
    3132:	48 89 45 e8          	mov    %rax,-0x18(%rbp)
    3136:	31 c0                	xor    %eax,%eax
    3138:	48 8b 45 d0          	mov    -0x30(%rbp),%rax
    313c:	48 89 c7             	mov    %rax,%rdi
    313f:	e8 97 fe ff ff       	callq  2fdb <_ZSt7forwardIiEOT_RNSt16remove_referenceIS0_E4typeE>
    3144:	8b 10                	mov    (%rax),%edx
    3146:	48 8b 45 d8          	mov    -0x28(%rbp),%rax
    314a:	89 10                	mov    %edx,(%rax)
    314c:	48 8b 45 d8          	mov    -0x28(%rbp),%rax
    3150:	48 8d 58 08          	lea    0x8(%rax),%rbx
    3154:	48 8d 45 e7          	lea    -0x19(%rbp),%rax
    3158:	48 89 c7             	mov    %rax,%rdi
    315b:	e8 b0 e4 ff ff       	callq  1610 <_ZNSaIcEC1Ev@plt>
    3160:	48 8b 45 c8          	mov    -0x38(%rbp),%rax
    3164:	48 89 c7             	mov    %rax,%rdi
    3167:	e8 99 ff ff ff       	callq  3105 <_ZSt7forwardIRA5_KcEOT_RNSt16remove_referenceIS3_E4typeE>
    316c:	48 89 c1             	mov    %rax,%rcx
    316f:	48 8d 45 e7          	lea    -0x19(%rbp),%rax
    3173:	48 89 c2             	mov    %rax,%rdx
    3176:	48 89 ce             	mov    %rcx,%rsi
    3179:	48 89 df             	mov    %rbx,%rdi
    317c:	e8 1f e4 ff ff       	callq  15a0 <_ZNSt7__cxx1112basic_stringIcSt11char_traitsIcESaIcEEC1EPKcRKS3_@plt>
    3181:	48 8d 45 e7          	lea    -0x19(%rbp),%rax
    3185:	48 89 c7             	mov    %rax,%rdi
    3188:	e8 c3 e3 ff ff       	callq  1550 <_ZNSaIcED1Ev@plt>
    318d:	90                   	nop
    318e:	48 8b 45 e8          	mov    -0x18(%rbp),%rax
    3192:	64 48 33 04 25 28 00 	xor    %fs:0x28,%rax
    3199:	00 00 
    319b:	74 21                	je     31be <_ZNSt4pairIKiNSt7__cxx1112basic_stringIcSt11char_traitsIcESaIcEEEEC1IiRA5_KcLb1EEEOT_OT0_+0xaa>
    319d:	eb 1a                	jmp    31b9 <_ZNSt4pairIKiNSt7__cxx1112basic_stringIcSt11char_traitsIcESaIcEEEEC1IiRA5_KcLb1EEEOT_OT0_+0xa5>
    319f:	48 89 c3             	mov    %rax,%rbx
    31a2:	48 8d 45 e7          	lea    -0x19(%rbp),%rax
    31a6:	48 89 c7             	mov    %rax,%rdi
    31a9:	e8 a2 e3 ff ff       	callq  1550 <_ZNSaIcED1Ev@plt>
    31ae:	48 89 d8             	mov    %rbx,%rax
    31b1:	48 89 c7             	mov    %rax,%rdi
    31b4:	e8 47 e4 ff ff       	callq  1600 <_Unwind_Resume@plt>
    31b9:	e8 a2 e3 ff ff       	callq  1560 <__stack_chk_fail@plt>
    31be:	48 83 c4 38          	add    $0x38,%rsp
    31c2:	5b                   	pop    %rbx
    31c3:	5d                   	pop    %rbp
    31c4:	c3                   	retq   

00000000000031c5 <_ZSt7forwardIRA10_KcEOT_RNSt16remove_referenceIS3_E4typeE>:
    31c5:	55                   	push   %rbp
    31c6:	48 89 e5             	mov    %rsp,%rbp
    31c9:	48 89 7d f8          	mov    %rdi,-0x8(%rbp)
    31cd:	48 8b 45 f8          	mov    -0x8(%rbp),%rax
    31d1:	5d                   	pop    %rbp
    31d2:	c3                   	retq   
    31d3:	90                   	nop

00000000000031d4 <_ZNSt4pairIKiNSt7__cxx1112basic_stringIcSt11char_traitsIcESaIcEEEEC1IiRA10_KcLb1EEEOT_OT0_>:
    31d4:	55                   	push   %rbp
    31d5:	48 89 e5             	mov    %rsp,%rbp
    31d8:	53                   	push   %rbx
    31d9:	48 83 ec 38          	sub    $0x38,%rsp
    31dd:	48 89 7d d8          	mov    %rdi,-0x28(%rbp)
    31e1:	48 89 75 d0          	mov    %rsi,-0x30(%rbp)
    31e5:	48 89 55 c8          	mov    %rdx,-0x38(%rbp)
    31e9:	64 48 8b 04 25 28 00 	mov    %fs:0x28,%rax
    31f0:	00 00 
    31f2:	48 89 45 e8          	mov    %rax,-0x18(%rbp)
    31f6:	31 c0                	xor    %eax,%eax
    31f8:	48 8b 45 d0          	mov    -0x30(%rbp),%rax
    31fc:	48 89 c7             	mov    %rax,%rdi
    31ff:	e8 d7 fd ff ff       	callq  2fdb <_ZSt7forwardIiEOT_RNSt16remove_referenceIS0_E4typeE>
    3204:	8b 10                	mov    (%rax),%edx
    3206:	48 8b 45 d8          	mov    -0x28(%rbp),%rax
    320a:	89 10                	mov    %edx,(%rax)
    320c:	48 8b 45 d8          	mov    -0x28(%rbp),%rax
    3210:	48 8d 58 08          	lea    0x8(%rax),%rbx
    3214:	48 8d 45 e7          	lea    -0x19(%rbp),%rax
    3218:	48 89 c7             	mov    %rax,%rdi
    321b:	e8 f0 e3 ff ff       	callq  1610 <_ZNSaIcEC1Ev@plt>
    3220:	48 8b 45 c8          	mov    -0x38(%rbp),%rax
    3224:	48 89 c7             	mov    %rax,%rdi
    3227:	e8 99 ff ff ff       	callq  31c5 <_ZSt7forwardIRA10_KcEOT_RNSt16remove_referenceIS3_E4typeE>
    322c:	48 89 c1             	mov    %rax,%rcx
    322f:	48 8d 45 e7          	lea    -0x19(%rbp),%rax
    3233:	48 89 c2             	mov    %rax,%rdx
    3236:	48 89 ce             	mov    %rcx,%rsi
    3239:	48 89 df             	mov    %rbx,%rdi
    323c:	e8 5f e3 ff ff       	callq  15a0 <_ZNSt7__cxx1112basic_stringIcSt11char_traitsIcESaIcEEC1EPKcRKS3_@plt>
    3241:	48 8d 45 e7          	lea    -0x19(%rbp),%rax
    3245:	48 89 c7             	mov    %rax,%rdi
    3248:	e8 03 e3 ff ff       	callq  1550 <_ZNSaIcED1Ev@plt>
    324d:	90                   	nop
    324e:	48 8b 45 e8          	mov    -0x18(%rbp),%rax
    3252:	64 48 33 04 25 28 00 	xor    %fs:0x28,%rax
    3259:	00 00 
    325b:	74 21                	je     327e <_ZNSt4pairIKiNSt7__cxx1112basic_stringIcSt11char_traitsIcESaIcEEEEC1IiRA10_KcLb1EEEOT_OT0_+0xaa>
    325d:	eb 1a                	jmp    3279 <_ZNSt4pairIKiNSt7__cxx1112basic_stringIcSt11char_traitsIcESaIcEEEEC1IiRA10_KcLb1EEEOT_OT0_+0xa5>
    325f:	48 89 c3             	mov    %rax,%rbx
    3262:	48 8d 45 e7          	lea    -0x19(%rbp),%rax
    3266:	48 89 c7             	mov    %rax,%rdi
    3269:	e8 e2 e2 ff ff       	callq  1550 <_ZNSaIcED1Ev@plt>
    326e:	48 89 d8             	mov    %rbx,%rax
    3271:	48 89 c7             	mov    %rax,%rdi
    3274:	e8 87 e3 ff ff       	callq  1600 <_Unwind_Resume@plt>
    3279:	e8 e2 e2 ff ff       	callq  1560 <__stack_chk_fail@plt>
    327e:	48 83 c4 38          	add    $0x38,%rsp
    3282:	5b                   	pop    %rbx
    3283:	5d                   	pop    %rbp
    3284:	c3                   	retq   

0000000000003285 <_ZSt7forwardIRA6_KcEOT_RNSt16remove_referenceIS3_E4typeE>:
    3285:	55                   	push   %rbp
    3286:	48 89 e5             	mov    %rsp,%rbp
    3289:	48 89 7d f8          	mov    %rdi,-0x8(%rbp)
    328d:	48 8b 45 f8          	mov    -0x8(%rbp),%rax
    3291:	5d                   	pop    %rbp
    3292:	c3                   	retq   
    3293:	90                   	nop

0000000000003294 <_ZNSt4pairIKiNSt7__cxx1112basic_stringIcSt11char_traitsIcESaIcEEEEC1IiRA6_KcLb1EEEOT_OT0_>:
    3294:	55                   	push   %rbp
    3295:	48 89 e5             	mov    %rsp,%rbp
    3298:	53                   	push   %rbx
    3299:	48 83 ec 38          	sub    $0x38,%rsp
    329d:	48 89 7d d8          	mov    %rdi,-0x28(%rbp)
    32a1:	48 89 75 d0          	mov    %rsi,-0x30(%rbp)
    32a5:	48 89 55 c8          	mov    %rdx,-0x38(%rbp)
    32a9:	64 48 8b 04 25 28 00 	mov    %fs:0x28,%rax
    32b0:	00 00 
    32b2:	48 89 45 e8          	mov    %rax,-0x18(%rbp)
    32b6:	31 c0                	xor    %eax,%eax
    32b8:	48 8b 45 d0          	mov    -0x30(%rbp),%rax
    32bc:	48 89 c7             	mov    %rax,%rdi
    32bf:	e8 17 fd ff ff       	callq  2fdb <_ZSt7forwardIiEOT_RNSt16remove_referenceIS0_E4typeE>
    32c4:	8b 10                	mov    (%rax),%edx
    32c6:	48 8b 45 d8          	mov    -0x28(%rbp),%rax
    32ca:	89 10                	mov    %edx,(%rax)
    32cc:	48 8b 45 d8          	mov    -0x28(%rbp),%rax
    32d0:	48 8d 58 08          	lea    0x8(%rax),%rbx
    32d4:	48 8d 45 e7          	lea    -0x19(%rbp),%rax
    32d8:	48 89 c7             	mov    %rax,%rdi
    32db:	e8 30 e3 ff ff       	callq  1610 <_ZNSaIcEC1Ev@plt>
    32e0:	48 8b 45 c8          	mov    -0x38(%rbp),%rax
    32e4:	48 89 c7             	mov    %rax,%rdi
    32e7:	e8 99 ff ff ff       	callq  3285 <_ZSt7forwardIRA6_KcEOT_RNSt16remove_referenceIS3_E4typeE>
    32ec:	48 89 c1             	mov    %rax,%rcx
    32ef:	48 8d 45 e7          	lea    -0x19(%rbp),%rax
    32f3:	48 89 c2             	mov    %rax,%rdx
    32f6:	48 89 ce             	mov    %rcx,%rsi
    32f9:	48 89 df             	mov    %rbx,%rdi
    32fc:	e8 9f e2 ff ff       	callq  15a0 <_ZNSt7__cxx1112basic_stringIcSt11char_traitsIcESaIcEEC1EPKcRKS3_@plt>
    3301:	48 8d 45 e7          	lea    -0x19(%rbp),%rax
    3305:	48 89 c7             	mov    %rax,%rdi
    3308:	e8 43 e2 ff ff       	callq  1550 <_ZNSaIcED1Ev@plt>
    330d:	90                   	nop
    330e:	48 8b 45 e8          	mov    -0x18(%rbp),%rax
    3312:	64 48 33 04 25 28 00 	xor    %fs:0x28,%rax
    3319:	00 00 
    331b:	74 21                	je     333e <_ZNSt4pairIKiNSt7__cxx1112basic_stringIcSt11char_traitsIcESaIcEEEEC1IiRA6_KcLb1EEEOT_OT0_+0xaa>
    331d:	eb 1a                	jmp    3339 <_ZNSt4pairIKiNSt7__cxx1112basic_stringIcSt11char_traitsIcESaIcEEEEC1IiRA6_KcLb1EEEOT_OT0_+0xa5>
    331f:	48 89 c3             	mov    %rax,%rbx
    3322:	48 8d 45 e7          	lea    -0x19(%rbp),%rax
    3326:	48 89 c7             	mov    %rax,%rdi
    3329:	e8 22 e2 ff ff       	callq  1550 <_ZNSaIcED1Ev@plt>
    332e:	48 89 d8             	mov    %rbx,%rax
    3331:	48 89 c7             	mov    %rax,%rdi
    3334:	e8 c7 e2 ff ff       	callq  1600 <_Unwind_Resume@plt>
    3339:	e8 22 e2 ff ff       	callq  1560 <__stack_chk_fail@plt>
    333e:	48 83 c4 38          	add    $0x38,%rsp
    3342:	5b                   	pop    %rbx
    3343:	5d                   	pop    %rbp
    3344:	c3                   	retq   

0000000000003345 <_ZSt7forwardIRA7_KcEOT_RNSt16remove_referenceIS3_E4typeE>:
    3345:	55                   	push   %rbp
    3346:	48 89 e5             	mov    %rsp,%rbp
    3349:	48 89 7d f8          	mov    %rdi,-0x8(%rbp)
    334d:	48 8b 45 f8          	mov    -0x8(%rbp),%rax
    3351:	5d                   	pop    %rbp
    3352:	c3                   	retq   
    3353:	90                   	nop

0000000000003354 <_ZNSt4pairIKiNSt7__cxx1112basic_stringIcSt11char_traitsIcESaIcEEEEC1IiRA7_KcLb1EEEOT_OT0_>:
    3354:	55                   	push   %rbp
    3355:	48 89 e5             	mov    %rsp,%rbp
    3358:	53                   	push   %rbx
    3359:	48 83 ec 38          	sub    $0x38,%rsp
    335d:	48 89 7d d8          	mov    %rdi,-0x28(%rbp)
    3361:	48 89 75 d0          	mov    %rsi,-0x30(%rbp)
    3365:	48 89 55 c8          	mov    %rdx,-0x38(%rbp)
    3369:	64 48 8b 04 25 28 00 	mov    %fs:0x28,%rax
    3370:	00 00 
    3372:	48 89 45 e8          	mov    %rax,-0x18(%rbp)
    3376:	31 c0                	xor    %eax,%eax
    3378:	48 8b 45 d0          	mov    -0x30(%rbp),%rax
    337c:	48 89 c7             	mov    %rax,%rdi
    337f:	e8 57 fc ff ff       	callq  2fdb <_ZSt7forwardIiEOT_RNSt16remove_referenceIS0_E4typeE>
    3384:	8b 10                	mov    (%rax),%edx
    3386:	48 8b 45 d8          	mov    -0x28(%rbp),%rax
    338a:	89 10                	mov    %edx,(%rax)
    338c:	48 8b 45 d8          	mov    -0x28(%rbp),%rax
    3390:	48 8d 58 08          	lea    0x8(%rax),%rbx
    3394:	48 8d 45 e7          	lea    -0x19(%rbp),%rax
    3398:	48 89 c7             	mov    %rax,%rdi
    339b:	e8 70 e2 ff ff       	callq  1610 <_ZNSaIcEC1Ev@plt>
    33a0:	48 8b 45 c8          	mov    -0x38(%rbp),%rax
    33a4:	48 89 c7             	mov    %rax,%rdi
    33a7:	e8 99 ff ff ff       	callq  3345 <_ZSt7forwardIRA7_KcEOT_RNSt16remove_referenceIS3_E4typeE>
    33ac:	48 89 c1             	mov    %rax,%rcx
    33af:	48 8d 45 e7          	lea    -0x19(%rbp),%rax
    33b3:	48 89 c2             	mov    %rax,%rdx
    33b6:	48 89 ce             	mov    %rcx,%rsi
    33b9:	48 89 df             	mov    %rbx,%rdi
    33bc:	e8 df e1 ff ff       	callq  15a0 <_ZNSt7__cxx1112basic_stringIcSt11char_traitsIcESaIcEEC1EPKcRKS3_@plt>
    33c1:	48 8d 45 e7          	lea    -0x19(%rbp),%rax
    33c5:	48 89 c7             	mov    %rax,%rdi
    33c8:	e8 83 e1 ff ff       	callq  1550 <_ZNSaIcED1Ev@plt>
    33cd:	90                   	nop
    33ce:	48 8b 45 e8          	mov    -0x18(%rbp),%rax
    33d2:	64 48 33 04 25 28 00 	xor    %fs:0x28,%rax
    33d9:	00 00 
    33db:	74 21                	je     33fe <_ZNSt4pairIKiNSt7__cxx1112basic_stringIcSt11char_traitsIcESaIcEEEEC1IiRA7_KcLb1EEEOT_OT0_+0xaa>
    33dd:	eb 1a                	jmp    33f9 <_ZNSt4pairIKiNSt7__cxx1112basic_stringIcSt11char_traitsIcESaIcEEEEC1IiRA7_KcLb1EEEOT_OT0_+0xa5>
    33df:	48 89 c3             	mov    %rax,%rbx
    33e2:	48 8d 45 e7          	lea    -0x19(%rbp),%rax
    33e6:	48 89 c7             	mov    %rax,%rdi
    33e9:	e8 62 e1 ff ff       	callq  1550 <_ZNSaIcED1Ev@plt>
    33ee:	48 89 d8             	mov    %rbx,%rax
    33f1:	48 89 c7             	mov    %rax,%rdi
    33f4:	e8 07 e2 ff ff       	callq  1600 <_Unwind_Resume@plt>
    33f9:	e8 62 e1 ff ff       	callq  1560 <__stack_chk_fail@plt>
    33fe:	48 83 c4 38          	add    $0x38,%rsp
    3402:	5b                   	pop    %rbx
    3403:	5d                   	pop    %rbp
    3404:	c3                   	retq   

0000000000003405 <_ZSt7forwardIRA13_KcEOT_RNSt16remove_referenceIS3_E4typeE>:
    3405:	55                   	push   %rbp
    3406:	48 89 e5             	mov    %rsp,%rbp
    3409:	48 89 7d f8          	mov    %rdi,-0x8(%rbp)
    340d:	48 8b 45 f8          	mov    -0x8(%rbp),%rax
    3411:	5d                   	pop    %rbp
    3412:	c3                   	retq   
    3413:	90                   	nop

0000000000003414 <_ZNSt4pairIKiNSt7__cxx1112basic_stringIcSt11char_traitsIcESaIcEEEEC1IiRA13_KcLb1EEEOT_OT0_>:
    3414:	55                   	push   %rbp
    3415:	48 89 e5             	mov    %rsp,%rbp
    3418:	53                   	push   %rbx
    3419:	48 83 ec 38          	sub    $0x38,%rsp
    341d:	48 89 7d d8          	mov    %rdi,-0x28(%rbp)
    3421:	48 89 75 d0          	mov    %rsi,-0x30(%rbp)
    3425:	48 89 55 c8          	mov    %rdx,-0x38(%rbp)
    3429:	64 48 8b 04 25 28 00 	mov    %fs:0x28,%rax
    3430:	00 00 
    3432:	48 89 45 e8          	mov    %rax,-0x18(%rbp)
    3436:	31 c0                	xor    %eax,%eax
    3438:	48 8b 45 d0          	mov    -0x30(%rbp),%rax
    343c:	48 89 c7             	mov    %rax,%rdi
    343f:	e8 97 fb ff ff       	callq  2fdb <_ZSt7forwardIiEOT_RNSt16remove_referenceIS0_E4typeE>
    3444:	8b 10                	mov    (%rax),%edx
    3446:	48 8b 45 d8          	mov    -0x28(%rbp),%rax
    344a:	89 10                	mov    %edx,(%rax)
    344c:	48 8b 45 d8          	mov    -0x28(%rbp),%rax
    3450:	48 8d 58 08          	lea    0x8(%rax),%rbx
    3454:	48 8d 45 e7          	lea    -0x19(%rbp),%rax
    3458:	48 89 c7             	mov    %rax,%rdi
    345b:	e8 b0 e1 ff ff       	callq  1610 <_ZNSaIcEC1Ev@plt>
    3460:	48 8b 45 c8          	mov    -0x38(%rbp),%rax
    3464:	48 89 c7             	mov    %rax,%rdi
    3467:	e8 99 ff ff ff       	callq  3405 <_ZSt7forwardIRA13_KcEOT_RNSt16remove_referenceIS3_E4typeE>
    346c:	48 89 c1             	mov    %rax,%rcx
    346f:	48 8d 45 e7          	lea    -0x19(%rbp),%rax
    3473:	48 89 c2             	mov    %rax,%rdx
    3476:	48 89 ce             	mov    %rcx,%rsi
    3479:	48 89 df             	mov    %rbx,%rdi
    347c:	e8 1f e1 ff ff       	callq  15a0 <_ZNSt7__cxx1112basic_stringIcSt11char_traitsIcESaIcEEC1EPKcRKS3_@plt>
    3481:	48 8d 45 e7          	lea    -0x19(%rbp),%rax
    3485:	48 89 c7             	mov    %rax,%rdi
    3488:	e8 c3 e0 ff ff       	callq  1550 <_ZNSaIcED1Ev@plt>
    348d:	90                   	nop
    348e:	48 8b 45 e8          	mov    -0x18(%rbp),%rax
    3492:	64 48 33 04 25 28 00 	xor    %fs:0x28,%rax
    3499:	00 00 
    349b:	74 21                	je     34be <_ZNSt4pairIKiNSt7__cxx1112basic_stringIcSt11char_traitsIcESaIcEEEEC1IiRA13_KcLb1EEEOT_OT0_+0xaa>
    349d:	eb 1a                	jmp    34b9 <_ZNSt4pairIKiNSt7__cxx1112basic_stringIcSt11char_traitsIcESaIcEEEEC1IiRA13_KcLb1EEEOT_OT0_+0xa5>
    349f:	48 89 c3             	mov    %rax,%rbx
    34a2:	48 8d 45 e7          	lea    -0x19(%rbp),%rax
    34a6:	48 89 c7             	mov    %rax,%rdi
    34a9:	e8 a2 e0 ff ff       	callq  1550 <_ZNSaIcED1Ev@plt>
    34ae:	48 89 d8             	mov    %rbx,%rax
    34b1:	48 89 c7             	mov    %rax,%rdi
    34b4:	e8 47 e1 ff ff       	callq  1600 <_Unwind_Resume@plt>
    34b9:	e8 a2 e0 ff ff       	callq  1560 <__stack_chk_fail@plt>
    34be:	48 83 c4 38          	add    $0x38,%rsp
    34c2:	5b                   	pop    %rbx
    34c3:	5d                   	pop    %rbp
    34c4:	c3                   	retq   

00000000000034c5 <_ZSt7forwardIRA15_KcEOT_RNSt16remove_referenceIS3_E4typeE>:
    34c5:	55                   	push   %rbp
    34c6:	48 89 e5             	mov    %rsp,%rbp
    34c9:	48 89 7d f8          	mov    %rdi,-0x8(%rbp)
    34cd:	48 8b 45 f8          	mov    -0x8(%rbp),%rax
    34d1:	5d                   	pop    %rbp
    34d2:	c3                   	retq   
    34d3:	90                   	nop

00000000000034d4 <_ZNSt4pairIKiNSt7__cxx1112basic_stringIcSt11char_traitsIcESaIcEEEEC1IiRA15_KcLb1EEEOT_OT0_>:
    34d4:	55                   	push   %rbp
    34d5:	48 89 e5             	mov    %rsp,%rbp
    34d8:	53                   	push   %rbx
    34d9:	48 83 ec 38          	sub    $0x38,%rsp
    34dd:	48 89 7d d8          	mov    %rdi,-0x28(%rbp)
    34e1:	48 89 75 d0          	mov    %rsi,-0x30(%rbp)
    34e5:	48 89 55 c8          	mov    %rdx,-0x38(%rbp)
    34e9:	64 48 8b 04 25 28 00 	mov    %fs:0x28,%rax
    34f0:	00 00 
    34f2:	48 89 45 e8          	mov    %rax,-0x18(%rbp)
    34f6:	31 c0                	xor    %eax,%eax
    34f8:	48 8b 45 d0          	mov    -0x30(%rbp),%rax
    34fc:	48 89 c7             	mov    %rax,%rdi
    34ff:	e8 d7 fa ff ff       	callq  2fdb <_ZSt7forwardIiEOT_RNSt16remove_referenceIS0_E4typeE>
    3504:	8b 10                	mov    (%rax),%edx
    3506:	48 8b 45 d8          	mov    -0x28(%rbp),%rax
    350a:	89 10                	mov    %edx,(%rax)
    350c:	48 8b 45 d8          	mov    -0x28(%rbp),%rax
    3510:	48 8d 58 08          	lea    0x8(%rax),%rbx
    3514:	48 8d 45 e7          	lea    -0x19(%rbp),%rax
    3518:	48 89 c7             	mov    %rax,%rdi
    351b:	e8 f0 e0 ff ff       	callq  1610 <_ZNSaIcEC1Ev@plt>
    3520:	48 8b 45 c8          	mov    -0x38(%rbp),%rax
    3524:	48 89 c7             	mov    %rax,%rdi
    3527:	e8 99 ff ff ff       	callq  34c5 <_ZSt7forwardIRA15_KcEOT_RNSt16remove_referenceIS3_E4typeE>
    352c:	48 89 c1             	mov    %rax,%rcx
    352f:	48 8d 45 e7          	lea    -0x19(%rbp),%rax
    3533:	48 89 c2             	mov    %rax,%rdx
    3536:	48 89 ce             	mov    %rcx,%rsi
    3539:	48 89 df             	mov    %rbx,%rdi
    353c:	e8 5f e0 ff ff       	callq  15a0 <_ZNSt7__cxx1112basic_stringIcSt11char_traitsIcESaIcEEC1EPKcRKS3_@plt>
    3541:	48 8d 45 e7          	lea    -0x19(%rbp),%rax
    3545:	48 89 c7             	mov    %rax,%rdi
    3548:	e8 03 e0 ff ff       	callq  1550 <_ZNSaIcED1Ev@plt>
    354d:	90                   	nop
    354e:	48 8b 45 e8          	mov    -0x18(%rbp),%rax
    3552:	64 48 33 04 25 28 00 	xor    %fs:0x28,%rax
    3559:	00 00 
    355b:	74 21                	je     357e <_ZNSt4pairIKiNSt7__cxx1112basic_stringIcSt11char_traitsIcESaIcEEEEC1IiRA15_KcLb1EEEOT_OT0_+0xaa>
    355d:	eb 1a                	jmp    3579 <_ZNSt4pairIKiNSt7__cxx1112basic_stringIcSt11char_traitsIcESaIcEEEEC1IiRA15_KcLb1EEEOT_OT0_+0xa5>
    355f:	48 89 c3             	mov    %rax,%rbx
    3562:	48 8d 45 e7          	lea    -0x19(%rbp),%rax
    3566:	48 89 c7             	mov    %rax,%rdi
    3569:	e8 e2 df ff ff       	callq  1550 <_ZNSaIcED1Ev@plt>
    356e:	48 89 d8             	mov    %rbx,%rax
    3571:	48 89 c7             	mov    %rax,%rdi
    3574:	e8 87 e0 ff ff       	callq  1600 <_Unwind_Resume@plt>
    3579:	e8 e2 df ff ff       	callq  1560 <__stack_chk_fail@plt>
    357e:	48 83 c4 38          	add    $0x38,%rsp
    3582:	5b                   	pop    %rbx
    3583:	5d                   	pop    %rbp
    3584:	c3                   	retq   
    3585:	90                   	nop

0000000000003586 <_ZNSt13unordered_mapIiNSt7__cxx1112basic_stringIcSt11char_traitsIcESaIcEEESt4hashIiESt8equal_toIiESaISt4pairIKiS5_EEED1Ev>:
    3586:	55                   	push   %rbp
    3587:	48 89 e5             	mov    %rsp,%rbp
    358a:	48 83 ec 10          	sub    $0x10,%rsp
    358e:	48 89 7d f8          	mov    %rdi,-0x8(%rbp)
    3592:	48 8b 45 f8          	mov    -0x8(%rbp),%rax
    3596:	48 89 c7             	mov    %rax,%rdi
    3599:	e8 b6 0f 00 00       	callq  4554 <_ZNSt10_HashtableIiSt4pairIKiNSt7__cxx1112basic_stringIcSt11char_traitsIcESaIcEEEESaIS8_ENSt8__detail10_Select1stESt8equal_toIiESt4hashIiENSA_18_Mod_range_hashingENSA_20_Default_ranged_hashENSA_20_Prime_rehash_policyENSA_17_Hashtable_traitsILb0ELb0ELb1EEEED1Ev>
    359e:	90                   	nop
    359f:	c9                   	leaveq 
    35a0:	c3                   	retq   
    35a1:	90                   	nop

00000000000035a2 <_ZNSt4pairIKNSt7__cxx1112basic_stringIcSt11char_traitsIcESaIcEEEmED1Ev>:
    35a2:	55                   	push   %rbp
    35a3:	48 89 e5             	mov    %rsp,%rbp
    35a6:	48 83 ec 10          	sub    $0x10,%rsp
    35aa:	48 89 7d f8          	mov    %rdi,-0x8(%rbp)
    35ae:	48 8b 45 f8          	mov    -0x8(%rbp),%rax
    35b2:	48 89 c7             	mov    %rax,%rdi
    35b5:	e8 f6 de ff ff       	callq  14b0 <_ZNSt7__cxx1112basic_stringIcSt11char_traitsIcESaIcEED1Ev@plt>
    35ba:	90                   	nop
    35bb:	c9                   	leaveq 
    35bc:	c3                   	retq   
    35bd:	90                   	nop

00000000000035be <_ZNSt4pairIKNSt7__cxx1112basic_stringIcSt11char_traitsIcESaIcEEEmEC1IRA11_KcmLb1EEEOT_OT0_>:
    35be:	55                   	push   %rbp
    35bf:	48 89 e5             	mov    %rsp,%rbp
    35c2:	53                   	push   %rbx
    35c3:	48 83 ec 38          	sub    $0x38,%rsp
    35c7:	48 89 7d d8          	mov    %rdi,-0x28(%rbp)
    35cb:	48 89 75 d0          	mov    %rsi,-0x30(%rbp)
    35cf:	48 89 55 c8          	mov    %rdx,-0x38(%rbp)
    35d3:	64 48 8b 04 25 28 00 	mov    %fs:0x28,%rax
    35da:	00 00 
    35dc:	48 89 45 e8          	mov    %rax,-0x18(%rbp)
    35e0:	31 c0                	xor    %eax,%eax
    35e2:	48 8b 5d d8          	mov    -0x28(%rbp),%rbx
    35e6:	48 8d 45 e7          	lea    -0x19(%rbp),%rax
    35ea:	48 89 c7             	mov    %rax,%rdi
    35ed:	e8 1e e0 ff ff       	callq  1610 <_ZNSaIcEC1Ev@plt>
    35f2:	48 8b 45 d0          	mov    -0x30(%rbp),%rax
    35f6:	48 89 c7             	mov    %rax,%rdi
    35f9:	e8 47 fa ff ff       	callq  3045 <_ZSt7forwardIRA11_KcEOT_RNSt16remove_referenceIS3_E4typeE>
    35fe:	48 89 c1             	mov    %rax,%rcx
    3601:	48 8d 45 e7          	lea    -0x19(%rbp),%rax
    3605:	48 89 c2             	mov    %rax,%rdx
    3608:	48 89 ce             	mov    %rcx,%rsi
    360b:	48 89 df             	mov    %rbx,%rdi
    360e:	e8 8d df ff ff       	callq  15a0 <_ZNSt7__cxx1112basic_stringIcSt11char_traitsIcESaIcEEC1EPKcRKS3_@plt>
    3613:	48 8d 45 e7          	lea    -0x19(%rbp),%rax
    3617:	48 89 c7             	mov    %rax,%rdi
    361a:	e8 31 df ff ff       	callq  1550 <_ZNSaIcED1Ev@plt>
    361f:	48 8b 45 c8          	mov    -0x38(%rbp),%rax
    3623:	48 89 c7             	mov    %rax,%rdi
    3626:	e8 5f 08 00 00       	callq  3e8a <_ZSt7forwardImEOT_RNSt16remove_referenceIS0_E4typeE>
    362b:	48 8b 10             	mov    (%rax),%rdx
    362e:	48 8b 45 d8          	mov    -0x28(%rbp),%rax
    3632:	48 89 50 20          	mov    %rdx,0x20(%rax)
    3636:	90                   	nop
    3637:	48 8b 45 e8          	mov    -0x18(%rbp),%rax
    363b:	64 48 33 04 25 28 00 	xor    %fs:0x28,%rax
    3642:	00 00 
    3644:	74 21                	je     3667 <_ZNSt4pairIKNSt7__cxx1112basic_stringIcSt11char_traitsIcESaIcEEEmEC1IRA11_KcmLb1EEEOT_OT0_+0xa9>
    3646:	eb 1a                	jmp    3662 <_ZNSt4pairIKNSt7__cxx1112basic_stringIcSt11char_traitsIcESaIcEEEmEC1IRA11_KcmLb1EEEOT_OT0_+0xa4>
    3648:	48 89 c3             	mov    %rax,%rbx
    364b:	48 8d 45 e7          	lea    -0x19(%rbp),%rax
    364f:	48 89 c7             	mov    %rax,%rdi
    3652:	e8 f9 de ff ff       	callq  1550 <_ZNSaIcED1Ev@plt>
    3657:	48 89 d8             	mov    %rbx,%rax
    365a:	48 89 c7             	mov    %rax,%rdi
    365d:	e8 9e df ff ff       	callq  1600 <_Unwind_Resume@plt>
    3662:	e8 f9 de ff ff       	callq  1560 <__stack_chk_fail@plt>
    3667:	48 83 c4 38          	add    $0x38,%rsp
    366b:	5b                   	pop    %rbx
    366c:	5d                   	pop    %rbp
    366d:	c3                   	retq   

000000000000366e <_ZNSt4pairIKNSt7__cxx1112basic_stringIcSt11char_traitsIcESaIcEEEmEC1IRA5_KcmLb1EEEOT_OT0_>:
    366e:	55                   	push   %rbp
    366f:	48 89 e5             	mov    %rsp,%rbp
    3672:	53                   	push   %rbx
    3673:	48 83 ec 38          	sub    $0x38,%rsp
    3677:	48 89 7d d8          	mov    %rdi,-0x28(%rbp)
    367b:	48 89 75 d0          	mov    %rsi,-0x30(%rbp)
    367f:	48 89 55 c8          	mov    %rdx,-0x38(%rbp)
    3683:	64 48 8b 04 25 28 00 	mov    %fs:0x28,%rax
    368a:	00 00 
    368c:	48 89 45 e8          	mov    %rax,-0x18(%rbp)
    3690:	31 c0                	xor    %eax,%eax
    3692:	48 8b 5d d8          	mov    -0x28(%rbp),%rbx
    3696:	48 8d 45 e7          	lea    -0x19(%rbp),%rax
    369a:	48 89 c7             	mov    %rax,%rdi
    369d:	e8 6e df ff ff       	callq  1610 <_ZNSaIcEC1Ev@plt>
    36a2:	48 8b 45 d0          	mov    -0x30(%rbp),%rax
    36a6:	48 89 c7             	mov    %rax,%rdi
    36a9:	e8 57 fa ff ff       	callq  3105 <_ZSt7forwardIRA5_KcEOT_RNSt16remove_referenceIS3_E4typeE>
    36ae:	48 89 c1             	mov    %rax,%rcx
    36b1:	48 8d 45 e7          	lea    -0x19(%rbp),%rax
    36b5:	48 89 c2             	mov    %rax,%rdx
    36b8:	48 89 ce             	mov    %rcx,%rsi
    36bb:	48 89 df             	mov    %rbx,%rdi
    36be:	e8 dd de ff ff       	callq  15a0 <_ZNSt7__cxx1112basic_stringIcSt11char_traitsIcESaIcEEC1EPKcRKS3_@plt>
    36c3:	48 8d 45 e7          	lea    -0x19(%rbp),%rax
    36c7:	48 89 c7             	mov    %rax,%rdi
    36ca:	e8 81 de ff ff       	callq  1550 <_ZNSaIcED1Ev@plt>
    36cf:	48 8b 45 c8          	mov    -0x38(%rbp),%rax
    36d3:	48 89 c7             	mov    %rax,%rdi
    36d6:	e8 af 07 00 00       	callq  3e8a <_ZSt7forwardImEOT_RNSt16remove_referenceIS0_E4typeE>
    36db:	48 8b 10             	mov    (%rax),%rdx
    36de:	48 8b 45 d8          	mov    -0x28(%rbp),%rax
    36e2:	48 89 50 20          	mov    %rdx,0x20(%rax)
    36e6:	90                   	nop
    36e7:	48 8b 45 e8          	mov    -0x18(%rbp),%rax
    36eb:	64 48 33 04 25 28 00 	xor    %fs:0x28,%rax
    36f2:	00 00 
    36f4:	74 21                	je     3717 <_ZNSt4pairIKNSt7__cxx1112basic_stringIcSt11char_traitsIcESaIcEEEmEC1IRA5_KcmLb1EEEOT_OT0_+0xa9>
    36f6:	eb 1a                	jmp    3712 <_ZNSt4pairIKNSt7__cxx1112basic_stringIcSt11char_traitsIcESaIcEEEmEC1IRA5_KcmLb1EEEOT_OT0_+0xa4>
    36f8:	48 89 c3             	mov    %rax,%rbx
    36fb:	48 8d 45 e7          	lea    -0x19(%rbp),%rax
    36ff:	48 89 c7             	mov    %rax,%rdi
    3702:	e8 49 de ff ff       	callq  1550 <_ZNSaIcED1Ev@plt>
    3707:	48 89 d8             	mov    %rbx,%rax
    370a:	48 89 c7             	mov    %rax,%rdi
    370d:	e8 ee de ff ff       	callq  1600 <_Unwind_Resume@plt>
    3712:	e8 49 de ff ff       	callq  1560 <__stack_chk_fail@plt>
    3717:	48 83 c4 38          	add    $0x38,%rsp
    371b:	5b                   	pop    %rbx
    371c:	5d                   	pop    %rbp
    371d:	c3                   	retq   

000000000000371e <_ZNSt4pairIKNSt7__cxx1112basic_stringIcSt11char_traitsIcESaIcEEEmEC1IRA10_KcmLb1EEEOT_OT0_>:
    371e:	55                   	push   %rbp
    371f:	48 89 e5             	mov    %rsp,%rbp
    3722:	53                   	push   %rbx
    3723:	48 83 ec 38          	sub    $0x38,%rsp
    3727:	48 89 7d d8          	mov    %rdi,-0x28(%rbp)
    372b:	48 89 75 d0          	mov    %rsi,-0x30(%rbp)
    372f:	48 89 55 c8          	mov    %rdx,-0x38(%rbp)
    3733:	64 48 8b 04 25 28 00 	mov    %fs:0x28,%rax
    373a:	00 00 
    373c:	48 89 45 e8          	mov    %rax,-0x18(%rbp)
    3740:	31 c0                	xor    %eax,%eax
    3742:	48 8b 5d d8          	mov    -0x28(%rbp),%rbx
    3746:	48 8d 45 e7          	lea    -0x19(%rbp),%rax
    374a:	48 89 c7             	mov    %rax,%rdi
    374d:	e8 be de ff ff       	callq  1610 <_ZNSaIcEC1Ev@plt>
    3752:	48 8b 45 d0          	mov    -0x30(%rbp),%rax
    3756:	48 89 c7             	mov    %rax,%rdi
    3759:	e8 67 fa ff ff       	callq  31c5 <_ZSt7forwardIRA10_KcEOT_RNSt16remove_referenceIS3_E4typeE>
    375e:	48 89 c1             	mov    %rax,%rcx
    3761:	48 8d 45 e7          	lea    -0x19(%rbp),%rax
    3765:	48 89 c2             	mov    %rax,%rdx
    3768:	48 89 ce             	mov    %rcx,%rsi
    376b:	48 89 df             	mov    %rbx,%rdi
    376e:	e8 2d de ff ff       	callq  15a0 <_ZNSt7__cxx1112basic_stringIcSt11char_traitsIcESaIcEEC1EPKcRKS3_@plt>
    3773:	48 8d 45 e7          	lea    -0x19(%rbp),%rax
    3777:	48 89 c7             	mov    %rax,%rdi
    377a:	e8 d1 dd ff ff       	callq  1550 <_ZNSaIcED1Ev@plt>
    377f:	48 8b 45 c8          	mov    -0x38(%rbp),%rax
    3783:	48 89 c7             	mov    %rax,%rdi
    3786:	e8 ff 06 00 00       	callq  3e8a <_ZSt7forwardImEOT_RNSt16remove_referenceIS0_E4typeE>
    378b:	48 8b 10             	mov    (%rax),%rdx
    378e:	48 8b 45 d8          	mov    -0x28(%rbp),%rax
    3792:	48 89 50 20          	mov    %rdx,0x20(%rax)
    3796:	90                   	nop
    3797:	48 8b 45 e8          	mov    -0x18(%rbp),%rax
    379b:	64 48 33 04 25 28 00 	xor    %fs:0x28,%rax
    37a2:	00 00 
    37a4:	74 21                	je     37c7 <_ZNSt4pairIKNSt7__cxx1112basic_stringIcSt11char_traitsIcESaIcEEEmEC1IRA10_KcmLb1EEEOT_OT0_+0xa9>
    37a6:	eb 1a                	jmp    37c2 <_ZNSt4pairIKNSt7__cxx1112basic_stringIcSt11char_traitsIcESaIcEEEmEC1IRA10_KcmLb1EEEOT_OT0_+0xa4>
    37a8:	48 89 c3             	mov    %rax,%rbx
    37ab:	48 8d 45 e7          	lea    -0x19(%rbp),%rax
    37af:	48 89 c7             	mov    %rax,%rdi
    37b2:	e8 99 dd ff ff       	callq  1550 <_ZNSaIcED1Ev@plt>
    37b7:	48 89 d8             	mov    %rbx,%rax
    37ba:	48 89 c7             	mov    %rax,%rdi
    37bd:	e8 3e de ff ff       	callq  1600 <_Unwind_Resume@plt>
    37c2:	e8 99 dd ff ff       	callq  1560 <__stack_chk_fail@plt>
    37c7:	48 83 c4 38          	add    $0x38,%rsp
    37cb:	5b                   	pop    %rbx
    37cc:	5d                   	pop    %rbp
    37cd:	c3                   	retq   

00000000000037ce <_ZNSt4pairIKNSt7__cxx1112basic_stringIcSt11char_traitsIcESaIcEEEmEC1IRA6_KcmLb1EEEOT_OT0_>:
    37ce:	55                   	push   %rbp
    37cf:	48 89 e5             	mov    %rsp,%rbp
    37d2:	53                   	push   %rbx
    37d3:	48 83 ec 38          	sub    $0x38,%rsp
    37d7:	48 89 7d d8          	mov    %rdi,-0x28(%rbp)
    37db:	48 89 75 d0          	mov    %rsi,-0x30(%rbp)
    37df:	48 89 55 c8          	mov    %rdx,-0x38(%rbp)
    37e3:	64 48 8b 04 25 28 00 	mov    %fs:0x28,%rax
    37ea:	00 00 
    37ec:	48 89 45 e8          	mov    %rax,-0x18(%rbp)
    37f0:	31 c0                	xor    %eax,%eax
    37f2:	48 8b 5d d8          	mov    -0x28(%rbp),%rbx
    37f6:	48 8d 45 e7          	lea    -0x19(%rbp),%rax
    37fa:	48 89 c7             	mov    %rax,%rdi
    37fd:	e8 0e de ff ff       	callq  1610 <_ZNSaIcEC1Ev@plt>
    3802:	48 8b 45 d0          	mov    -0x30(%rbp),%rax
    3806:	48 89 c7             	mov    %rax,%rdi
    3809:	e8 77 fa ff ff       	callq  3285 <_ZSt7forwardIRA6_KcEOT_RNSt16remove_referenceIS3_E4typeE>
    380e:	48 89 c1             	mov    %rax,%rcx
    3811:	48 8d 45 e7          	lea    -0x19(%rbp),%rax
    3815:	48 89 c2             	mov    %rax,%rdx
    3818:	48 89 ce             	mov    %rcx,%rsi
    381b:	48 89 df             	mov    %rbx,%rdi
    381e:	e8 7d dd ff ff       	callq  15a0 <_ZNSt7__cxx1112basic_stringIcSt11char_traitsIcESaIcEEC1EPKcRKS3_@plt>
    3823:	48 8d 45 e7          	lea    -0x19(%rbp),%rax
    3827:	48 89 c7             	mov    %rax,%rdi
    382a:	e8 21 dd ff ff       	callq  1550 <_ZNSaIcED1Ev@plt>
    382f:	48 8b 45 c8          	mov    -0x38(%rbp),%rax
    3833:	48 89 c7             	mov    %rax,%rdi
    3836:	e8 4f 06 00 00       	callq  3e8a <_ZSt7forwardImEOT_RNSt16remove_referenceIS0_E4typeE>
    383b:	48 8b 10             	mov    (%rax),%rdx
    383e:	48 8b 45 d8          	mov    -0x28(%rbp),%rax
    3842:	48 89 50 20          	mov    %rdx,0x20(%rax)
    3846:	90                   	nop
    3847:	48 8b 45 e8          	mov    -0x18(%rbp),%rax
    384b:	64 48 33 04 25 28 00 	xor    %fs:0x28,%rax
    3852:	00 00 
    3854:	74 21                	je     3877 <_ZNSt4pairIKNSt7__cxx1112basic_stringIcSt11char_traitsIcESaIcEEEmEC1IRA6_KcmLb1EEEOT_OT0_+0xa9>
    3856:	eb 1a                	jmp    3872 <_ZNSt4pairIKNSt7__cxx1112basic_stringIcSt11char_traitsIcESaIcEEEmEC1IRA6_KcmLb1EEEOT_OT0_+0xa4>
    3858:	48 89 c3             	mov    %rax,%rbx
    385b:	48 8d 45 e7          	lea    -0x19(%rbp),%rax
    385f:	48 89 c7             	mov    %rax,%rdi
    3862:	e8 e9 dc ff ff       	callq  1550 <_ZNSaIcED1Ev@plt>
    3867:	48 89 d8             	mov    %rbx,%rax
    386a:	48 89 c7             	mov    %rax,%rdi
    386d:	e8 8e dd ff ff       	callq  1600 <_Unwind_Resume@plt>
    3872:	e8 e9 dc ff ff       	callq  1560 <__stack_chk_fail@plt>
    3877:	48 83 c4 38          	add    $0x38,%rsp
    387b:	5b                   	pop    %rbx
    387c:	5d                   	pop    %rbp
    387d:	c3                   	retq   

000000000000387e <_ZNSt4pairIKNSt7__cxx1112basic_stringIcSt11char_traitsIcESaIcEEEmEC1IRA15_KcmLb1EEEOT_OT0_>:
    387e:	55                   	push   %rbp
    387f:	48 89 e5             	mov    %rsp,%rbp
    3882:	53                   	push   %rbx
    3883:	48 83 ec 38          	sub    $0x38,%rsp
    3887:	48 89 7d d8          	mov    %rdi,-0x28(%rbp)
    388b:	48 89 75 d0          	mov    %rsi,-0x30(%rbp)
    388f:	48 89 55 c8          	mov    %rdx,-0x38(%rbp)
    3893:	64 48 8b 04 25 28 00 	mov    %fs:0x28,%rax
    389a:	00 00 
    389c:	48 89 45 e8          	mov    %rax,-0x18(%rbp)
    38a0:	31 c0                	xor    %eax,%eax
    38a2:	48 8b 5d d8          	mov    -0x28(%rbp),%rbx
    38a6:	48 8d 45 e7          	lea    -0x19(%rbp),%rax
    38aa:	48 89 c7             	mov    %rax,%rdi
    38ad:	e8 5e dd ff ff       	callq  1610 <_ZNSaIcEC1Ev@plt>
    38b2:	48 8b 45 d0          	mov    -0x30(%rbp),%rax
    38b6:	48 89 c7             	mov    %rax,%rdi
    38b9:	e8 07 fc ff ff       	callq  34c5 <_ZSt7forwardIRA15_KcEOT_RNSt16remove_referenceIS3_E4typeE>
    38be:	48 89 c1             	mov    %rax,%rcx
    38c1:	48 8d 45 e7          	lea    -0x19(%rbp),%rax
    38c5:	48 89 c2             	mov    %rax,%rdx
    38c8:	48 89 ce             	mov    %rcx,%rsi
    38cb:	48 89 df             	mov    %rbx,%rdi
    38ce:	e8 cd dc ff ff       	callq  15a0 <_ZNSt7__cxx1112basic_stringIcSt11char_traitsIcESaIcEEC1EPKcRKS3_@plt>
    38d3:	48 8d 45 e7          	lea    -0x19(%rbp),%rax
    38d7:	48 89 c7             	mov    %rax,%rdi
    38da:	e8 71 dc ff ff       	callq  1550 <_ZNSaIcED1Ev@plt>
    38df:	48 8b 45 c8          	mov    -0x38(%rbp),%rax
    38e3:	48 89 c7             	mov    %rax,%rdi
    38e6:	e8 9f 05 00 00       	callq  3e8a <_ZSt7forwardImEOT_RNSt16remove_referenceIS0_E4typeE>
    38eb:	48 8b 10             	mov    (%rax),%rdx
    38ee:	48 8b 45 d8          	mov    -0x28(%rbp),%rax
    38f2:	48 89 50 20          	mov    %rdx,0x20(%rax)
    38f6:	90                   	nop
    38f7:	48 8b 45 e8          	mov    -0x18(%rbp),%rax
    38fb:	64 48 33 04 25 28 00 	xor    %fs:0x28,%rax
    3902:	00 00 
    3904:	74 21                	je     3927 <_ZNSt4pairIKNSt7__cxx1112basic_stringIcSt11char_traitsIcESaIcEEEmEC1IRA15_KcmLb1EEEOT_OT0_+0xa9>
    3906:	eb 1a                	jmp    3922 <_ZNSt4pairIKNSt7__cxx1112basic_stringIcSt11char_traitsIcESaIcEEEmEC1IRA15_KcmLb1EEEOT_OT0_+0xa4>
    3908:	48 89 c3             	mov    %rax,%rbx
    390b:	48 8d 45 e7          	lea    -0x19(%rbp),%rax
    390f:	48 89 c7             	mov    %rax,%rdi
    3912:	e8 39 dc ff ff       	callq  1550 <_ZNSaIcED1Ev@plt>
    3917:	48 89 d8             	mov    %rbx,%rax
    391a:	48 89 c7             	mov    %rax,%rdi
    391d:	e8 de dc ff ff       	callq  1600 <_Unwind_Resume@plt>
    3922:	e8 39 dc ff ff       	callq  1560 <__stack_chk_fail@plt>
    3927:	48 83 c4 38          	add    $0x38,%rsp
    392b:	5b                   	pop    %rbx
    392c:	5d                   	pop    %rbp
    392d:	c3                   	retq   

000000000000392e <_ZNSt4pairIKNSt7__cxx1112basic_stringIcSt11char_traitsIcESaIcEEEmEC1IRA7_KcmLb1EEEOT_OT0_>:
    392e:	55                   	push   %rbp
    392f:	48 89 e5             	mov    %rsp,%rbp
    3932:	53                   	push   %rbx
    3933:	48 83 ec 38          	sub    $0x38,%rsp
    3937:	48 89 7d d8          	mov    %rdi,-0x28(%rbp)
    393b:	48 89 75 d0          	mov    %rsi,-0x30(%rbp)
    393f:	48 89 55 c8          	mov    %rdx,-0x38(%rbp)
    3943:	64 48 8b 04 25 28 00 	mov    %fs:0x28,%rax
    394a:	00 00 
    394c:	48 89 45 e8          	mov    %rax,-0x18(%rbp)
    3950:	31 c0                	xor    %eax,%eax
    3952:	48 8b 5d d8          	mov    -0x28(%rbp),%rbx
    3956:	48 8d 45 e7          	lea    -0x19(%rbp),%rax
    395a:	48 89 c7             	mov    %rax,%rdi
    395d:	e8 ae dc ff ff       	callq  1610 <_ZNSaIcEC1Ev@plt>
    3962:	48 8b 45 d0          	mov    -0x30(%rbp),%rax
    3966:	48 89 c7             	mov    %rax,%rdi
    3969:	e8 d7 f9 ff ff       	callq  3345 <_ZSt7forwardIRA7_KcEOT_RNSt16remove_referenceIS3_E4typeE>
    396e:	48 89 c1             	mov    %rax,%rcx
    3971:	48 8d 45 e7          	lea    -0x19(%rbp),%rax
    3975:	48 89 c2             	mov    %rax,%rdx
    3978:	48 89 ce             	mov    %rcx,%rsi
    397b:	48 89 df             	mov    %rbx,%rdi
    397e:	e8 1d dc ff ff       	callq  15a0 <_ZNSt7__cxx1112basic_stringIcSt11char_traitsIcESaIcEEC1EPKcRKS3_@plt>
    3983:	48 8d 45 e7          	lea    -0x19(%rbp),%rax
    3987:	48 89 c7             	mov    %rax,%rdi
    398a:	e8 c1 db ff ff       	callq  1550 <_ZNSaIcED1Ev@plt>
    398f:	48 8b 45 c8          	mov    -0x38(%rbp),%rax
    3993:	48 89 c7             	mov    %rax,%rdi
    3996:	e8 ef 04 00 00       	callq  3e8a <_ZSt7forwardImEOT_RNSt16remove_referenceIS0_E4typeE>
    399b:	48 8b 10             	mov    (%rax),%rdx
    399e:	48 8b 45 d8          	mov    -0x28(%rbp),%rax
    39a2:	48 89 50 20          	mov    %rdx,0x20(%rax)
    39a6:	90                   	nop
    39a7:	48 8b 45 e8          	mov    -0x18(%rbp),%rax
    39ab:	64 48 33 04 25 28 00 	xor    %fs:0x28,%rax
    39b2:	00 00 
    39b4:	74 21                	je     39d7 <_ZNSt4pairIKNSt7__cxx1112basic_stringIcSt11char_traitsIcESaIcEEEmEC1IRA7_KcmLb1EEEOT_OT0_+0xa9>
    39b6:	eb 1a                	jmp    39d2 <_ZNSt4pairIKNSt7__cxx1112basic_stringIcSt11char_traitsIcESaIcEEEmEC1IRA7_KcmLb1EEEOT_OT0_+0xa4>
    39b8:	48 89 c3             	mov    %rax,%rbx
    39bb:	48 8d 45 e7          	lea    -0x19(%rbp),%rax
    39bf:	48 89 c7             	mov    %rax,%rdi
    39c2:	e8 89 db ff ff       	callq  1550 <_ZNSaIcED1Ev@plt>
    39c7:	48 89 d8             	mov    %rbx,%rax
    39ca:	48 89 c7             	mov    %rax,%rdi
    39cd:	e8 2e dc ff ff       	callq  1600 <_Unwind_Resume@plt>
    39d2:	e8 89 db ff ff       	callq  1560 <__stack_chk_fail@plt>
    39d7:	48 83 c4 38          	add    $0x38,%rsp
    39db:	5b                   	pop    %rbx
    39dc:	5d                   	pop    %rbp
    39dd:	c3                   	retq   

00000000000039de <_ZSt7forwardIRA12_KcEOT_RNSt16remove_referenceIS3_E4typeE>:
    39de:	55                   	push   %rbp
    39df:	48 89 e5             	mov    %rsp,%rbp
    39e2:	48 89 7d f8          	mov    %rdi,-0x8(%rbp)
    39e6:	48 8b 45 f8          	mov    -0x8(%rbp),%rax
    39ea:	5d                   	pop    %rbp
    39eb:	c3                   	retq   

00000000000039ec <_ZNSt4pairIKNSt7__cxx1112basic_stringIcSt11char_traitsIcESaIcEEEmEC1IRA12_KcmLb1EEEOT_OT0_>:
    39ec:	55                   	push   %rbp
    39ed:	48 89 e5             	mov    %rsp,%rbp
    39f0:	53                   	push   %rbx
    39f1:	48 83 ec 38          	sub    $0x38,%rsp
    39f5:	48 89 7d d8          	mov    %rdi,-0x28(%rbp)
    39f9:	48 89 75 d0          	mov    %rsi,-0x30(%rbp)
    39fd:	48 89 55 c8          	mov    %rdx,-0x38(%rbp)
    3a01:	64 48 8b 04 25 28 00 	mov    %fs:0x28,%rax
    3a08:	00 00 
    3a0a:	48 89 45 e8          	mov    %rax,-0x18(%rbp)
    3a0e:	31 c0                	xor    %eax,%eax
    3a10:	48 8b 5d d8          	mov    -0x28(%rbp),%rbx
    3a14:	48 8d 45 e7          	lea    -0x19(%rbp),%rax
    3a18:	48 89 c7             	mov    %rax,%rdi
    3a1b:	e8 f0 db ff ff       	callq  1610 <_ZNSaIcEC1Ev@plt>
    3a20:	48 8b 45 d0          	mov    -0x30(%rbp),%rax
    3a24:	48 89 c7             	mov    %rax,%rdi
    3a27:	e8 b2 ff ff ff       	callq  39de <_ZSt7forwardIRA12_KcEOT_RNSt16remove_referenceIS3_E4typeE>
    3a2c:	48 89 c1             	mov    %rax,%rcx
    3a2f:	48 8d 45 e7          	lea    -0x19(%rbp),%rax
    3a33:	48 89 c2             	mov    %rax,%rdx
    3a36:	48 89 ce             	mov    %rcx,%rsi
    3a39:	48 89 df             	mov    %rbx,%rdi
    3a3c:	e8 5f db ff ff       	callq  15a0 <_ZNSt7__cxx1112basic_stringIcSt11char_traitsIcESaIcEEC1EPKcRKS3_@plt>
    3a41:	48 8d 45 e7          	lea    -0x19(%rbp),%rax
    3a45:	48 89 c7             	mov    %rax,%rdi
    3a48:	e8 03 db ff ff       	callq  1550 <_ZNSaIcED1Ev@plt>
    3a4d:	48 8b 45 c8          	mov    -0x38(%rbp),%rax
    3a51:	48 89 c7             	mov    %rax,%rdi
    3a54:	e8 31 04 00 00       	callq  3e8a <_ZSt7forwardImEOT_RNSt16remove_referenceIS0_E4typeE>
    3a59:	48 8b 10             	mov    (%rax),%rdx
    3a5c:	48 8b 45 d8          	mov    -0x28(%rbp),%rax
    3a60:	48 89 50 20          	mov    %rdx,0x20(%rax)
    3a64:	90                   	nop
    3a65:	48 8b 45 e8          	mov    -0x18(%rbp),%rax
    3a69:	64 48 33 04 25 28 00 	xor    %fs:0x28,%rax
    3a70:	00 00 
    3a72:	74 21                	je     3a95 <_ZNSt4pairIKNSt7__cxx1112basic_stringIcSt11char_traitsIcESaIcEEEmEC1IRA12_KcmLb1EEEOT_OT0_+0xa9>
    3a74:	eb 1a                	jmp    3a90 <_ZNSt4pairIKNSt7__cxx1112basic_stringIcSt11char_traitsIcESaIcEEEmEC1IRA12_KcmLb1EEEOT_OT0_+0xa4>
    3a76:	48 89 c3             	mov    %rax,%rbx
    3a79:	48 8d 45 e7          	lea    -0x19(%rbp),%rax
    3a7d:	48 89 c7             	mov    %rax,%rdi
    3a80:	e8 cb da ff ff       	callq  1550 <_ZNSaIcED1Ev@plt>
    3a85:	48 89 d8             	mov    %rbx,%rax
    3a88:	48 89 c7             	mov    %rax,%rdi
    3a8b:	e8 70 db ff ff       	callq  1600 <_Unwind_Resume@plt>
    3a90:	e8 cb da ff ff       	callq  1560 <__stack_chk_fail@plt>
    3a95:	48 83 c4 38          	add    $0x38,%rsp
    3a99:	5b                   	pop    %rbx
    3a9a:	5d                   	pop    %rbp
    3a9b:	c3                   	retq   

0000000000003a9c <_ZNSt4pairIKNSt7__cxx1112basic_stringIcSt11char_traitsIcESaIcEEEmEC1IRA13_KcmLb1EEEOT_OT0_>:
    3a9c:	55                   	push   %rbp
    3a9d:	48 89 e5             	mov    %rsp,%rbp
    3aa0:	53                   	push   %rbx
    3aa1:	48 83 ec 38          	sub    $0x38,%rsp
    3aa5:	48 89 7d d8          	mov    %rdi,-0x28(%rbp)
    3aa9:	48 89 75 d0          	mov    %rsi,-0x30(%rbp)
    3aad:	48 89 55 c8          	mov    %rdx,-0x38(%rbp)
    3ab1:	64 48 8b 04 25 28 00 	mov    %fs:0x28,%rax
    3ab8:	00 00 
    3aba:	48 89 45 e8          	mov    %rax,-0x18(%rbp)
    3abe:	31 c0                	xor    %eax,%eax
    3ac0:	48 8b 5d d8          	mov    -0x28(%rbp),%rbx
    3ac4:	48 8d 45 e7          	lea    -0x19(%rbp),%rax
    3ac8:	48 89 c7             	mov    %rax,%rdi
    3acb:	e8 40 db ff ff       	callq  1610 <_ZNSaIcEC1Ev@plt>
    3ad0:	48 8b 45 d0          	mov    -0x30(%rbp),%rax
    3ad4:	48 89 c7             	mov    %rax,%rdi
    3ad7:	e8 29 f9 ff ff       	callq  3405 <_ZSt7forwardIRA13_KcEOT_RNSt16remove_referenceIS3_E4typeE>
    3adc:	48 89 c1             	mov    %rax,%rcx
    3adf:	48 8d 45 e7          	lea    -0x19(%rbp),%rax
    3ae3:	48 89 c2             	mov    %rax,%rdx
    3ae6:	48 89 ce             	mov    %rcx,%rsi
    3ae9:	48 89 df             	mov    %rbx,%rdi
    3aec:	e8 af da ff ff       	callq  15a0 <_ZNSt7__cxx1112basic_stringIcSt11char_traitsIcESaIcEEC1EPKcRKS3_@plt>
    3af1:	48 8d 45 e7          	lea    -0x19(%rbp),%rax
    3af5:	48 89 c7             	mov    %rax,%rdi
    3af8:	e8 53 da ff ff       	callq  1550 <_ZNSaIcED1Ev@plt>
    3afd:	48 8b 45 c8          	mov    -0x38(%rbp),%rax
    3b01:	48 89 c7             	mov    %rax,%rdi
    3b04:	e8 81 03 00 00       	callq  3e8a <_ZSt7forwardImEOT_RNSt16remove_referenceIS0_E4typeE>
    3b09:	48 8b 10             	mov    (%rax),%rdx
    3b0c:	48 8b 45 d8          	mov    -0x28(%rbp),%rax
    3b10:	48 89 50 20          	mov    %rdx,0x20(%rax)
    3b14:	90                   	nop
    3b15:	48 8b 45 e8          	mov    -0x18(%rbp),%rax
    3b19:	64 48 33 04 25 28 00 	xor    %fs:0x28,%rax
    3b20:	00 00 
    3b22:	74 21                	je     3b45 <_ZNSt4pairIKNSt7__cxx1112basic_stringIcSt11char_traitsIcESaIcEEEmEC1IRA13_KcmLb1EEEOT_OT0_+0xa9>
    3b24:	eb 1a                	jmp    3b40 <_ZNSt4pairIKNSt7__cxx1112basic_stringIcSt11char_traitsIcESaIcEEEmEC1IRA13_KcmLb1EEEOT_OT0_+0xa4>
    3b26:	48 89 c3             	mov    %rax,%rbx
    3b29:	48 8d 45 e7          	lea    -0x19(%rbp),%rax
    3b2d:	48 89 c7             	mov    %rax,%rdi
    3b30:	e8 1b da ff ff       	callq  1550 <_ZNSaIcED1Ev@plt>
    3b35:	48 89 d8             	mov    %rbx,%rax
    3b38:	48 89 c7             	mov    %rax,%rdi
    3b3b:	e8 c0 da ff ff       	callq  1600 <_Unwind_Resume@plt>
    3b40:	e8 1b da ff ff       	callq  1560 <__stack_chk_fail@plt>
    3b45:	48 83 c4 38          	add    $0x38,%rsp
    3b49:	5b                   	pop    %rbx
    3b4a:	5d                   	pop    %rbp
    3b4b:	c3                   	retq   

0000000000003b4c <_ZSt7forwardIRA14_KcEOT_RNSt16remove_referenceIS3_E4typeE>:
    3b4c:	55                   	push   %rbp
    3b4d:	48 89 e5             	mov    %rsp,%rbp
    3b50:	48 89 7d f8          	mov    %rdi,-0x8(%rbp)
    3b54:	48 8b 45 f8          	mov    -0x8(%rbp),%rax
    3b58:	5d                   	pop    %rbp
    3b59:	c3                   	retq   

0000000000003b5a <_ZNSt4pairIKNSt7__cxx1112basic_stringIcSt11char_traitsIcESaIcEEEmEC1IRA14_KcmLb1EEEOT_OT0_>:
    3b5a:	55                   	push   %rbp
    3b5b:	48 89 e5             	mov    %rsp,%rbp
    3b5e:	53                   	push   %rbx
    3b5f:	48 83 ec 38          	sub    $0x38,%rsp
    3b63:	48 89 7d d8          	mov    %rdi,-0x28(%rbp)
    3b67:	48 89 75 d0          	mov    %rsi,-0x30(%rbp)
    3b6b:	48 89 55 c8          	mov    %rdx,-0x38(%rbp)
    3b6f:	64 48 8b 04 25 28 00 	mov    %fs:0x28,%rax
    3b76:	00 00 
    3b78:	48 89 45 e8          	mov    %rax,-0x18(%rbp)
    3b7c:	31 c0                	xor    %eax,%eax
    3b7e:	48 8b 5d d8          	mov    -0x28(%rbp),%rbx
    3b82:	48 8d 45 e7          	lea    -0x19(%rbp),%rax
    3b86:	48 89 c7             	mov    %rax,%rdi
    3b89:	e8 82 da ff ff       	callq  1610 <_ZNSaIcEC1Ev@plt>
    3b8e:	48 8b 45 d0          	mov    -0x30(%rbp),%rax
    3b92:	48 89 c7             	mov    %rax,%rdi
    3b95:	e8 b2 ff ff ff       	callq  3b4c <_ZSt7forwardIRA14_KcEOT_RNSt16remove_referenceIS3_E4typeE>
    3b9a:	48 89 c1             	mov    %rax,%rcx
    3b9d:	48 8d 45 e7          	lea    -0x19(%rbp),%rax
    3ba1:	48 89 c2             	mov    %rax,%rdx
    3ba4:	48 89 ce             	mov    %rcx,%rsi
    3ba7:	48 89 df             	mov    %rbx,%rdi
    3baa:	e8 f1 d9 ff ff       	callq  15a0 <_ZNSt7__cxx1112basic_stringIcSt11char_traitsIcESaIcEEC1EPKcRKS3_@plt>
    3baf:	48 8d 45 e7          	lea    -0x19(%rbp),%rax
    3bb3:	48 89 c7             	mov    %rax,%rdi
    3bb6:	e8 95 d9 ff ff       	callq  1550 <_ZNSaIcED1Ev@plt>
    3bbb:	48 8b 45 c8          	mov    -0x38(%rbp),%rax
    3bbf:	48 89 c7             	mov    %rax,%rdi
    3bc2:	e8 c3 02 00 00       	callq  3e8a <_ZSt7forwardImEOT_RNSt16remove_referenceIS0_E4typeE>
    3bc7:	48 8b 10             	mov    (%rax),%rdx
    3bca:	48 8b 45 d8          	mov    -0x28(%rbp),%rax
    3bce:	48 89 50 20          	mov    %rdx,0x20(%rax)
    3bd2:	90                   	nop
    3bd3:	48 8b 45 e8          	mov    -0x18(%rbp),%rax
    3bd7:	64 48 33 04 25 28 00 	xor    %fs:0x28,%rax
    3bde:	00 00 
    3be0:	74 21                	je     3c03 <_ZNSt4pairIKNSt7__cxx1112basic_stringIcSt11char_traitsIcESaIcEEEmEC1IRA14_KcmLb1EEEOT_OT0_+0xa9>
    3be2:	eb 1a                	jmp    3bfe <_ZNSt4pairIKNSt7__cxx1112basic_stringIcSt11char_traitsIcESaIcEEEmEC1IRA14_KcmLb1EEEOT_OT0_+0xa4>
    3be4:	48 89 c3             	mov    %rax,%rbx
    3be7:	48 8d 45 e7          	lea    -0x19(%rbp),%rax
    3beb:	48 89 c7             	mov    %rax,%rdi
    3bee:	e8 5d d9 ff ff       	callq  1550 <_ZNSaIcED1Ev@plt>
    3bf3:	48 89 d8             	mov    %rbx,%rax
    3bf6:	48 89 c7             	mov    %rax,%rdi
    3bf9:	e8 02 da ff ff       	callq  1600 <_Unwind_Resume@plt>
    3bfe:	e8 5d d9 ff ff       	callq  1560 <__stack_chk_fail@plt>
    3c03:	48 83 c4 38          	add    $0x38,%rsp
    3c07:	5b                   	pop    %rbx
    3c08:	5d                   	pop    %rbp
    3c09:	c3                   	retq   

0000000000003c0a <_ZSt7forwardIRA19_KcEOT_RNSt16remove_referenceIS3_E4typeE>:
    3c0a:	55                   	push   %rbp
    3c0b:	48 89 e5             	mov    %rsp,%rbp
    3c0e:	48 89 7d f8          	mov    %rdi,-0x8(%rbp)
    3c12:	48 8b 45 f8          	mov    -0x8(%rbp),%rax
    3c16:	5d                   	pop    %rbp
    3c17:	c3                   	retq   

0000000000003c18 <_ZNSt4pairIKNSt7__cxx1112basic_stringIcSt11char_traitsIcESaIcEEEmEC1IRA19_KcmLb1EEEOT_OT0_>:
    3c18:	55                   	push   %rbp
    3c19:	48 89 e5             	mov    %rsp,%rbp
    3c1c:	53                   	push   %rbx
    3c1d:	48 83 ec 38          	sub    $0x38,%rsp
    3c21:	48 89 7d d8          	mov    %rdi,-0x28(%rbp)
    3c25:	48 89 75 d0          	mov    %rsi,-0x30(%rbp)
    3c29:	48 89 55 c8          	mov    %rdx,-0x38(%rbp)
    3c2d:	64 48 8b 04 25 28 00 	mov    %fs:0x28,%rax
    3c34:	00 00 
    3c36:	48 89 45 e8          	mov    %rax,-0x18(%rbp)
    3c3a:	31 c0                	xor    %eax,%eax
    3c3c:	48 8b 5d d8          	mov    -0x28(%rbp),%rbx
    3c40:	48 8d 45 e7          	lea    -0x19(%rbp),%rax
    3c44:	48 89 c7             	mov    %rax,%rdi
    3c47:	e8 c4 d9 ff ff       	callq  1610 <_ZNSaIcEC1Ev@plt>
    3c4c:	48 8b 45 d0          	mov    -0x30(%rbp),%rax
    3c50:	48 89 c7             	mov    %rax,%rdi
    3c53:	e8 b2 ff ff ff       	callq  3c0a <_ZSt7forwardIRA19_KcEOT_RNSt16remove_referenceIS3_E4typeE>
    3c58:	48 89 c1             	mov    %rax,%rcx
    3c5b:	48 8d 45 e7          	lea    -0x19(%rbp),%rax
    3c5f:	48 89 c2             	mov    %rax,%rdx
    3c62:	48 89 ce             	mov    %rcx,%rsi
    3c65:	48 89 df             	mov    %rbx,%rdi
    3c68:	e8 33 d9 ff ff       	callq  15a0 <_ZNSt7__cxx1112basic_stringIcSt11char_traitsIcESaIcEEC1EPKcRKS3_@plt>
    3c6d:	48 8d 45 e7          	lea    -0x19(%rbp),%rax
    3c71:	48 89 c7             	mov    %rax,%rdi
    3c74:	e8 d7 d8 ff ff       	callq  1550 <_ZNSaIcED1Ev@plt>
    3c79:	48 8b 45 c8          	mov    -0x38(%rbp),%rax
    3c7d:	48 89 c7             	mov    %rax,%rdi
    3c80:	e8 05 02 00 00       	callq  3e8a <_ZSt7forwardImEOT_RNSt16remove_referenceIS0_E4typeE>
    3c85:	48 8b 10             	mov    (%rax),%rdx
    3c88:	48 8b 45 d8          	mov    -0x28(%rbp),%rax
    3c8c:	48 89 50 20          	mov    %rdx,0x20(%rax)
    3c90:	90                   	nop
    3c91:	48 8b 45 e8          	mov    -0x18(%rbp),%rax
    3c95:	64 48 33 04 25 28 00 	xor    %fs:0x28,%rax
    3c9c:	00 00 
    3c9e:	74 21                	je     3cc1 <_ZNSt4pairIKNSt7__cxx1112basic_stringIcSt11char_traitsIcESaIcEEEmEC1IRA19_KcmLb1EEEOT_OT0_+0xa9>
    3ca0:	eb 1a                	jmp    3cbc <_ZNSt4pairIKNSt7__cxx1112basic_stringIcSt11char_traitsIcESaIcEEEmEC1IRA19_KcmLb1EEEOT_OT0_+0xa4>
    3ca2:	48 89 c3             	mov    %rax,%rbx
    3ca5:	48 8d 45 e7          	lea    -0x19(%rbp),%rax
    3ca9:	48 89 c7             	mov    %rax,%rdi
    3cac:	e8 9f d8 ff ff       	callq  1550 <_ZNSaIcED1Ev@plt>
    3cb1:	48 89 d8             	mov    %rbx,%rax
    3cb4:	48 89 c7             	mov    %rax,%rdi
    3cb7:	e8 44 d9 ff ff       	callq  1600 <_Unwind_Resume@plt>
    3cbc:	e8 9f d8 ff ff       	callq  1560 <__stack_chk_fail@plt>
    3cc1:	48 83 c4 38          	add    $0x38,%rsp
    3cc5:	5b                   	pop    %rbx
    3cc6:	5d                   	pop    %rbp
    3cc7:	c3                   	retq   

0000000000003cc8 <_ZSt7forwardIRA8_KcEOT_RNSt16remove_referenceIS3_E4typeE>:
    3cc8:	55                   	push   %rbp
    3cc9:	48 89 e5             	mov    %rsp,%rbp
    3ccc:	48 89 7d f8          	mov    %rdi,-0x8(%rbp)
    3cd0:	48 8b 45 f8          	mov    -0x8(%rbp),%rax
    3cd4:	5d                   	pop    %rbp
    3cd5:	c3                   	retq   

0000000000003cd6 <_ZNSt4pairIKNSt7__cxx1112basic_stringIcSt11char_traitsIcESaIcEEEmEC1IRA8_KcmLb1EEEOT_OT0_>:
    3cd6:	55                   	push   %rbp
    3cd7:	48 89 e5             	mov    %rsp,%rbp
    3cda:	53                   	push   %rbx
    3cdb:	48 83 ec 38          	sub    $0x38,%rsp
    3cdf:	48 89 7d d8          	mov    %rdi,-0x28(%rbp)
    3ce3:	48 89 75 d0          	mov    %rsi,-0x30(%rbp)
    3ce7:	48 89 55 c8          	mov    %rdx,-0x38(%rbp)
    3ceb:	64 48 8b 04 25 28 00 	mov    %fs:0x28,%rax
    3cf2:	00 00 
    3cf4:	48 89 45 e8          	mov    %rax,-0x18(%rbp)
    3cf8:	31 c0                	xor    %eax,%eax
    3cfa:	48 8b 5d d8          	mov    -0x28(%rbp),%rbx
    3cfe:	48 8d 45 e7          	lea    -0x19(%rbp),%rax
    3d02:	48 89 c7             	mov    %rax,%rdi
    3d05:	e8 06 d9 ff ff       	callq  1610 <_ZNSaIcEC1Ev@plt>
    3d0a:	48 8b 45 d0          	mov    -0x30(%rbp),%rax
    3d0e:	48 89 c7             	mov    %rax,%rdi
    3d11:	e8 b2 ff ff ff       	callq  3cc8 <_ZSt7forwardIRA8_KcEOT_RNSt16remove_referenceIS3_E4typeE>
    3d16:	48 89 c1             	mov    %rax,%rcx
    3d19:	48 8d 45 e7          	lea    -0x19(%rbp),%rax
    3d1d:	48 89 c2             	mov    %rax,%rdx
    3d20:	48 89 ce             	mov    %rcx,%rsi
    3d23:	48 89 df             	mov    %rbx,%rdi
    3d26:	e8 75 d8 ff ff       	callq  15a0 <_ZNSt7__cxx1112basic_stringIcSt11char_traitsIcESaIcEEC1EPKcRKS3_@plt>
    3d2b:	48 8d 45 e7          	lea    -0x19(%rbp),%rax
    3d2f:	48 89 c7             	mov    %rax,%rdi
    3d32:	e8 19 d8 ff ff       	callq  1550 <_ZNSaIcED1Ev@plt>
    3d37:	48 8b 45 c8          	mov    -0x38(%rbp),%rax
    3d3b:	48 89 c7             	mov    %rax,%rdi
    3d3e:	e8 47 01 00 00       	callq  3e8a <_ZSt7forwardImEOT_RNSt16remove_referenceIS0_E4typeE>
    3d43:	48 8b 10             	mov    (%rax),%rdx
    3d46:	48 8b 45 d8          	mov    -0x28(%rbp),%rax
    3d4a:	48 89 50 20          	mov    %rdx,0x20(%rax)
    3d4e:	90                   	nop
    3d4f:	48 8b 45 e8          	mov    -0x18(%rbp),%rax
    3d53:	64 48 33 04 25 28 00 	xor    %fs:0x28,%rax
    3d5a:	00 00 
    3d5c:	74 21                	je     3d7f <_ZNSt4pairIKNSt7__cxx1112basic_stringIcSt11char_traitsIcESaIcEEEmEC1IRA8_KcmLb1EEEOT_OT0_+0xa9>
    3d5e:	eb 1a                	jmp    3d7a <_ZNSt4pairIKNSt7__cxx1112basic_stringIcSt11char_traitsIcESaIcEEEmEC1IRA8_KcmLb1EEEOT_OT0_+0xa4>
    3d60:	48 89 c3             	mov    %rax,%rbx
    3d63:	48 8d 45 e7          	lea    -0x19(%rbp),%rax
    3d67:	48 89 c7             	mov    %rax,%rdi
    3d6a:	e8 e1 d7 ff ff       	callq  1550 <_ZNSaIcED1Ev@plt>
    3d6f:	48 89 d8             	mov    %rbx,%rax
    3d72:	48 89 c7             	mov    %rax,%rdi
    3d75:	e8 86 d8 ff ff       	callq  1600 <_Unwind_Resume@plt>
    3d7a:	e8 e1 d7 ff ff       	callq  1560 <__stack_chk_fail@plt>
    3d7f:	48 83 c4 38          	add    $0x38,%rsp
    3d83:	5b                   	pop    %rbx
    3d84:	5d                   	pop    %rbp
    3d85:	c3                   	retq   

0000000000003d86 <_ZSt7forwardIRA9_KcEOT_RNSt16remove_referenceIS3_E4typeE>:
    3d86:	55                   	push   %rbp
    3d87:	48 89 e5             	mov    %rsp,%rbp
    3d8a:	48 89 7d f8          	mov    %rdi,-0x8(%rbp)
    3d8e:	48 8b 45 f8          	mov    -0x8(%rbp),%rax
    3d92:	5d                   	pop    %rbp
    3d93:	c3                   	retq   

0000000000003d94 <_ZNSt4pairIKNSt7__cxx1112basic_stringIcSt11char_traitsIcESaIcEEEmEC1IRA9_KcmLb1EEEOT_OT0_>:
    3d94:	55                   	push   %rbp
    3d95:	48 89 e5             	mov    %rsp,%rbp
    3d98:	53                   	push   %rbx
    3d99:	48 83 ec 38          	sub    $0x38,%rsp
    3d9d:	48 89 7d d8          	mov    %rdi,-0x28(%rbp)
    3da1:	48 89 75 d0          	mov    %rsi,-0x30(%rbp)
    3da5:	48 89 55 c8          	mov    %rdx,-0x38(%rbp)
    3da9:	64 48 8b 04 25 28 00 	mov    %fs:0x28,%rax
    3db0:	00 00 
    3db2:	48 89 45 e8          	mov    %rax,-0x18(%rbp)
    3db6:	31 c0                	xor    %eax,%eax
    3db8:	48 8b 5d d8          	mov    -0x28(%rbp),%rbx
    3dbc:	48 8d 45 e7          	lea    -0x19(%rbp),%rax
    3dc0:	48 89 c7             	mov    %rax,%rdi
    3dc3:	e8 48 d8 ff ff       	callq  1610 <_ZNSaIcEC1Ev@plt>
    3dc8:	48 8b 45 d0          	mov    -0x30(%rbp),%rax
    3dcc:	48 89 c7             	mov    %rax,%rdi
    3dcf:	e8 b2 ff ff ff       	callq  3d86 <_ZSt7forwardIRA9_KcEOT_RNSt16remove_referenceIS3_E4typeE>
    3dd4:	48 89 c1             	mov    %rax,%rcx
    3dd7:	48 8d 45 e7          	lea    -0x19(%rbp),%rax
    3ddb:	48 89 c2             	mov    %rax,%rdx
    3dde:	48 89 ce             	mov    %rcx,%rsi
    3de1:	48 89 df             	mov    %rbx,%rdi
    3de4:	e8 b7 d7 ff ff       	callq  15a0 <_ZNSt7__cxx1112basic_stringIcSt11char_traitsIcESaIcEEC1EPKcRKS3_@plt>
    3de9:	48 8d 45 e7          	lea    -0x19(%rbp),%rax
    3ded:	48 89 c7             	mov    %rax,%rdi
    3df0:	e8 5b d7 ff ff       	callq  1550 <_ZNSaIcED1Ev@plt>
    3df5:	48 8b 45 c8          	mov    -0x38(%rbp),%rax
    3df9:	48 89 c7             	mov    %rax,%rdi
    3dfc:	e8 89 00 00 00       	callq  3e8a <_ZSt7forwardImEOT_RNSt16remove_referenceIS0_E4typeE>
    3e01:	48 8b 10             	mov    (%rax),%rdx
    3e04:	48 8b 45 d8          	mov    -0x28(%rbp),%rax
    3e08:	48 89 50 20          	mov    %rdx,0x20(%rax)
    3e0c:	90                   	nop
    3e0d:	48 8b 45 e8          	mov    -0x18(%rbp),%rax
    3e11:	64 48 33 04 25 28 00 	xor    %fs:0x28,%rax
    3e18:	00 00 
    3e1a:	74 21                	je     3e3d <_ZNSt4pairIKNSt7__cxx1112basic_stringIcSt11char_traitsIcESaIcEEEmEC1IRA9_KcmLb1EEEOT_OT0_+0xa9>
    3e1c:	eb 1a                	jmp    3e38 <_ZNSt4pairIKNSt7__cxx1112basic_stringIcSt11char_traitsIcESaIcEEEmEC1IRA9_KcmLb1EEEOT_OT0_+0xa4>
    3e1e:	48 89 c3             	mov    %rax,%rbx
    3e21:	48 8d 45 e7          	lea    -0x19(%rbp),%rax
    3e25:	48 89 c7             	mov    %rax,%rdi
    3e28:	e8 23 d7 ff ff       	callq  1550 <_ZNSaIcED1Ev@plt>
    3e2d:	48 89 d8             	mov    %rbx,%rax
    3e30:	48 89 c7             	mov    %rax,%rdi
    3e33:	e8 c8 d7 ff ff       	callq  1600 <_Unwind_Resume@plt>
    3e38:	e8 23 d7 ff ff       	callq  1560 <__stack_chk_fail@plt>
    3e3d:	48 83 c4 38          	add    $0x38,%rsp
    3e41:	5b                   	pop    %rbx
    3e42:	5d                   	pop    %rbp
    3e43:	c3                   	retq   

0000000000003e44 <_ZNSt13unordered_mapINSt7__cxx1112basic_stringIcSt11char_traitsIcESaIcEEEmSt4hashIS5_ESt8equal_toIS5_ESaISt4pairIKS5_mEEED1Ev>:
    3e44:	55                   	push   %rbp
    3e45:	48 89 e5             	mov    %rsp,%rbp
    3e48:	48 83 ec 10          	sub    $0x10,%rsp
    3e4c:	48 89 7d f8          	mov    %rdi,-0x8(%rbp)
    3e50:	48 8b 45 f8          	mov    -0x8(%rbp),%rax
    3e54:	48 89 c7             	mov    %rax,%rdi
    3e57:	e8 fa 07 00 00       	callq  4656 <_ZNSt10_HashtableINSt7__cxx1112basic_stringIcSt11char_traitsIcESaIcEEESt4pairIKS5_mESaIS8_ENSt8__detail10_Select1stESt8equal_toIS5_ESt4hashIS5_ENSA_18_Mod_range_hashingENSA_20_Default_ranged_hashENSA_20_Prime_rehash_policyENSA_17_Hashtable_traitsILb1ELb0ELb1EEEED1Ev>
    3e5c:	90                   	nop
    3e5d:	c9                   	leaveq 
    3e5e:	c3                   	retq   

0000000000003e5f <_ZSt3maxImERKT_S2_S2_>:
    3e5f:	55                   	push   %rbp
    3e60:	48 89 e5             	mov    %rsp,%rbp
    3e63:	48 89 7d f8          	mov    %rdi,-0x8(%rbp)
    3e67:	48 89 75 f0          	mov    %rsi,-0x10(%rbp)
    3e6b:	48 8b 45 f8          	mov    -0x8(%rbp),%rax
    3e6f:	48 8b 10             	mov    (%rax),%rdx
    3e72:	48 8b 45 f0          	mov    -0x10(%rbp),%rax
    3e76:	48 8b 00             	mov    (%rax),%rax
    3e79:	48 39 c2             	cmp    %rax,%rdx
    3e7c:	73 06                	jae    3e84 <_ZSt3maxImERKT_S2_S2_+0x25>
    3e7e:	48 8b 45 f0          	mov    -0x10(%rbp),%rax
    3e82:	eb 04                	jmp    3e88 <_ZSt3maxImERKT_S2_S2_+0x29>
    3e84:	48 8b 45 f8          	mov    -0x8(%rbp),%rax
    3e88:	5d                   	pop    %rbp
    3e89:	c3                   	retq   

0000000000003e8a <_ZSt7forwardImEOT_RNSt16remove_referenceIS0_E4typeE>:
    3e8a:	55                   	push   %rbp
    3e8b:	48 89 e5             	mov    %rsp,%rbp
    3e8e:	48 89 7d f8          	mov    %rdi,-0x8(%rbp)
    3e92:	48 8b 45 f8          	mov    -0x8(%rbp),%rax
    3e96:	5d                   	pop    %rbp
    3e97:	c3                   	retq   

0000000000003e98 <_ZNSt4pairIKPKcNSt7__cxx1112basic_stringIcSt11char_traitsIcESaIcEEEEC1IS1_RA11_S0_Lb1EEEOT_OT0_>:
    3e98:	55                   	push   %rbp
    3e99:	48 89 e5             	mov    %rsp,%rbp
    3e9c:	53                   	push   %rbx
    3e9d:	48 83 ec 38          	sub    $0x38,%rsp
    3ea1:	48 89 7d d8          	mov    %rdi,-0x28(%rbp)
    3ea5:	48 89 75 d0          	mov    %rsi,-0x30(%rbp)
    3ea9:	48 89 55 c8          	mov    %rdx,-0x38(%rbp)
    3ead:	64 48 8b 04 25 28 00 	mov    %fs:0x28,%rax
    3eb4:	00 00 
    3eb6:	48 89 45 e8          	mov    %rax,-0x18(%rbp)
    3eba:	31 c0                	xor    %eax,%eax
    3ebc:	48 8b 45 d0          	mov    -0x30(%rbp),%rax
    3ec0:	48 89 c7             	mov    %rax,%rdi
    3ec3:	e8 f3 08 00 00       	callq  47bb <_ZSt7forwardIPKcEOT_RNSt16remove_referenceIS2_E4typeE>
    3ec8:	48 8b 10             	mov    (%rax),%rdx
    3ecb:	48 8b 45 d8          	mov    -0x28(%rbp),%rax
    3ecf:	48 89 10             	mov    %rdx,(%rax)
    3ed2:	48 8b 45 d8          	mov    -0x28(%rbp),%rax
    3ed6:	48 8d 58 08          	lea    0x8(%rax),%rbx
    3eda:	48 8d 45 e7          	lea    -0x19(%rbp),%rax
    3ede:	48 89 c7             	mov    %rax,%rdi
    3ee1:	e8 2a d7 ff ff       	callq  1610 <_ZNSaIcEC1Ev@plt>
    3ee6:	48 8b 45 c8          	mov    -0x38(%rbp),%rax
    3eea:	48 89 c7             	mov    %rax,%rdi
    3eed:	e8 53 f1 ff ff       	callq  3045 <_ZSt7forwardIRA11_KcEOT_RNSt16remove_referenceIS3_E4typeE>
    3ef2:	48 89 c1             	mov    %rax,%rcx
    3ef5:	48 8d 45 e7          	lea    -0x19(%rbp),%rax
    3ef9:	48 89 c2             	mov    %rax,%rdx
    3efc:	48 89 ce             	mov    %rcx,%rsi
    3eff:	48 89 df             	mov    %rbx,%rdi
    3f02:	e8 99 d6 ff ff       	callq  15a0 <_ZNSt7__cxx1112basic_stringIcSt11char_traitsIcESaIcEEC1EPKcRKS3_@plt>
    3f07:	48 8d 45 e7          	lea    -0x19(%rbp),%rax
    3f0b:	48 89 c7             	mov    %rax,%rdi
    3f0e:	e8 3d d6 ff ff       	callq  1550 <_ZNSaIcED1Ev@plt>
    3f13:	90                   	nop
    3f14:	48 8b 45 e8          	mov    -0x18(%rbp),%rax
    3f18:	64 48 33 04 25 28 00 	xor    %fs:0x28,%rax
    3f1f:	00 00 
    3f21:	74 21                	je     3f44 <_ZNSt4pairIKPKcNSt7__cxx1112basic_stringIcSt11char_traitsIcESaIcEEEEC1IS1_RA11_S0_Lb1EEEOT_OT0_+0xac>
    3f23:	eb 1a                	jmp    3f3f <_ZNSt4pairIKPKcNSt7__cxx1112basic_stringIcSt11char_traitsIcESaIcEEEEC1IS1_RA11_S0_Lb1EEEOT_OT0_+0xa7>
    3f25:	48 89 c3             	mov    %rax,%rbx
    3f28:	48 8d 45 e7          	lea    -0x19(%rbp),%rax
    3f2c:	48 89 c7             	mov    %rax,%rdi
    3f2f:	e8 1c d6 ff ff       	callq  1550 <_ZNSaIcED1Ev@plt>
    3f34:	48 89 d8             	mov    %rbx,%rax
    3f37:	48 89 c7             	mov    %rax,%rdi
    3f3a:	e8 c1 d6 ff ff       	callq  1600 <_Unwind_Resume@plt>
    3f3f:	e8 1c d6 ff ff       	callq  1560 <__stack_chk_fail@plt>
    3f44:	48 83 c4 38          	add    $0x38,%rsp
    3f48:	5b                   	pop    %rbx
    3f49:	5d                   	pop    %rbp
    3f4a:	c3                   	retq   
    3f4b:	90                   	nop

0000000000003f4c <_ZNSt4pairIKPKcNSt7__cxx1112basic_stringIcSt11char_traitsIcESaIcEEEEC1IS1_RA5_S0_Lb1EEEOT_OT0_>:
    3f4c:	55                   	push   %rbp
    3f4d:	48 89 e5             	mov    %rsp,%rbp
    3f50:	53                   	push   %rbx
    3f51:	48 83 ec 38          	sub    $0x38,%rsp
    3f55:	48 89 7d d8          	mov    %rdi,-0x28(%rbp)
    3f59:	48 89 75 d0          	mov    %rsi,-0x30(%rbp)
    3f5d:	48 89 55 c8          	mov    %rdx,-0x38(%rbp)
    3f61:	64 48 8b 04 25 28 00 	mov    %fs:0x28,%rax
    3f68:	00 00 
    3f6a:	48 89 45 e8          	mov    %rax,-0x18(%rbp)
    3f6e:	31 c0                	xor    %eax,%eax
    3f70:	48 8b 45 d0          	mov    -0x30(%rbp),%rax
    3f74:	48 89 c7             	mov    %rax,%rdi
    3f77:	e8 3f 08 00 00       	callq  47bb <_ZSt7forwardIPKcEOT_RNSt16remove_referenceIS2_E4typeE>
    3f7c:	48 8b 10             	mov    (%rax),%rdx
    3f7f:	48 8b 45 d8          	mov    -0x28(%rbp),%rax
    3f83:	48 89 10             	mov    %rdx,(%rax)
    3f86:	48 8b 45 d8          	mov    -0x28(%rbp),%rax
    3f8a:	48 8d 58 08          	lea    0x8(%rax),%rbx
    3f8e:	48 8d 45 e7          	lea    -0x19(%rbp),%rax
    3f92:	48 89 c7             	mov    %rax,%rdi
    3f95:	e8 76 d6 ff ff       	callq  1610 <_ZNSaIcEC1Ev@plt>
    3f9a:	48 8b 45 c8          	mov    -0x38(%rbp),%rax
    3f9e:	48 89 c7             	mov    %rax,%rdi
    3fa1:	e8 5f f1 ff ff       	callq  3105 <_ZSt7forwardIRA5_KcEOT_RNSt16remove_referenceIS3_E4typeE>
    3fa6:	48 89 c1             	mov    %rax,%rcx
    3fa9:	48 8d 45 e7          	lea    -0x19(%rbp),%rax
    3fad:	48 89 c2             	mov    %rax,%rdx
    3fb0:	48 89 ce             	mov    %rcx,%rsi
    3fb3:	48 89 df             	mov    %rbx,%rdi
    3fb6:	e8 e5 d5 ff ff       	callq  15a0 <_ZNSt7__cxx1112basic_stringIcSt11char_traitsIcESaIcEEC1EPKcRKS3_@plt>
    3fbb:	48 8d 45 e7          	lea    -0x19(%rbp),%rax
    3fbf:	48 89 c7             	mov    %rax,%rdi
    3fc2:	e8 89 d5 ff ff       	callq  1550 <_ZNSaIcED1Ev@plt>
    3fc7:	90                   	nop
    3fc8:	48 8b 45 e8          	mov    -0x18(%rbp),%rax
    3fcc:	64 48 33 04 25 28 00 	xor    %fs:0x28,%rax
    3fd3:	00 00 
    3fd5:	74 21                	je     3ff8 <_ZNSt4pairIKPKcNSt7__cxx1112basic_stringIcSt11char_traitsIcESaIcEEEEC1IS1_RA5_S0_Lb1EEEOT_OT0_+0xac>
    3fd7:	eb 1a                	jmp    3ff3 <_ZNSt4pairIKPKcNSt7__cxx1112basic_stringIcSt11char_traitsIcESaIcEEEEC1IS1_RA5_S0_Lb1EEEOT_OT0_+0xa7>
    3fd9:	48 89 c3             	mov    %rax,%rbx
    3fdc:	48 8d 45 e7          	lea    -0x19(%rbp),%rax
    3fe0:	48 89 c7             	mov    %rax,%rdi
    3fe3:	e8 68 d5 ff ff       	callq  1550 <_ZNSaIcED1Ev@plt>
    3fe8:	48 89 d8             	mov    %rbx,%rax
    3feb:	48 89 c7             	mov    %rax,%rdi
    3fee:	e8 0d d6 ff ff       	callq  1600 <_Unwind_Resume@plt>
    3ff3:	e8 68 d5 ff ff       	callq  1560 <__stack_chk_fail@plt>
    3ff8:	48 83 c4 38          	add    $0x38,%rsp
    3ffc:	5b                   	pop    %rbx
    3ffd:	5d                   	pop    %rbp
    3ffe:	c3                   	retq   
    3fff:	90                   	nop

0000000000004000 <_ZNSt4pairIKPKcNSt7__cxx1112basic_stringIcSt11char_traitsIcESaIcEEEEC1IS1_RA10_S0_Lb1EEEOT_OT0_>:
    4000:	55                   	push   %rbp
    4001:	48 89 e5             	mov    %rsp,%rbp
    4004:	53                   	push   %rbx
    4005:	48 83 ec 38          	sub    $0x38,%rsp
    4009:	48 89 7d d8          	mov    %rdi,-0x28(%rbp)
    400d:	48 89 75 d0          	mov    %rsi,-0x30(%rbp)
    4011:	48 89 55 c8          	mov    %rdx,-0x38(%rbp)
    4015:	64 48 8b 04 25 28 00 	mov    %fs:0x28,%rax
    401c:	00 00 
    401e:	48 89 45 e8          	mov    %rax,-0x18(%rbp)
    4022:	31 c0                	xor    %eax,%eax
    4024:	48 8b 45 d0          	mov    -0x30(%rbp),%rax
    4028:	48 89 c7             	mov    %rax,%rdi
    402b:	e8 8b 07 00 00       	callq  47bb <_ZSt7forwardIPKcEOT_RNSt16remove_referenceIS2_E4typeE>
    4030:	48 8b 10             	mov    (%rax),%rdx
    4033:	48 8b 45 d8          	mov    -0x28(%rbp),%rax
    4037:	48 89 10             	mov    %rdx,(%rax)
    403a:	48 8b 45 d8          	mov    -0x28(%rbp),%rax
    403e:	48 8d 58 08          	lea    0x8(%rax),%rbx
    4042:	48 8d 45 e7          	lea    -0x19(%rbp),%rax
    4046:	48 89 c7             	mov    %rax,%rdi
    4049:	e8 c2 d5 ff ff       	callq  1610 <_ZNSaIcEC1Ev@plt>
    404e:	48 8b 45 c8          	mov    -0x38(%rbp),%rax
    4052:	48 89 c7             	mov    %rax,%rdi
    4055:	e8 6b f1 ff ff       	callq  31c5 <_ZSt7forwardIRA10_KcEOT_RNSt16remove_referenceIS3_E4typeE>
    405a:	48 89 c1             	mov    %rax,%rcx
    405d:	48 8d 45 e7          	lea    -0x19(%rbp),%rax
    4061:	48 89 c2             	mov    %rax,%rdx
    4064:	48 89 ce             	mov    %rcx,%rsi
    4067:	48 89 df             	mov    %rbx,%rdi
    406a:	e8 31 d5 ff ff       	callq  15a0 <_ZNSt7__cxx1112basic_stringIcSt11char_traitsIcESaIcEEC1EPKcRKS3_@plt>
    406f:	48 8d 45 e7          	lea    -0x19(%rbp),%rax
    4073:	48 89 c7             	mov    %rax,%rdi
    4076:	e8 d5 d4 ff ff       	callq  1550 <_ZNSaIcED1Ev@plt>
    407b:	90                   	nop
    407c:	48 8b 45 e8          	mov    -0x18(%rbp),%rax
    4080:	64 48 33 04 25 28 00 	xor    %fs:0x28,%rax
    4087:	00 00 
    4089:	74 21                	je     40ac <_ZNSt4pairIKPKcNSt7__cxx1112basic_stringIcSt11char_traitsIcESaIcEEEEC1IS1_RA10_S0_Lb1EEEOT_OT0_+0xac>
    408b:	eb 1a                	jmp    40a7 <_ZNSt4pairIKPKcNSt7__cxx1112basic_stringIcSt11char_traitsIcESaIcEEEEC1IS1_RA10_S0_Lb1EEEOT_OT0_+0xa7>
    408d:	48 89 c3             	mov    %rax,%rbx
    4090:	48 8d 45 e7          	lea    -0x19(%rbp),%rax
    4094:	48 89 c7             	mov    %rax,%rdi
    4097:	e8 b4 d4 ff ff       	callq  1550 <_ZNSaIcED1Ev@plt>
    409c:	48 89 d8             	mov    %rbx,%rax
    409f:	48 89 c7             	mov    %rax,%rdi
    40a2:	e8 59 d5 ff ff       	callq  1600 <_Unwind_Resume@plt>
    40a7:	e8 b4 d4 ff ff       	callq  1560 <__stack_chk_fail@plt>
    40ac:	48 83 c4 38          	add    $0x38,%rsp
    40b0:	5b                   	pop    %rbx
    40b1:	5d                   	pop    %rbp
    40b2:	c3                   	retq   
    40b3:	90                   	nop

00000000000040b4 <_ZNSt4pairIKPKcNSt7__cxx1112basic_stringIcSt11char_traitsIcESaIcEEEEC1IS1_RA6_S0_Lb1EEEOT_OT0_>:
    40b4:	55                   	push   %rbp
    40b5:	48 89 e5             	mov    %rsp,%rbp
    40b8:	53                   	push   %rbx
    40b9:	48 83 ec 38          	sub    $0x38,%rsp
    40bd:	48 89 7d d8          	mov    %rdi,-0x28(%rbp)
    40c1:	48 89 75 d0          	mov    %rsi,-0x30(%rbp)
    40c5:	48 89 55 c8          	mov    %rdx,-0x38(%rbp)
    40c9:	64 48 8b 04 25 28 00 	mov    %fs:0x28,%rax
    40d0:	00 00 
    40d2:	48 89 45 e8          	mov    %rax,-0x18(%rbp)
    40d6:	31 c0                	xor    %eax,%eax
    40d8:	48 8b 45 d0          	mov    -0x30(%rbp),%rax
    40dc:	48 89 c7             	mov    %rax,%rdi
    40df:	e8 d7 06 00 00       	callq  47bb <_ZSt7forwardIPKcEOT_RNSt16remove_referenceIS2_E4typeE>
    40e4:	48 8b 10             	mov    (%rax),%rdx
    40e7:	48 8b 45 d8          	mov    -0x28(%rbp),%rax
    40eb:	48 89 10             	mov    %rdx,(%rax)
    40ee:	48 8b 45 d8          	mov    -0x28(%rbp),%rax
    40f2:	48 8d 58 08          	lea    0x8(%rax),%rbx
    40f6:	48 8d 45 e7          	lea    -0x19(%rbp),%rax
    40fa:	48 89 c7             	mov    %rax,%rdi
    40fd:	e8 0e d5 ff ff       	callq  1610 <_ZNSaIcEC1Ev@plt>
    4102:	48 8b 45 c8          	mov    -0x38(%rbp),%rax
    4106:	48 89 c7             	mov    %rax,%rdi
    4109:	e8 77 f1 ff ff       	callq  3285 <_ZSt7forwardIRA6_KcEOT_RNSt16remove_referenceIS3_E4typeE>
    410e:	48 89 c1             	mov    %rax,%rcx
    4111:	48 8d 45 e7          	lea    -0x19(%rbp),%rax
    4115:	48 89 c2             	mov    %rax,%rdx
    4118:	48 89 ce             	mov    %rcx,%rsi
    411b:	48 89 df             	mov    %rbx,%rdi
    411e:	e8 7d d4 ff ff       	callq  15a0 <_ZNSt7__cxx1112basic_stringIcSt11char_traitsIcESaIcEEC1EPKcRKS3_@plt>
    4123:	48 8d 45 e7          	lea    -0x19(%rbp),%rax
    4127:	48 89 c7             	mov    %rax,%rdi
    412a:	e8 21 d4 ff ff       	callq  1550 <_ZNSaIcED1Ev@plt>
    412f:	90                   	nop
    4130:	48 8b 45 e8          	mov    -0x18(%rbp),%rax
    4134:	64 48 33 04 25 28 00 	xor    %fs:0x28,%rax
    413b:	00 00 
    413d:	74 21                	je     4160 <_ZNSt4pairIKPKcNSt7__cxx1112basic_stringIcSt11char_traitsIcESaIcEEEEC1IS1_RA6_S0_Lb1EEEOT_OT0_+0xac>
    413f:	eb 1a                	jmp    415b <_ZNSt4pairIKPKcNSt7__cxx1112basic_stringIcSt11char_traitsIcESaIcEEEEC1IS1_RA6_S0_Lb1EEEOT_OT0_+0xa7>
    4141:	48 89 c3             	mov    %rax,%rbx
    4144:	48 8d 45 e7          	lea    -0x19(%rbp),%rax
    4148:	48 89 c7             	mov    %rax,%rdi
    414b:	e8 00 d4 ff ff       	callq  1550 <_ZNSaIcED1Ev@plt>
    4150:	48 89 d8             	mov    %rbx,%rax
    4153:	48 89 c7             	mov    %rax,%rdi
    4156:	e8 a5 d4 ff ff       	callq  1600 <_Unwind_Resume@plt>
    415b:	e8 00 d4 ff ff       	callq  1560 <__stack_chk_fail@plt>
    4160:	48 83 c4 38          	add    $0x38,%rsp
    4164:	5b                   	pop    %rbx
    4165:	5d                   	pop    %rbp
    4166:	c3                   	retq   
    4167:	90                   	nop

0000000000004168 <_ZNSt4pairIKPKcNSt7__cxx1112basic_stringIcSt11char_traitsIcESaIcEEEEC1IS1_RA7_S0_Lb1EEEOT_OT0_>:
    4168:	55                   	push   %rbp
    4169:	48 89 e5             	mov    %rsp,%rbp
    416c:	53                   	push   %rbx
    416d:	48 83 ec 38          	sub    $0x38,%rsp
    4171:	48 89 7d d8          	mov    %rdi,-0x28(%rbp)
    4175:	48 89 75 d0          	mov    %rsi,-0x30(%rbp)
    4179:	48 89 55 c8          	mov    %rdx,-0x38(%rbp)
    417d:	64 48 8b 04 25 28 00 	mov    %fs:0x28,%rax
    4184:	00 00 
    4186:	48 89 45 e8          	mov    %rax,-0x18(%rbp)
    418a:	31 c0                	xor    %eax,%eax
    418c:	48 8b 45 d0          	mov    -0x30(%rbp),%rax
    4190:	48 89 c7             	mov    %rax,%rdi
    4193:	e8 23 06 00 00       	callq  47bb <_ZSt7forwardIPKcEOT_RNSt16remove_referenceIS2_E4typeE>
    4198:	48 8b 10             	mov    (%rax),%rdx
    419b:	48 8b 45 d8          	mov    -0x28(%rbp),%rax
    419f:	48 89 10             	mov    %rdx,(%rax)
    41a2:	48 8b 45 d8          	mov    -0x28(%rbp),%rax
    41a6:	48 8d 58 08          	lea    0x8(%rax),%rbx
    41aa:	48 8d 45 e7          	lea    -0x19(%rbp),%rax
    41ae:	48 89 c7             	mov    %rax,%rdi
    41b1:	e8 5a d4 ff ff       	callq  1610 <_ZNSaIcEC1Ev@plt>
    41b6:	48 8b 45 c8          	mov    -0x38(%rbp),%rax
    41ba:	48 89 c7             	mov    %rax,%rdi
    41bd:	e8 83 f1 ff ff       	callq  3345 <_ZSt7forwardIRA7_KcEOT_RNSt16remove_referenceIS3_E4typeE>
    41c2:	48 89 c1             	mov    %rax,%rcx
    41c5:	48 8d 45 e7          	lea    -0x19(%rbp),%rax
    41c9:	48 89 c2             	mov    %rax,%rdx
    41cc:	48 89 ce             	mov    %rcx,%rsi
    41cf:	48 89 df             	mov    %rbx,%rdi
    41d2:	e8 c9 d3 ff ff       	callq  15a0 <_ZNSt7__cxx1112basic_stringIcSt11char_traitsIcESaIcEEC1EPKcRKS3_@plt>
    41d7:	48 8d 45 e7          	lea    -0x19(%rbp),%rax
    41db:	48 89 c7             	mov    %rax,%rdi
    41de:	e8 6d d3 ff ff       	callq  1550 <_ZNSaIcED1Ev@plt>
    41e3:	90                   	nop
    41e4:	48 8b 45 e8          	mov    -0x18(%rbp),%rax
    41e8:	64 48 33 04 25 28 00 	xor    %fs:0x28,%rax
    41ef:	00 00 
    41f1:	74 21                	je     4214 <_ZNSt4pairIKPKcNSt7__cxx1112basic_stringIcSt11char_traitsIcESaIcEEEEC1IS1_RA7_S0_Lb1EEEOT_OT0_+0xac>
    41f3:	eb 1a                	jmp    420f <_ZNSt4pairIKPKcNSt7__cxx1112basic_stringIcSt11char_traitsIcESaIcEEEEC1IS1_RA7_S0_Lb1EEEOT_OT0_+0xa7>
    41f5:	48 89 c3             	mov    %rax,%rbx
    41f8:	48 8d 45 e7          	lea    -0x19(%rbp),%rax
    41fc:	48 89 c7             	mov    %rax,%rdi
    41ff:	e8 4c d3 ff ff       	callq  1550 <_ZNSaIcED1Ev@plt>
    4204:	48 89 d8             	mov    %rbx,%rax
    4207:	48 89 c7             	mov    %rax,%rdi
    420a:	e8 f1 d3 ff ff       	callq  1600 <_Unwind_Resume@plt>
    420f:	e8 4c d3 ff ff       	callq  1560 <__stack_chk_fail@plt>
    4214:	48 83 c4 38          	add    $0x38,%rsp
    4218:	5b                   	pop    %rbx
    4219:	5d                   	pop    %rbp
    421a:	c3                   	retq   
    421b:	90                   	nop

000000000000421c <_ZNSt4pairIKPKcNSt7__cxx1112basic_stringIcSt11char_traitsIcESaIcEEEEC1IS1_RA13_S0_Lb1EEEOT_OT0_>:
    421c:	55                   	push   %rbp
    421d:	48 89 e5             	mov    %rsp,%rbp
    4220:	53                   	push   %rbx
    4221:	48 83 ec 38          	sub    $0x38,%rsp
    4225:	48 89 7d d8          	mov    %rdi,-0x28(%rbp)
    4229:	48 89 75 d0          	mov    %rsi,-0x30(%rbp)
    422d:	48 89 55 c8          	mov    %rdx,-0x38(%rbp)
    4231:	64 48 8b 04 25 28 00 	mov    %fs:0x28,%rax
    4238:	00 00 
    423a:	48 89 45 e8          	mov    %rax,-0x18(%rbp)
    423e:	31 c0                	xor    %eax,%eax
    4240:	48 8b 45 d0          	mov    -0x30(%rbp),%rax
    4244:	48 89 c7             	mov    %rax,%rdi
    4247:	e8 6f 05 00 00       	callq  47bb <_ZSt7forwardIPKcEOT_RNSt16remove_referenceIS2_E4typeE>
    424c:	48 8b 10             	mov    (%rax),%rdx
    424f:	48 8b 45 d8          	mov    -0x28(%rbp),%rax
    4253:	48 89 10             	mov    %rdx,(%rax)
    4256:	48 8b 45 d8          	mov    -0x28(%rbp),%rax
    425a:	48 8d 58 08          	lea    0x8(%rax),%rbx
    425e:	48 8d 45 e7          	lea    -0x19(%rbp),%rax
    4262:	48 89 c7             	mov    %rax,%rdi
    4265:	e8 a6 d3 ff ff       	callq  1610 <_ZNSaIcEC1Ev@plt>
    426a:	48 8b 45 c8          	mov    -0x38(%rbp),%rax
    426e:	48 89 c7             	mov    %rax,%rdi
    4271:	e8 8f f1 ff ff       	callq  3405 <_ZSt7forwardIRA13_KcEOT_RNSt16remove_referenceIS3_E4typeE>
    4276:	48 89 c1             	mov    %rax,%rcx
    4279:	48 8d 45 e7          	lea    -0x19(%rbp),%rax
    427d:	48 89 c2             	mov    %rax,%rdx
    4280:	48 89 ce             	mov    %rcx,%rsi
    4283:	48 89 df             	mov    %rbx,%rdi
    4286:	e8 15 d3 ff ff       	callq  15a0 <_ZNSt7__cxx1112basic_stringIcSt11char_traitsIcESaIcEEC1EPKcRKS3_@plt>
    428b:	48 8d 45 e7          	lea    -0x19(%rbp),%rax
    428f:	48 89 c7             	mov    %rax,%rdi
    4292:	e8 b9 d2 ff ff       	callq  1550 <_ZNSaIcED1Ev@plt>
    4297:	90                   	nop
    4298:	48 8b 45 e8          	mov    -0x18(%rbp),%rax
    429c:	64 48 33 04 25 28 00 	xor    %fs:0x28,%rax
    42a3:	00 00 
    42a5:	74 21                	je     42c8 <_ZNSt4pairIKPKcNSt7__cxx1112basic_stringIcSt11char_traitsIcESaIcEEEEC1IS1_RA13_S0_Lb1EEEOT_OT0_+0xac>
    42a7:	eb 1a                	jmp    42c3 <_ZNSt4pairIKPKcNSt7__cxx1112basic_stringIcSt11char_traitsIcESaIcEEEEC1IS1_RA13_S0_Lb1EEEOT_OT0_+0xa7>
    42a9:	48 89 c3             	mov    %rax,%rbx
    42ac:	48 8d 45 e7          	lea    -0x19(%rbp),%rax
    42b0:	48 89 c7             	mov    %rax,%rdi
    42b3:	e8 98 d2 ff ff       	callq  1550 <_ZNSaIcED1Ev@plt>
    42b8:	48 89 d8             	mov    %rbx,%rax
    42bb:	48 89 c7             	mov    %rax,%rdi
    42be:	e8 3d d3 ff ff       	callq  1600 <_Unwind_Resume@plt>
    42c3:	e8 98 d2 ff ff       	callq  1560 <__stack_chk_fail@plt>
    42c8:	48 83 c4 38          	add    $0x38,%rsp
    42cc:	5b                   	pop    %rbx
    42cd:	5d                   	pop    %rbp
    42ce:	c3                   	retq   
    42cf:	90                   	nop

00000000000042d0 <_ZNSt4pairIKPKcNSt7__cxx1112basic_stringIcSt11char_traitsIcESaIcEEEEC1IS1_RA15_S0_Lb1EEEOT_OT0_>:
    42d0:	55                   	push   %rbp
    42d1:	48 89 e5             	mov    %rsp,%rbp
    42d4:	53                   	push   %rbx
    42d5:	48 83 ec 38          	sub    $0x38,%rsp
    42d9:	48 89 7d d8          	mov    %rdi,-0x28(%rbp)
    42dd:	48 89 75 d0          	mov    %rsi,-0x30(%rbp)
    42e1:	48 89 55 c8          	mov    %rdx,-0x38(%rbp)
    42e5:	64 48 8b 04 25 28 00 	mov    %fs:0x28,%rax
    42ec:	00 00 
    42ee:	48 89 45 e8          	mov    %rax,-0x18(%rbp)
    42f2:	31 c0                	xor    %eax,%eax
    42f4:	48 8b 45 d0          	mov    -0x30(%rbp),%rax
    42f8:	48 89 c7             	mov    %rax,%rdi
    42fb:	e8 bb 04 00 00       	callq  47bb <_ZSt7forwardIPKcEOT_RNSt16remove_referenceIS2_E4typeE>
    4300:	48 8b 10             	mov    (%rax),%rdx
    4303:	48 8b 45 d8          	mov    -0x28(%rbp),%rax
    4307:	48 89 10             	mov    %rdx,(%rax)
    430a:	48 8b 45 d8          	mov    -0x28(%rbp),%rax
    430e:	48 8d 58 08          	lea    0x8(%rax),%rbx
    4312:	48 8d 45 e7          	lea    -0x19(%rbp),%rax
    4316:	48 89 c7             	mov    %rax,%rdi
    4319:	e8 f2 d2 ff ff       	callq  1610 <_ZNSaIcEC1Ev@plt>
    431e:	48 8b 45 c8          	mov    -0x38(%rbp),%rax
    4322:	48 89 c7             	mov    %rax,%rdi
    4325:	e8 9b f1 ff ff       	callq  34c5 <_ZSt7forwardIRA15_KcEOT_RNSt16remove_referenceIS3_E4typeE>
    432a:	48 89 c1             	mov    %rax,%rcx
    432d:	48 8d 45 e7          	lea    -0x19(%rbp),%rax
    4331:	48 89 c2             	mov    %rax,%rdx
    4334:	48 89 ce             	mov    %rcx,%rsi
    4337:	48 89 df             	mov    %rbx,%rdi
    433a:	e8 61 d2 ff ff       	callq  15a0 <_ZNSt7__cxx1112basic_stringIcSt11char_traitsIcESaIcEEC1EPKcRKS3_@plt>
    433f:	48 8d 45 e7          	lea    -0x19(%rbp),%rax
    4343:	48 89 c7             	mov    %rax,%rdi
    4346:	e8 05 d2 ff ff       	callq  1550 <_ZNSaIcED1Ev@plt>
    434b:	90                   	nop
    434c:	48 8b 45 e8          	mov    -0x18(%rbp),%rax
    4350:	64 48 33 04 25 28 00 	xor    %fs:0x28,%rax
    4357:	00 00 
    4359:	74 21                	je     437c <_ZNSt4pairIKPKcNSt7__cxx1112basic_stringIcSt11char_traitsIcESaIcEEEEC1IS1_RA15_S0_Lb1EEEOT_OT0_+0xac>
    435b:	eb 1a                	jmp    4377 <_ZNSt4pairIKPKcNSt7__cxx1112basic_stringIcSt11char_traitsIcESaIcEEEEC1IS1_RA15_S0_Lb1EEEOT_OT0_+0xa7>
    435d:	48 89 c3             	mov    %rax,%rbx
    4360:	48 8d 45 e7          	lea    -0x19(%rbp),%rax
    4364:	48 89 c7             	mov    %rax,%rdi
    4367:	e8 e4 d1 ff ff       	callq  1550 <_ZNSaIcED1Ev@plt>
    436c:	48 89 d8             	mov    %rbx,%rax
    436f:	48 89 c7             	mov    %rax,%rdi
    4372:	e8 89 d2 ff ff       	callq  1600 <_Unwind_Resume@plt>
    4377:	e8 e4 d1 ff ff       	callq  1560 <__stack_chk_fail@plt>
    437c:	48 83 c4 38          	add    $0x38,%rsp
    4380:	5b                   	pop    %rbx
    4381:	5d                   	pop    %rbp
    4382:	c3                   	retq   
    4383:	90                   	nop

0000000000004384 <_ZNSaISt4pairIKPKcNSt7__cxx1112basic_stringIcSt11char_traitsIcESaIcEEEEEC1Ev>:
    4384:	55                   	push   %rbp
    4385:	48 89 e5             	mov    %rsp,%rbp
    4388:	48 83 ec 10          	sub    $0x10,%rsp
    438c:	48 89 7d f8          	mov    %rdi,-0x8(%rbp)
    4390:	48 8b 45 f8          	mov    -0x8(%rbp),%rax
    4394:	48 89 c7             	mov    %rax,%rdi
    4397:	e8 2e 04 00 00       	callq  47ca <_ZN9__gnu_cxx13new_allocatorISt4pairIKPKcNSt7__cxx1112basic_stringIcSt11char_traitsIcESaIcEEEEEC1Ev>
    439c:	90                   	nop
    439d:	c9                   	leaveq 
    439e:	c3                   	retq   
    439f:	90                   	nop

00000000000043a0 <_ZNSaISt4pairIKPKcNSt7__cxx1112basic_stringIcSt11char_traitsIcESaIcEEEEED1Ev>:
    43a0:	55                   	push   %rbp
    43a1:	48 89 e5             	mov    %rsp,%rbp
    43a4:	48 83 ec 10          	sub    $0x10,%rsp
    43a8:	48 89 7d f8          	mov    %rdi,-0x8(%rbp)
    43ac:	48 8b 45 f8          	mov    -0x8(%rbp),%rax
    43b0:	48 89 c7             	mov    %rax,%rdi
    43b3:	e8 1e 04 00 00       	callq  47d6 <_ZN9__gnu_cxx13new_allocatorISt4pairIKPKcNSt7__cxx1112basic_stringIcSt11char_traitsIcESaIcEEEEED1Ev>
    43b8:	90                   	nop
    43b9:	c9                   	leaveq 
    43ba:	c3                   	retq   
    43bb:	90                   	nop

00000000000043bc <_ZNSt13unordered_mapIPKcNSt7__cxx1112basic_stringIcSt11char_traitsIcESaIcEEESt4hashIS1_ESt8equal_toIS1_ESaISt4pairIKS1_S7_EEEC1ESt16initializer_listISE_EmRKS9_RKSB_RKSF_>:
    43bc:	55                   	push   %rbp
    43bd:	48 89 e5             	mov    %rsp,%rbp
    43c0:	48 83 ec 30          	sub    $0x30,%rsp
    43c4:	48 89 7d f8          	mov    %rdi,-0x8(%rbp)
    43c8:	48 89 f0             	mov    %rsi,%rax
    43cb:	48 89 d6             	mov    %rdx,%rsi
    43ce:	48 89 f2             	mov    %rsi,%rdx
    43d1:	48 89 45 e0          	mov    %rax,-0x20(%rbp)
    43d5:	48 89 55 e8          	mov    %rdx,-0x18(%rbp)
    43d9:	48 89 4d f0          	mov    %rcx,-0x10(%rbp)
    43dd:	4c 89 45 d8          	mov    %r8,-0x28(%rbp)
    43e1:	4c 89 4d d0          	mov    %r9,-0x30(%rbp)
    43e5:	48 8b 45 f8          	mov    -0x8(%rbp),%rax
    43e9:	4c 8b 45 d0          	mov    -0x30(%rbp),%r8
    43ed:	48 8b 7d d8          	mov    -0x28(%rbp),%rdi
    43f1:	48 8b 4d f0          	mov    -0x10(%rbp),%rcx
    43f5:	48 8b 75 e0          	mov    -0x20(%rbp),%rsi
    43f9:	48 8b 55 e8          	mov    -0x18(%rbp),%rdx
    43fd:	48 83 ec 08          	sub    $0x8,%rsp
    4401:	ff 75 10             	pushq  0x10(%rbp)
    4404:	4d 89 c1             	mov    %r8,%r9
    4407:	49 89 f8             	mov    %rdi,%r8
    440a:	48 89 c7             	mov    %rax,%rdi
    440d:	e8 26 04 00 00       	callq  4838 <_ZNSt10_HashtableIPKcSt4pairIKS1_NSt7__cxx1112basic_stringIcSt11char_traitsIcESaIcEEEESaISA_ENSt8__detail10_Select1stESt8equal_toIS1_ESt4hashIS1_ENSC_18_Mod_range_hashingENSC_20_Default_ranged_hashENSC_20_Prime_rehash_policyENSC_17_Hashtable_traitsILb0ELb0ELb1EEEEC1ESt16initializer_listISA_EmRKSH_RKSF_RKSB_>
    4412:	48 83 c4 10          	add    $0x10,%rsp
    4416:	90                   	nop
    4417:	c9                   	leaveq 
    4418:	c3                   	retq   
    4419:	90                   	nop

000000000000441a <_ZNSt8__detail21_Hashtable_ebo_helperILi0ESaINS_10_Hash_nodeISt4pairIKPKcNSt7__cxx1112basic_stringIcSt11char_traitsIcESaIcEEEELb0EEEELb1EED1Ev>:
    441a:	55                   	push   %rbp
    441b:	48 89 e5             	mov    %rsp,%rbp
    441e:	48 83 ec 10          	sub    $0x10,%rsp
    4422:	48 89 7d f8          	mov    %rdi,-0x8(%rbp)
    4426:	48 8b 45 f8          	mov    -0x8(%rbp),%rax
    442a:	48 89 c7             	mov    %rax,%rdi
    442d:	e8 bc 04 00 00       	callq  48ee <_ZNSaINSt8__detail10_Hash_nodeISt4pairIKPKcNSt7__cxx1112basic_stringIcSt11char_traitsIcESaIcEEEELb0EEEED1Ev>
    4432:	90                   	nop
    4433:	c9                   	leaveq 
    4434:	c3                   	retq   
    4435:	90                   	nop

0000000000004436 <_ZNSt8__detail16_Hashtable_allocISaINS_10_Hash_nodeISt4pairIKPKcNSt7__cxx1112basic_stringIcSt11char_traitsIcESaIcEEEELb0EEEEED1Ev>:
    4436:	55                   	push   %rbp
    4437:	48 89 e5             	mov    %rsp,%rbp
    443a:	48 83 ec 10          	sub    $0x10,%rsp
    443e:	48 89 7d f8          	mov    %rdi,-0x8(%rbp)
    4442:	48 8b 45 f8          	mov    -0x8(%rbp),%rax
    4446:	48 89 c7             	mov    %rax,%rdi
    4449:	e8 cc ff ff ff       	callq  441a <_ZNSt8__detail21_Hashtable_ebo_helperILi0ESaINS_10_Hash_nodeISt4pairIKPKcNSt7__cxx1112basic_stringIcSt11char_traitsIcESaIcEEEELb0EEEELb1EED1Ev>
    444e:	90                   	nop
    444f:	c9                   	leaveq 
    4450:	c3                   	retq   
    4451:	90                   	nop

0000000000004452 <_ZNSt10_HashtableIPKcSt4pairIKS1_NSt7__cxx1112basic_stringIcSt11char_traitsIcESaIcEEEESaISA_ENSt8__detail10_Select1stESt8equal_toIS1_ESt4hashIS1_ENSC_18_Mod_range_hashingENSC_20_Default_ranged_hashENSC_20_Prime_rehash_policyENSC_17_Hashtable_traitsILb0ELb0ELb1EEEED1Ev>:
    4452:	55                   	push   %rbp
    4453:	48 89 e5             	mov    %rsp,%rbp
    4456:	48 83 ec 10          	sub    $0x10,%rsp
    445a:	48 89 7d f8          	mov    %rdi,-0x8(%rbp)
    445e:	48 8b 45 f8          	mov    -0x8(%rbp),%rax
    4462:	48 89 c7             	mov    %rax,%rdi
    4465:	e8 a0 04 00 00       	callq  490a <_ZNSt10_HashtableIPKcSt4pairIKS1_NSt7__cxx1112basic_stringIcSt11char_traitsIcESaIcEEEESaISA_ENSt8__detail10_Select1stESt8equal_toIS1_ESt4hashIS1_ENSC_18_Mod_range_hashingENSC_20_Default_ranged_hashENSC_20_Prime_rehash_policyENSC_17_Hashtable_traitsILb0ELb0ELb1EEEE5clearEv>
    446a:	48 8b 45 f8          	mov    -0x8(%rbp),%rax
    446e:	48 89 c7             	mov    %rax,%rdi
    4471:	e8 fe 04 00 00       	callq  4974 <_ZNSt10_HashtableIPKcSt4pairIKS1_NSt7__cxx1112basic_stringIcSt11char_traitsIcESaIcEEEESaISA_ENSt8__detail10_Select1stESt8equal_toIS1_ESt4hashIS1_ENSC_18_Mod_range_hashingENSC_20_Default_ranged_hashENSC_20_Prime_rehash_policyENSC_17_Hashtable_traitsILb0ELb0ELb1EEEE21_M_deallocate_bucketsEv>
    4476:	48 8b 45 f8          	mov    -0x8(%rbp),%rax
    447a:	48 89 c7             	mov    %rax,%rdi
    447d:	e8 b4 ff ff ff       	callq  4436 <_ZNSt8__detail16_Hashtable_allocISaINS_10_Hash_nodeISt4pairIKPKcNSt7__cxx1112basic_stringIcSt11char_traitsIcESaIcEEEELb0EEEEED1Ev>
    4482:	90                   	nop
    4483:	c9                   	leaveq 
    4484:	c3                   	retq   
    4485:	90                   	nop

0000000000004486 <_ZNSaISt4pairIKiNSt7__cxx1112basic_stringIcSt11char_traitsIcESaIcEEEEEC1Ev>:
    4486:	55                   	push   %rbp
    4487:	48 89 e5             	mov    %rsp,%rbp
    448a:	48 83 ec 10          	sub    $0x10,%rsp
    448e:	48 89 7d f8          	mov    %rdi,-0x8(%rbp)
    4492:	48 8b 45 f8          	mov    -0x8(%rbp),%rax
    4496:	48 89 c7             	mov    %rax,%rdi
    4499:	e8 04 05 00 00       	callq  49a2 <_ZN9__gnu_cxx13new_allocatorISt4pairIKiNSt7__cxx1112basic_stringIcSt11char_traitsIcESaIcEEEEEC1Ev>
    449e:	90                   	nop
    449f:	c9                   	leaveq 
    44a0:	c3                   	retq   
    44a1:	90                   	nop

00000000000044a2 <_ZNSaISt4pairIKiNSt7__cxx1112basic_stringIcSt11char_traitsIcESaIcEEEEED1Ev>:
    44a2:	55                   	push   %rbp
    44a3:	48 89 e5             	mov    %rsp,%rbp
    44a6:	48 83 ec 10          	sub    $0x10,%rsp
    44aa:	48 89 7d f8          	mov    %rdi,-0x8(%rbp)
    44ae:	48 8b 45 f8          	mov    -0x8(%rbp),%rax
    44b2:	48 89 c7             	mov    %rax,%rdi
    44b5:	e8 f4 04 00 00       	callq  49ae <_ZN9__gnu_cxx13new_allocatorISt4pairIKiNSt7__cxx1112basic_stringIcSt11char_traitsIcESaIcEEEEED1Ev>
    44ba:	90                   	nop
    44bb:	c9                   	leaveq 
    44bc:	c3                   	retq   
    44bd:	90                   	nop

00000000000044be <_ZNSt13unordered_mapIiNSt7__cxx1112basic_stringIcSt11char_traitsIcESaIcEEESt4hashIiESt8equal_toIiESaISt4pairIKiS5_EEEC1ESt16initializer_listISC_EmRKS7_RKS9_RKSD_>:
    44be:	55                   	push   %rbp
    44bf:	48 89 e5             	mov    %rsp,%rbp
    44c2:	48 83 ec 30          	sub    $0x30,%rsp
    44c6:	48 89 7d f8          	mov    %rdi,-0x8(%rbp)
    44ca:	48 89 f0             	mov    %rsi,%rax
    44cd:	48 89 d6             	mov    %rdx,%rsi
    44d0:	48 89 f2             	mov    %rsi,%rdx
    44d3:	48 89 45 e0          	mov    %rax,-0x20(%rbp)
    44d7:	48 89 55 e8          	mov    %rdx,-0x18(%rbp)
    44db:	48 89 4d f0          	mov    %rcx,-0x10(%rbp)
    44df:	4c 89 45 d8          	mov    %r8,-0x28(%rbp)
    44e3:	4c 89 4d d0          	mov    %r9,-0x30(%rbp)
    44e7:	48 8b 45 f8          	mov    -0x8(%rbp),%rax
    44eb:	4c 8b 45 d0          	mov    -0x30(%rbp),%r8
    44ef:	48 8b 7d d8          	mov    -0x28(%rbp),%rdi
    44f3:	48 8b 4d f0          	mov    -0x10(%rbp),%rcx
    44f7:	48 8b 75 e0          	mov    -0x20(%rbp),%rsi
    44fb:	48 8b 55 e8          	mov    -0x18(%rbp),%rdx
    44ff:	48 83 ec 08          	sub    $0x8,%rsp
    4503:	ff 75 10             	pushq  0x10(%rbp)
    4506:	4d 89 c1             	mov    %r8,%r9
    4509:	49 89 f8             	mov    %rdi,%r8
    450c:	48 89 c7             	mov    %rax,%rdi
    450f:	e8 fc 04 00 00       	callq  4a10 <_ZNSt10_HashtableIiSt4pairIKiNSt7__cxx1112basic_stringIcSt11char_traitsIcESaIcEEEESaIS8_ENSt8__detail10_Select1stESt8equal_toIiESt4hashIiENSA_18_Mod_range_hashingENSA_20_Default_ranged_hashENSA_20_Prime_rehash_policyENSA_17_Hashtable_traitsILb0ELb0ELb1EEEEC1ESt16initializer_listIS8_EmRKSF_RKSD_RKS9_>
    4514:	48 83 c4 10          	add    $0x10,%rsp
    4518:	90                   	nop
    4519:	c9                   	leaveq 
    451a:	c3                   	retq   
    451b:	90                   	nop

000000000000451c <_ZNSt8__detail21_Hashtable_ebo_helperILi0ESaINS_10_Hash_nodeISt4pairIKiNSt7__cxx1112basic_stringIcSt11char_traitsIcESaIcEEEELb0EEEELb1EED1Ev>:
    451c:	55                   	push   %rbp
    451d:	48 89 e5             	mov    %rsp,%rbp
    4520:	48 83 ec 10          	sub    $0x10,%rsp
    4524:	48 89 7d f8          	mov    %rdi,-0x8(%rbp)
    4528:	48 8b 45 f8          	mov    -0x8(%rbp),%rax
    452c:	48 89 c7             	mov    %rax,%rdi
    452f:	e8 92 05 00 00       	callq  4ac6 <_ZNSaINSt8__detail10_Hash_nodeISt4pairIKiNSt7__cxx1112basic_stringIcSt11char_traitsIcESaIcEEEELb0EEEED1Ev>
    4534:	90                   	nop
    4535:	c9                   	leaveq 
    4536:	c3                   	retq   
    4537:	90                   	nop

0000000000004538 <_ZNSt8__detail16_Hashtable_allocISaINS_10_Hash_nodeISt4pairIKiNSt7__cxx1112basic_stringIcSt11char_traitsIcESaIcEEEELb0EEEEED1Ev>:
    4538:	55                   	push   %rbp
    4539:	48 89 e5             	mov    %rsp,%rbp
    453c:	48 83 ec 10          	sub    $0x10,%rsp
    4540:	48 89 7d f8          	mov    %rdi,-0x8(%rbp)
    4544:	48 8b 45 f8          	mov    -0x8(%rbp),%rax
    4548:	48 89 c7             	mov    %rax,%rdi
    454b:	e8 cc ff ff ff       	callq  451c <_ZNSt8__detail21_Hashtable_ebo_helperILi0ESaINS_10_Hash_nodeISt4pairIKiNSt7__cxx1112basic_stringIcSt11char_traitsIcESaIcEEEELb0EEEELb1EED1Ev>
    4550:	90                   	nop
    4551:	c9                   	leaveq 
    4552:	c3                   	retq   
    4553:	90                   	nop

0000000000004554 <_ZNSt10_HashtableIiSt4pairIKiNSt7__cxx1112basic_stringIcSt11char_traitsIcESaIcEEEESaIS8_ENSt8__detail10_Select1stESt8equal_toIiESt4hashIiENSA_18_Mod_range_hashingENSA_20_Default_ranged_hashENSA_20_Prime_rehash_policyENSA_17_Hashtable_traitsILb0ELb0ELb1EEEED1Ev>:
    4554:	55                   	push   %rbp
    4555:	48 89 e5             	mov    %rsp,%rbp
    4558:	48 83 ec 10          	sub    $0x10,%rsp
    455c:	48 89 7d f8          	mov    %rdi,-0x8(%rbp)
    4560:	48 8b 45 f8          	mov    -0x8(%rbp),%rax
    4564:	48 89 c7             	mov    %rax,%rdi
    4567:	e8 76 05 00 00       	callq  4ae2 <_ZNSt10_HashtableIiSt4pairIKiNSt7__cxx1112basic_stringIcSt11char_traitsIcESaIcEEEESaIS8_ENSt8__detail10_Select1stESt8equal_toIiESt4hashIiENSA_18_Mod_range_hashingENSA_20_Default_ranged_hashENSA_20_Prime_rehash_policyENSA_17_Hashtable_traitsILb0ELb0ELb1EEEE5clearEv>
    456c:	48 8b 45 f8          	mov    -0x8(%rbp),%rax
    4570:	48 89 c7             	mov    %rax,%rdi
    4573:	e8 d4 05 00 00       	callq  4b4c <_ZNSt10_HashtableIiSt4pairIKiNSt7__cxx1112basic_stringIcSt11char_traitsIcESaIcEEEESaIS8_ENSt8__detail10_Select1stESt8equal_toIiESt4hashIiENSA_18_Mod_range_hashingENSA_20_Default_ranged_hashENSA_20_Prime_rehash_policyENSA_17_Hashtable_traitsILb0ELb0ELb1EEEE21_M_deallocate_bucketsEv>
    4578:	48 8b 45 f8          	mov    -0x8(%rbp),%rax
    457c:	48 89 c7             	mov    %rax,%rdi
    457f:	e8 b4 ff ff ff       	callq  4538 <_ZNSt8__detail16_Hashtable_allocISaINS_10_Hash_nodeISt4pairIKiNSt7__cxx1112basic_stringIcSt11char_traitsIcESaIcEEEELb0EEEEED1Ev>
    4584:	90                   	nop
    4585:	c9                   	leaveq 
    4586:	c3                   	retq   
    4587:	90                   	nop

0000000000004588 <_ZNSaISt4pairIKNSt7__cxx1112basic_stringIcSt11char_traitsIcESaIcEEEmEEC1Ev>:
    4588:	55                   	push   %rbp
    4589:	48 89 e5             	mov    %rsp,%rbp
    458c:	48 83 ec 10          	sub    $0x10,%rsp
    4590:	48 89 7d f8          	mov    %rdi,-0x8(%rbp)
    4594:	48 8b 45 f8          	mov    -0x8(%rbp),%rax
    4598:	48 89 c7             	mov    %rax,%rdi
    459b:	e8 da 05 00 00       	callq  4b7a <_ZN9__gnu_cxx13new_allocatorISt4pairIKNSt7__cxx1112basic_stringIcSt11char_traitsIcESaIcEEEmEEC1Ev>
    45a0:	90                   	nop
    45a1:	c9                   	leaveq 
    45a2:	c3                   	retq   
    45a3:	90                   	nop

00000000000045a4 <_ZNSaISt4pairIKNSt7__cxx1112basic_stringIcSt11char_traitsIcESaIcEEEmEED1Ev>:
    45a4:	55                   	push   %rbp
    45a5:	48 89 e5             	mov    %rsp,%rbp
    45a8:	48 83 ec 10          	sub    $0x10,%rsp
    45ac:	48 89 7d f8          	mov    %rdi,-0x8(%rbp)
    45b0:	48 8b 45 f8          	mov    -0x8(%rbp),%rax
    45b4:	48 89 c7             	mov    %rax,%rdi
    45b7:	e8 ca 05 00 00       	callq  4b86 <_ZN9__gnu_cxx13new_allocatorISt4pairIKNSt7__cxx1112basic_stringIcSt11char_traitsIcESaIcEEEmEED1Ev>
    45bc:	90                   	nop
    45bd:	c9                   	leaveq 
    45be:	c3                   	retq   
    45bf:	90                   	nop

00000000000045c0 <_ZNSt13unordered_mapINSt7__cxx1112basic_stringIcSt11char_traitsIcESaIcEEEmSt4hashIS5_ESt8equal_toIS5_ESaISt4pairIKS5_mEEEC1ESt16initializer_listISC_EmRKS7_RKS9_RKSD_>:
    45c0:	55                   	push   %rbp
    45c1:	48 89 e5             	mov    %rsp,%rbp
    45c4:	48 83 ec 30          	sub    $0x30,%rsp
    45c8:	48 89 7d f8          	mov    %rdi,-0x8(%rbp)
    45cc:	48 89 f0             	mov    %rsi,%rax
    45cf:	48 89 d6             	mov    %rdx,%rsi
    45d2:	48 89 f2             	mov    %rsi,%rdx
    45d5:	48 89 45 e0          	mov    %rax,-0x20(%rbp)
    45d9:	48 89 55 e8          	mov    %rdx,-0x18(%rbp)
    45dd:	48 89 4d f0          	mov    %rcx,-0x10(%rbp)
    45e1:	4c 89 45 d8          	mov    %r8,-0x28(%rbp)
    45e5:	4c 89 4d d0          	mov    %r9,-0x30(%rbp)
    45e9:	48 8b 45 f8          	mov    -0x8(%rbp),%rax
    45ed:	4c 8b 45 d0          	mov    -0x30(%rbp),%r8
    45f1:	48 8b 7d d8          	mov    -0x28(%rbp),%rdi
    45f5:	48 8b 4d f0          	mov    -0x10(%rbp),%rcx
    45f9:	48 8b 75 e0          	mov    -0x20(%rbp),%rsi
    45fd:	48 8b 55 e8          	mov    -0x18(%rbp),%rdx
    4601:	48 83 ec 08          	sub    $0x8,%rsp
    4605:	ff 75 10             	pushq  0x10(%rbp)
    4608:	4d 89 c1             	mov    %r8,%r9
    460b:	49 89 f8             	mov    %rdi,%r8
    460e:	48 89 c7             	mov    %rax,%rdi
    4611:	e8 d2 05 00 00       	callq  4be8 <_ZNSt10_HashtableINSt7__cxx1112basic_stringIcSt11char_traitsIcESaIcEEESt4pairIKS5_mESaIS8_ENSt8__detail10_Select1stESt8equal_toIS5_ESt4hashIS5_ENSA_18_Mod_range_hashingENSA_20_Default_ranged_hashENSA_20_Prime_rehash_policyENSA_17_Hashtable_traitsILb1ELb0ELb1EEEEC1ESt16initializer_listIS8_EmRKSF_RKSD_RKS9_>
    4616:	48 83 c4 10          	add    $0x10,%rsp
    461a:	90                   	nop
    461b:	c9                   	leaveq 
    461c:	c3                   	retq   
    461d:	90                   	nop

000000000000461e <_ZNSt8__detail21_Hashtable_ebo_helperILi0ESaINS_10_Hash_nodeISt4pairIKNSt7__cxx1112basic_stringIcSt11char_traitsIcESaIcEEEmELb1EEEELb1EED1Ev>:
    461e:	55                   	push   %rbp
    461f:	48 89 e5             	mov    %rsp,%rbp
    4622:	48 83 ec 10          	sub    $0x10,%rsp
    4626:	48 89 7d f8          	mov    %rdi,-0x8(%rbp)
    462a:	48 8b 45 f8          	mov    -0x8(%rbp),%rax
    462e:	48 89 c7             	mov    %rax,%rdi
    4631:	e8 68 06 00 00       	callq  4c9e <_ZNSaINSt8__detail10_Hash_nodeISt4pairIKNSt7__cxx1112basic_stringIcSt11char_traitsIcESaIcEEEmELb1EEEED1Ev>
    4636:	90                   	nop
    4637:	c9                   	leaveq 
    4638:	c3                   	retq   
    4639:	90                   	nop

000000000000463a <_ZNSt8__detail16_Hashtable_allocISaINS_10_Hash_nodeISt4pairIKNSt7__cxx1112basic_stringIcSt11char_traitsIcESaIcEEEmELb1EEEEED1Ev>:
    463a:	55                   	push   %rbp
    463b:	48 89 e5             	mov    %rsp,%rbp
    463e:	48 83 ec 10          	sub    $0x10,%rsp
    4642:	48 89 7d f8          	mov    %rdi,-0x8(%rbp)
    4646:	48 8b 45 f8          	mov    -0x8(%rbp),%rax
    464a:	48 89 c7             	mov    %rax,%rdi
    464d:	e8 cc ff ff ff       	callq  461e <_ZNSt8__detail21_Hashtable_ebo_helperILi0ESaINS_10_Hash_nodeISt4pairIKNSt7__cxx1112basic_stringIcSt11char_traitsIcESaIcEEEmELb1EEEELb1EED1Ev>
    4652:	90                   	nop
    4653:	c9                   	leaveq 
    4654:	c3                   	retq   
    4655:	90                   	nop

0000000000004656 <_ZNSt10_HashtableINSt7__cxx1112basic_stringIcSt11char_traitsIcESaIcEEESt4pairIKS5_mESaIS8_ENSt8__detail10_Select1stESt8equal_toIS5_ESt4hashIS5_ENSA_18_Mod_range_hashingENSA_20_Default_ranged_hashENSA_20_Prime_rehash_policyENSA_17_Hashtable_traitsILb1ELb0ELb1EEEED1Ev>:
    4656:	55                   	push   %rbp
    4657:	48 89 e5             	mov    %rsp,%rbp
    465a:	48 83 ec 10          	sub    $0x10,%rsp
    465e:	48 89 7d f8          	mov    %rdi,-0x8(%rbp)
    4662:	48 8b 45 f8          	mov    -0x8(%rbp),%rax
    4666:	48 89 c7             	mov    %rax,%rdi
    4669:	e8 4c 06 00 00       	callq  4cba <_ZNSt10_HashtableINSt7__cxx1112basic_stringIcSt11char_traitsIcESaIcEEESt4pairIKS5_mESaIS8_ENSt8__detail10_Select1stESt8equal_toIS5_ESt4hashIS5_ENSA_18_Mod_range_hashingENSA_20_Default_ranged_hashENSA_20_Prime_rehash_policyENSA_17_Hashtable_traitsILb1ELb0ELb1EEEE5clearEv>
    466e:	48 8b 45 f8          	mov    -0x8(%rbp),%rax
    4672:	48 89 c7             	mov    %rax,%rdi
    4675:	e8 aa 06 00 00       	callq  4d24 <_ZNSt10_HashtableINSt7__cxx1112basic_stringIcSt11char_traitsIcESaIcEEESt4pairIKS5_mESaIS8_ENSt8__detail10_Select1stESt8equal_toIS5_ESt4hashIS5_ENSA_18_Mod_range_hashingENSA_20_Default_ranged_hashENSA_20_Prime_rehash_policyENSA_17_Hashtable_traitsILb1ELb0ELb1EEEE21_M_deallocate_bucketsEv>
    467a:	48 8b 45 f8          	mov    -0x8(%rbp),%rax
    467e:	48 89 c7             	mov    %rax,%rdi
    4681:	e8 b4 ff ff ff       	callq  463a <_ZNSt8__detail16_Hashtable_allocISaINS_10_Hash_nodeISt4pairIKNSt7__cxx1112basic_stringIcSt11char_traitsIcESaIcEEEmELb1EEEEED1Ev>
    4686:	90                   	nop
    4687:	c9                   	leaveq 
    4688:	c3                   	retq   

0000000000004689 <_Z7getKey1IPKcENSt7__cxx1112basic_stringIcSt11char_traitsIcESaIcEEET_>:
    4689:	55                   	push   %rbp
    468a:	48 89 e5             	mov    %rsp,%rbp
    468d:	48 83 ec 20          	sub    $0x20,%rsp
    4691:	48 89 7d e8          	mov    %rdi,-0x18(%rbp)
    4695:	48 89 75 e0          	mov    %rsi,-0x20(%rbp)
    4699:	64 48 8b 04 25 28 00 	mov    %fs:0x28,%rax
    46a0:	00 00 
    46a2:	48 89 45 f8          	mov    %rax,-0x8(%rbp)
    46a6:	31 c0                	xor    %eax,%eax
    46a8:	48 8d 45 e0          	lea    -0x20(%rbp),%rax
    46ac:	48 89 c6             	mov    %rax,%rsi
    46af:	48 8d 3d aa ba 20 00 	lea    0x20baaa(%rip),%rdi        # 210160 <_Z5type1B5cxx11>
    46b6:	e8 97 06 00 00       	callq  4d52 <_ZNSt13unordered_mapIPKcNSt7__cxx1112basic_stringIcSt11char_traitsIcESaIcEEESt4hashIS1_ESt8equal_toIS1_ESaISt4pairIKS1_S7_EEE4findERSD_>
    46bb:	48 89 45 f0          	mov    %rax,-0x10(%rbp)
    46bf:	48 8d 45 f0          	lea    -0x10(%rbp),%rax
    46c3:	48 89 c7             	mov    %rax,%rdi
    46c6:	e8 ad 06 00 00       	callq  4d78 <_ZNKSt8__detail14_Node_iteratorISt4pairIKPKcNSt7__cxx1112basic_stringIcSt11char_traitsIcESaIcEEEELb0ELb0EEptEv>
    46cb:	48 8d 50 08          	lea    0x8(%rax),%rdx
    46cf:	48 8b 45 e8          	mov    -0x18(%rbp),%rax
    46d3:	48 89 d6             	mov    %rdx,%rsi
    46d6:	48 89 c7             	mov    %rax,%rdi
    46d9:	e8 a2 cd ff ff       	callq  1480 <_ZNSt7__cxx1112basic_stringIcSt11char_traitsIcESaIcEEC1ERKS4_@plt>
    46de:	48 8b 45 e8          	mov    -0x18(%rbp),%rax
    46e2:	48 8b 4d f8          	mov    -0x8(%rbp),%rcx
    46e6:	64 48 33 0c 25 28 00 	xor    %fs:0x28,%rcx
    46ed:	00 00 
    46ef:	74 05                	je     46f6 <_Z7getKey1IPKcENSt7__cxx1112basic_stringIcSt11char_traitsIcESaIcEEET_+0x6d>
    46f1:	e8 6a ce ff ff       	callq  1560 <__stack_chk_fail@plt>
    46f6:	c9                   	leaveq 
    46f7:	c3                   	retq   

00000000000046f8 <_ZNSt13unordered_mapINSt7__cxx1112basic_stringIcSt11char_traitsIcESaIcEEEmSt4hashIS5_ESt8equal_toIS5_ESaISt4pairIKS5_mEEE5beginEv>:
    46f8:	55                   	push   %rbp
    46f9:	48 89 e5             	mov    %rsp,%rbp
    46fc:	48 83 ec 10          	sub    $0x10,%rsp
    4700:	48 89 7d f8          	mov    %rdi,-0x8(%rbp)
    4704:	48 8b 45 f8          	mov    -0x8(%rbp),%rax
    4708:	48 89 c7             	mov    %rax,%rdi
    470b:	e8 86 06 00 00       	callq  4d96 <_ZNSt10_HashtableINSt7__cxx1112basic_stringIcSt11char_traitsIcESaIcEEESt4pairIKS5_mESaIS8_ENSt8__detail10_Select1stESt8equal_toIS5_ESt4hashIS5_ENSA_18_Mod_range_hashingENSA_20_Default_ranged_hashENSA_20_Prime_rehash_policyENSA_17_Hashtable_traitsILb1ELb0ELb1EEEE5beginEv>
    4710:	c9                   	leaveq 
    4711:	c3                   	retq   

0000000000004712 <_ZNSt13unordered_mapINSt7__cxx1112basic_stringIcSt11char_traitsIcESaIcEEEmSt4hashIS5_ESt8equal_toIS5_ESaISt4pairIKS5_mEEE3endEv>:
    4712:	55                   	push   %rbp
    4713:	48 89 e5             	mov    %rsp,%rbp
    4716:	48 83 ec 10          	sub    $0x10,%rsp
    471a:	48 89 7d f8          	mov    %rdi,-0x8(%rbp)
    471e:	48 8b 45 f8          	mov    -0x8(%rbp),%rax
    4722:	48 89 c7             	mov    %rax,%rdi
    4725:	e8 c0 06 00 00       	callq  4dea <_ZNSt10_HashtableINSt7__cxx1112basic_stringIcSt11char_traitsIcESaIcEEESt4pairIKS5_mESaIS8_ENSt8__detail10_Select1stESt8equal_toIS5_ESt4hashIS5_ENSA_18_Mod_range_hashingENSA_20_Default_ranged_hashENSA_20_Prime_rehash_policyENSA_17_Hashtable_traitsILb1ELb0ELb1EEEE3endEv>
    472a:	c9                   	leaveq 
    472b:	c3                   	retq   

000000000000472c <_ZNSt8__detailneISt4pairIKNSt7__cxx1112basic_stringIcSt11char_traitsIcESaIcEEEmELb1EEEbRKNS_19_Node_iterator_baseIT_XT0_EEESE_>:
    472c:	55                   	push   %rbp
    472d:	48 89 e5             	mov    %rsp,%rbp
    4730:	48 89 7d f8          	mov    %rdi,-0x8(%rbp)
    4734:	48 89 75 f0          	mov    %rsi,-0x10(%rbp)
    4738:	48 8b 45 f8          	mov    -0x8(%rbp),%rax
    473c:	48 8b 10             	mov    (%rax),%rdx
    473f:	48 8b 45 f0          	mov    -0x10(%rbp),%rax
    4743:	48 8b 00             	mov    (%rax),%rax
    4746:	48 39 c2             	cmp    %rax,%rdx
    4749:	0f 95 c0             	setne  %al
    474c:	5d                   	pop    %rbp
    474d:	c3                   	retq   

000000000000474e <_ZNSt8__detail14_Node_iteratorISt4pairIKNSt7__cxx1112basic_stringIcSt11char_traitsIcESaIcEEEmELb0ELb1EEppEi>:
    474e:	55                   	push   %rbp
    474f:	48 89 e5             	mov    %rsp,%rbp
    4752:	48 83 ec 20          	sub    $0x20,%rsp
    4756:	48 89 7d e8          	mov    %rdi,-0x18(%rbp)
    475a:	89 75 e4             	mov    %esi,-0x1c(%rbp)
    475d:	64 48 8b 04 25 28 00 	mov    %fs:0x28,%rax
    4764:	00 00 
    4766:	48 89 45 f8          	mov    %rax,-0x8(%rbp)
    476a:	31 c0                	xor    %eax,%eax
    476c:	48 8b 45 e8          	mov    -0x18(%rbp),%rax
    4770:	48 8b 00             	mov    (%rax),%rax
    4773:	48 89 45 f0          	mov    %rax,-0x10(%rbp)
    4777:	48 8b 45 e8          	mov    -0x18(%rbp),%rax
    477b:	48 89 c7             	mov    %rax,%rdi
    477e:	e8 ad 06 00 00       	callq  4e30 <_ZNSt8__detail19_Node_iterator_baseISt4pairIKNSt7__cxx1112basic_stringIcSt11char_traitsIcESaIcEEEmELb1EE7_M_incrEv>
    4783:	48 8b 45 f0          	mov    -0x10(%rbp),%rax
    4787:	48 8b 55 f8          	mov    -0x8(%rbp),%rdx
    478b:	64 48 33 14 25 28 00 	xor    %fs:0x28,%rdx
    4792:	00 00 
    4794:	74 05                	je     479b <_ZNSt8__detail14_Node_iteratorISt4pairIKNSt7__cxx1112basic_stringIcSt11char_traitsIcESaIcEEEmELb0ELb1EEppEi+0x4d>
    4796:	e8 c5 cd ff ff       	callq  1560 <__stack_chk_fail@plt>
    479b:	c9                   	leaveq 
    479c:	c3                   	retq   
    479d:	90                   	nop

000000000000479e <_ZNKSt8__detail14_Node_iteratorISt4pairIKNSt7__cxx1112basic_stringIcSt11char_traitsIcESaIcEEEmELb0ELb1EEptEv>:
    479e:	55                   	push   %rbp
    479f:	48 89 e5             	mov    %rsp,%rbp
    47a2:	48 83 ec 10          	sub    $0x10,%rsp
    47a6:	48 89 7d f8          	mov    %rdi,-0x8(%rbp)
    47aa:	48 8b 45 f8          	mov    -0x8(%rbp),%rax
    47ae:	48 8b 00             	mov    (%rax),%rax
    47b1:	48 89 c7             	mov    %rax,%rdi
    47b4:	e8 9f 06 00 00       	callq  4e58 <_ZNSt8__detail21_Hash_node_value_baseISt4pairIKNSt7__cxx1112basic_stringIcSt11char_traitsIcESaIcEEEmEE9_M_valptrEv>
    47b9:	c9                   	leaveq 
    47ba:	c3                   	retq   

00000000000047bb <_ZSt7forwardIPKcEOT_RNSt16remove_referenceIS2_E4typeE>:
    47bb:	55                   	push   %rbp
    47bc:	48 89 e5             	mov    %rsp,%rbp
    47bf:	48 89 7d f8          	mov    %rdi,-0x8(%rbp)
    47c3:	48 8b 45 f8          	mov    -0x8(%rbp),%rax
    47c7:	5d                   	pop    %rbp
    47c8:	c3                   	retq   
    47c9:	90                   	nop

00000000000047ca <_ZN9__gnu_cxx13new_allocatorISt4pairIKPKcNSt7__cxx1112basic_stringIcSt11char_traitsIcESaIcEEEEEC1Ev>:
    47ca:	55                   	push   %rbp
    47cb:	48 89 e5             	mov    %rsp,%rbp
    47ce:	48 89 7d f8          	mov    %rdi,-0x8(%rbp)
    47d2:	90                   	nop
    47d3:	5d                   	pop    %rbp
    47d4:	c3                   	retq   
    47d5:	90                   	nop

00000000000047d6 <_ZN9__gnu_cxx13new_allocatorISt4pairIKPKcNSt7__cxx1112basic_stringIcSt11char_traitsIcESaIcEEEEED1Ev>:
    47d6:	55                   	push   %rbp
    47d7:	48 89 e5             	mov    %rsp,%rbp
    47da:	48 89 7d f8          	mov    %rdi,-0x8(%rbp)
    47de:	90                   	nop
    47df:	5d                   	pop    %rbp
    47e0:	c3                   	retq   
    47e1:	90                   	nop

00000000000047e2 <_ZNKSt16initializer_listISt4pairIKPKcNSt7__cxx1112basic_stringIcSt11char_traitsIcESaIcEEEEE5beginEv>:
    47e2:	55                   	push   %rbp
    47e3:	48 89 e5             	mov    %rsp,%rbp
    47e6:	48 89 7d f8          	mov    %rdi,-0x8(%rbp)
    47ea:	48 8b 45 f8          	mov    -0x8(%rbp),%rax
    47ee:	48 8b 00             	mov    (%rax),%rax
    47f1:	5d                   	pop    %rbp
    47f2:	c3                   	retq   
    47f3:	90                   	nop

00000000000047f4 <_ZNKSt16initializer_listISt4pairIKPKcNSt7__cxx1112basic_stringIcSt11char_traitsIcESaIcEEEEE3endEv>:
    47f4:	55                   	push   %rbp
    47f5:	48 89 e5             	mov    %rsp,%rbp
    47f8:	53                   	push   %rbx
    47f9:	48 83 ec 18          	sub    $0x18,%rsp
    47fd:	48 89 7d e8          	mov    %rdi,-0x18(%rbp)
    4801:	48 8b 45 e8          	mov    -0x18(%rbp),%rax
    4805:	48 89 c7             	mov    %rax,%rdi
    4808:	e8 d5 ff ff ff       	callq  47e2 <_ZNKSt16initializer_listISt4pairIKPKcNSt7__cxx1112basic_stringIcSt11char_traitsIcESaIcEEEEE5beginEv>
    480d:	48 89 c3             	mov    %rax,%rbx
    4810:	48 8b 45 e8          	mov    -0x18(%rbp),%rax
    4814:	48 89 c7             	mov    %rax,%rdi
    4817:	e8 5a 06 00 00       	callq  4e76 <_ZNKSt16initializer_listISt4pairIKPKcNSt7__cxx1112basic_stringIcSt11char_traitsIcESaIcEEEEE4sizeEv>
    481c:	48 89 c2             	mov    %rax,%rdx
    481f:	48 89 d0             	mov    %rdx,%rax
    4822:	48 c1 e0 02          	shl    $0x2,%rax
    4826:	48 01 d0             	add    %rdx,%rax
    4829:	48 c1 e0 03          	shl    $0x3,%rax
    482d:	48 01 d8             	add    %rbx,%rax
    4830:	48 83 c4 18          	add    $0x18,%rsp
    4834:	5b                   	pop    %rbx
    4835:	5d                   	pop    %rbp
    4836:	c3                   	retq   
    4837:	90                   	nop

0000000000004838 <_ZNSt10_HashtableIPKcSt4pairIKS1_NSt7__cxx1112basic_stringIcSt11char_traitsIcESaIcEEEESaISA_ENSt8__detail10_Select1stESt8equal_toIS1_ESt4hashIS1_ENSC_18_Mod_range_hashingENSC_20_Default_ranged_hashENSC_20_Prime_rehash_policyENSC_17_Hashtable_traitsILb0ELb0ELb1EEEEC1ESt16initializer_listISA_EmRKSH_RKSF_RKSB_>:
    4838:	55                   	push   %rbp
    4839:	48 89 e5             	mov    %rsp,%rbp
    483c:	53                   	push   %rbx
    483d:	48 83 ec 58          	sub    $0x58,%rsp
    4841:	48 89 7d d8          	mov    %rdi,-0x28(%rbp)
    4845:	48 89 f0             	mov    %rsi,%rax
    4848:	48 89 d6             	mov    %rdx,%rsi
    484b:	48 89 f2             	mov    %rsi,%rdx
    484e:	48 89 45 c0          	mov    %rax,-0x40(%rbp)
    4852:	48 89 55 c8          	mov    %rdx,-0x38(%rbp)
    4856:	48 89 4d d0          	mov    %rcx,-0x30(%rbp)
    485a:	4c 89 45 b8          	mov    %r8,-0x48(%rbp)
    485e:	4c 89 4d b0          	mov    %r9,-0x50(%rbp)
    4862:	48 8b 45 10          	mov    0x10(%rbp),%rax
    4866:	48 89 45 a8          	mov    %rax,-0x58(%rbp)
    486a:	64 48 8b 04 25 28 00 	mov    %fs:0x28,%rax
    4871:	00 00 
    4873:	48 89 45 e8          	mov    %rax,-0x18(%rbp)
    4877:	31 c0                	xor    %eax,%eax
    4879:	48 8d 45 c0          	lea    -0x40(%rbp),%rax
    487d:	48 89 c7             	mov    %rax,%rdi
    4880:	e8 6f ff ff ff       	callq  47f4 <_ZNKSt16initializer_listISt4pairIKPKcNSt7__cxx1112basic_stringIcSt11char_traitsIcESaIcEEEEE3endEv>
    4885:	48 89 c3             	mov    %rax,%rbx
    4888:	48 8d 45 c0          	lea    -0x40(%rbp),%rax
    488c:	48 89 c7             	mov    %rax,%rdi
    488f:	e8 4e ff ff ff       	callq  47e2 <_ZNKSt16initializer_listISt4pairIKPKcNSt7__cxx1112basic_stringIcSt11char_traitsIcESaIcEEEEE5beginEv>
    4894:	49 89 c2             	mov    %rax,%r10
    4897:	48 8d 7d e5          	lea    -0x1b(%rbp),%rdi
    489b:	48 8b 75 b8          	mov    -0x48(%rbp),%rsi
    489f:	48 8b 55 d0          	mov    -0x30(%rbp),%rdx
    48a3:	48 8b 45 d8          	mov    -0x28(%rbp),%rax
    48a7:	ff 75 a8             	pushq  -0x58(%rbp)
    48aa:	48 8d 4d e7          	lea    -0x19(%rbp),%rcx
    48ae:	51                   	push   %rcx
    48af:	ff 75 b0             	pushq  -0x50(%rbp)
    48b2:	48 8d 4d e6          	lea    -0x1a(%rbp),%rcx
    48b6:	51                   	push   %rcx
    48b7:	49 89 f9             	mov    %rdi,%r9
    48ba:	49 89 f0             	mov    %rsi,%r8
    48bd:	48 89 d1             	mov    %rdx,%rcx
    48c0:	48 89 da             	mov    %rbx,%rdx
    48c3:	4c 89 d6             	mov    %r10,%rsi
    48c6:	48 89 c7             	mov    %rax,%rdi
    48c9:	e8 ba 05 00 00       	callq  4e88 <_ZNSt10_HashtableIPKcSt4pairIKS1_NSt7__cxx1112basic_stringIcSt11char_traitsIcESaIcEEEESaISA_ENSt8__detail10_Select1stESt8equal_toIS1_ESt4hashIS1_ENSC_18_Mod_range_hashingENSC_20_Default_ranged_hashENSC_20_Prime_rehash_policyENSC_17_Hashtable_traitsILb0ELb0ELb1EEEEC1IPKSA_EET_SR_mRKSH_RKSI_RKSJ_RKSF_RKSD_RKSB_>
    48ce:	48 83 c4 20          	add    $0x20,%rsp
    48d2:	90                   	nop
    48d3:	48 8b 45 e8          	mov    -0x18(%rbp),%rax
    48d7:	64 48 33 04 25 28 00 	xor    %fs:0x28,%rax
    48de:	00 00 
    48e0:	74 05                	je     48e7 <_ZNSt10_HashtableIPKcSt4pairIKS1_NSt7__cxx1112basic_stringIcSt11char_traitsIcESaIcEEEESaISA_ENSt8__detail10_Select1stESt8equal_toIS1_ESt4hashIS1_ENSC_18_Mod_range_hashingENSC_20_Default_ranged_hashENSC_20_Prime_rehash_policyENSC_17_Hashtable_traitsILb0ELb0ELb1EEEEC1ESt16initializer_listISA_EmRKSH_RKSF_RKSB_+0xaf>
    48e2:	e8 79 cc ff ff       	callq  1560 <__stack_chk_fail@plt>
    48e7:	48 8b 5d f8          	mov    -0x8(%rbp),%rbx
    48eb:	c9                   	leaveq 
    48ec:	c3                   	retq   
    48ed:	90                   	nop

00000000000048ee <_ZNSaINSt8__detail10_Hash_nodeISt4pairIKPKcNSt7__cxx1112basic_stringIcSt11char_traitsIcESaIcEEEELb0EEEED1Ev>:
    48ee:	55                   	push   %rbp
    48ef:	48 89 e5             	mov    %rsp,%rbp
    48f2:	48 83 ec 10          	sub    $0x10,%rsp
    48f6:	48 89 7d f8          	mov    %rdi,-0x8(%rbp)
    48fa:	48 8b 45 f8          	mov    -0x8(%rbp),%rax
    48fe:	48 89 c7             	mov    %rax,%rdi
    4901:	e8 f2 06 00 00       	callq  4ff8 <_ZN9__gnu_cxx13new_allocatorINSt8__detail10_Hash_nodeISt4pairIKPKcNSt7__cxx1112basic_stringIcSt11char_traitsIcESaIcEEEELb0EEEED1Ev>
    4906:	90                   	nop
    4907:	c9                   	leaveq 
    4908:	c3                   	retq   
    4909:	90                   	nop

000000000000490a <_ZNSt10_HashtableIPKcSt4pairIKS1_NSt7__cxx1112basic_stringIcSt11char_traitsIcESaIcEEEESaISA_ENSt8__detail10_Select1stESt8equal_toIS1_ESt4hashIS1_ENSC_18_Mod_range_hashingENSC_20_Default_ranged_hashENSC_20_Prime_rehash_policyENSC_17_Hashtable_traitsILb0ELb0ELb1EEEE5clearEv>:
    490a:	55                   	push   %rbp
    490b:	48 89 e5             	mov    %rsp,%rbp
    490e:	48 83 ec 10          	sub    $0x10,%rsp
    4912:	48 89 7d f8          	mov    %rdi,-0x8(%rbp)
    4916:	48 8b 45 f8          	mov    -0x8(%rbp),%rax
    491a:	48 89 c7             	mov    %rax,%rdi
    491d:	e8 e2 06 00 00       	callq  5004 <_ZNKSt10_HashtableIPKcSt4pairIKS1_NSt7__cxx1112basic_stringIcSt11char_traitsIcESaIcEEEESaISA_ENSt8__detail10_Select1stESt8equal_toIS1_ESt4hashIS1_ENSC_18_Mod_range_hashingENSC_20_Default_ranged_hashENSC_20_Prime_rehash_policyENSC_17_Hashtable_traitsILb0ELb0ELb1EEEE8_M_beginEv>
    4922:	48 89 c2             	mov    %rax,%rdx
    4925:	48 8b 45 f8          	mov    -0x8(%rbp),%rax
    4929:	48 89 d6             	mov    %rdx,%rsi
    492c:	48 89 c7             	mov    %rax,%rdi
    492f:	e8 e2 06 00 00       	callq  5016 <_ZNSt8__detail16_Hashtable_allocISaINS_10_Hash_nodeISt4pairIKPKcNSt7__cxx1112basic_stringIcSt11char_traitsIcESaIcEEEELb0EEEEE19_M_deallocate_nodesEPSD_>
    4934:	48 8b 45 f8          	mov    -0x8(%rbp),%rax
    4938:	48 8b 40 08          	mov    0x8(%rax),%rax
    493c:	48 8d 14 c5 00 00 00 	lea    0x0(,%rax,8),%rdx
    4943:	00 
    4944:	48 8b 45 f8          	mov    -0x8(%rbp),%rax
    4948:	48 8b 00             	mov    (%rax),%rax
    494b:	be 00 00 00 00       	mov    $0x0,%esi
    4950:	48 89 c7             	mov    %rax,%rdi
    4953:	e8 48 cb ff ff       	callq  14a0 <memset@plt>
    4958:	48 8b 45 f8          	mov    -0x8(%rbp),%rax
    495c:	48 c7 40 18 00 00 00 	movq   $0x0,0x18(%rax)
    4963:	00 
    4964:	48 8b 45 f8          	mov    -0x8(%rbp),%rax
    4968:	48 c7 40 10 00 00 00 	movq   $0x0,0x10(%rax)
    496f:	00 
    4970:	90                   	nop
    4971:	c9                   	leaveq 
    4972:	c3                   	retq   
    4973:	90                   	nop

0000000000004974 <_ZNSt10_HashtableIPKcSt4pairIKS1_NSt7__cxx1112basic_stringIcSt11char_traitsIcESaIcEEEESaISA_ENSt8__detail10_Select1stESt8equal_toIS1_ESt4hashIS1_ENSC_18_Mod_range_hashingENSC_20_Default_ranged_hashENSC_20_Prime_rehash_policyENSC_17_Hashtable_traitsILb0ELb0ELb1EEEE21_M_deallocate_bucketsEv>:
    4974:	55                   	push   %rbp
    4975:	48 89 e5             	mov    %rsp,%rbp
    4978:	48 83 ec 10          	sub    $0x10,%rsp
    497c:	48 89 7d f8          	mov    %rdi,-0x8(%rbp)
    4980:	48 8b 45 f8          	mov    -0x8(%rbp),%rax
    4984:	48 8b 50 08          	mov    0x8(%rax),%rdx
    4988:	48 8b 45 f8          	mov    -0x8(%rbp),%rax
    498c:	48 8b 08             	mov    (%rax),%rcx
    498f:	48 8b 45 f8          	mov    -0x8(%rbp),%rax
    4993:	48 89 ce             	mov    %rcx,%rsi
    4996:	48 89 c7             	mov    %rax,%rdi
    4999:	e8 c0 06 00 00       	callq  505e <_ZNSt10_HashtableIPKcSt4pairIKS1_NSt7__cxx1112basic_stringIcSt11char_traitsIcESaIcEEEESaISA_ENSt8__detail10_Select1stESt8equal_toIS1_ESt4hashIS1_ENSC_18_Mod_range_hashingENSC_20_Default_ranged_hashENSC_20_Prime_rehash_policyENSC_17_Hashtable_traitsILb0ELb0ELb1EEEE21_M_deallocate_bucketsEPPNSC_15_Hash_node_baseEm>
    499e:	90                   	nop
    499f:	c9                   	leaveq 
    49a0:	c3                   	retq   
    49a1:	90                   	nop

00000000000049a2 <_ZN9__gnu_cxx13new_allocatorISt4pairIKiNSt7__cxx1112basic_stringIcSt11char_traitsIcESaIcEEEEEC1Ev>:
    49a2:	55                   	push   %rbp
    49a3:	48 89 e5             	mov    %rsp,%rbp
    49a6:	48 89 7d f8          	mov    %rdi,-0x8(%rbp)
    49aa:	90                   	nop
    49ab:	5d                   	pop    %rbp
    49ac:	c3                   	retq   
    49ad:	90                   	nop

00000000000049ae <_ZN9__gnu_cxx13new_allocatorISt4pairIKiNSt7__cxx1112basic_stringIcSt11char_traitsIcESaIcEEEEED1Ev>:
    49ae:	55                   	push   %rbp
    49af:	48 89 e5             	mov    %rsp,%rbp
    49b2:	48 89 7d f8          	mov    %rdi,-0x8(%rbp)
    49b6:	90                   	nop
    49b7:	5d                   	pop    %rbp
    49b8:	c3                   	retq   
    49b9:	90                   	nop

00000000000049ba <_ZNKSt16initializer_listISt4pairIKiNSt7__cxx1112basic_stringIcSt11char_traitsIcESaIcEEEEE5beginEv>:
    49ba:	55                   	push   %rbp
    49bb:	48 89 e5             	mov    %rsp,%rbp
    49be:	48 89 7d f8          	mov    %rdi,-0x8(%rbp)
    49c2:	48 8b 45 f8          	mov    -0x8(%rbp),%rax
    49c6:	48 8b 00             	mov    (%rax),%rax
    49c9:	5d                   	pop    %rbp
    49ca:	c3                   	retq   
    49cb:	90                   	nop

00000000000049cc <_ZNKSt16initializer_listISt4pairIKiNSt7__cxx1112basic_stringIcSt11char_traitsIcESaIcEEEEE3endEv>:
    49cc:	55                   	push   %rbp
    49cd:	48 89 e5             	mov    %rsp,%rbp
    49d0:	53                   	push   %rbx
    49d1:	48 83 ec 18          	sub    $0x18,%rsp
    49d5:	48 89 7d e8          	mov    %rdi,-0x18(%rbp)
    49d9:	48 8b 45 e8          	mov    -0x18(%rbp),%rax
    49dd:	48 89 c7             	mov    %rax,%rdi
    49e0:	e8 d5 ff ff ff       	callq  49ba <_ZNKSt16initializer_listISt4pairIKiNSt7__cxx1112basic_stringIcSt11char_traitsIcESaIcEEEEE5beginEv>
    49e5:	48 89 c3             	mov    %rax,%rbx
    49e8:	48 8b 45 e8          	mov    -0x18(%rbp),%rax
    49ec:	48 89 c7             	mov    %rax,%rdi
    49ef:	e8 b2 06 00 00       	callq  50a6 <_ZNKSt16initializer_listISt4pairIKiNSt7__cxx1112basic_stringIcSt11char_traitsIcESaIcEEEEE4sizeEv>
    49f4:	48 89 c2             	mov    %rax,%rdx
    49f7:	48 89 d0             	mov    %rdx,%rax
    49fa:	48 c1 e0 02          	shl    $0x2,%rax
    49fe:	48 01 d0             	add    %rdx,%rax
    4a01:	48 c1 e0 03          	shl    $0x3,%rax
    4a05:	48 01 d8             	add    %rbx,%rax
    4a08:	48 83 c4 18          	add    $0x18,%rsp
    4a0c:	5b                   	pop    %rbx
    4a0d:	5d                   	pop    %rbp
    4a0e:	c3                   	retq   
    4a0f:	90                   	nop

0000000000004a10 <_ZNSt10_HashtableIiSt4pairIKiNSt7__cxx1112basic_stringIcSt11char_traitsIcESaIcEEEESaIS8_ENSt8__detail10_Select1stESt8equal_toIiESt4hashIiENSA_18_Mod_range_hashingENSA_20_Default_ranged_hashENSA_20_Prime_rehash_policyENSA_17_Hashtable_traitsILb0ELb0ELb1EEEEC1ESt16initializer_listIS8_EmRKSF_RKSD_RKS9_>:
    4a10:	55                   	push   %rbp
    4a11:	48 89 e5             	mov    %rsp,%rbp
    4a14:	53                   	push   %rbx
    4a15:	48 83 ec 58          	sub    $0x58,%rsp
    4a19:	48 89 7d d8          	mov    %rdi,-0x28(%rbp)
    4a1d:	48 89 f0             	mov    %rsi,%rax
    4a20:	48 89 d6             	mov    %rdx,%rsi
    4a23:	48 89 f2             	mov    %rsi,%rdx
    4a26:	48 89 45 c0          	mov    %rax,-0x40(%rbp)
    4a2a:	48 89 55 c8          	mov    %rdx,-0x38(%rbp)
    4a2e:	48 89 4d d0          	mov    %rcx,-0x30(%rbp)
    4a32:	4c 89 45 b8          	mov    %r8,-0x48(%rbp)
    4a36:	4c 89 4d b0          	mov    %r9,-0x50(%rbp)
    4a3a:	48 8b 45 10          	mov    0x10(%rbp),%rax
    4a3e:	48 89 45 a8          	mov    %rax,-0x58(%rbp)
    4a42:	64 48 8b 04 25 28 00 	mov    %fs:0x28,%rax
    4a49:	00 00 
    4a4b:	48 89 45 e8          	mov    %rax,-0x18(%rbp)
    4a4f:	31 c0                	xor    %eax,%eax
    4a51:	48 8d 45 c0          	lea    -0x40(%rbp),%rax
    4a55:	48 89 c7             	mov    %rax,%rdi
    4a58:	e8 6f ff ff ff       	callq  49cc <_ZNKSt16initializer_listISt4pairIKiNSt7__cxx1112basic_stringIcSt11char_traitsIcESaIcEEEEE3endEv>
    4a5d:	48 89 c3             	mov    %rax,%rbx
    4a60:	48 8d 45 c0          	lea    -0x40(%rbp),%rax
    4a64:	48 89 c7             	mov    %rax,%rdi
    4a67:	e8 4e ff ff ff       	callq  49ba <_ZNKSt16initializer_listISt4pairIKiNSt7__cxx1112basic_stringIcSt11char_traitsIcESaIcEEEEE5beginEv>
    4a6c:	49 89 c2             	mov    %rax,%r10
    4a6f:	48 8d 7d e5          	lea    -0x1b(%rbp),%rdi
    4a73:	48 8b 75 b8          	mov    -0x48(%rbp),%rsi
    4a77:	48 8b 55 d0          	mov    -0x30(%rbp),%rdx
    4a7b:	48 8b 45 d8          	mov    -0x28(%rbp),%rax
    4a7f:	ff 75 a8             	pushq  -0x58(%rbp)
    4a82:	48 8d 4d e7          	lea    -0x19(%rbp),%rcx
    4a86:	51                   	push   %rcx
    4a87:	ff 75 b0             	pushq  -0x50(%rbp)
    4a8a:	48 8d 4d e6          	lea    -0x1a(%rbp),%rcx
    4a8e:	51                   	push   %rcx
    4a8f:	49 89 f9             	mov    %rdi,%r9
    4a92:	49 89 f0             	mov    %rsi,%r8
    4a95:	48 89 d1             	mov    %rdx,%rcx
    4a98:	48 89 da             	mov    %rbx,%rdx
    4a9b:	4c 89 d6             	mov    %r10,%rsi
    4a9e:	48 89 c7             	mov    %rax,%rdi
    4aa1:	e8 12 06 00 00       	callq  50b8 <_ZNSt10_HashtableIiSt4pairIKiNSt7__cxx1112basic_stringIcSt11char_traitsIcESaIcEEEESaIS8_ENSt8__detail10_Select1stESt8equal_toIiESt4hashIiENSA_18_Mod_range_hashingENSA_20_Default_ranged_hashENSA_20_Prime_rehash_policyENSA_17_Hashtable_traitsILb0ELb0ELb1EEEEC1IPKS8_EET_SP_mRKSF_RKSG_RKSH_RKSD_RKSB_RKS9_>
    4aa6:	48 83 c4 20          	add    $0x20,%rsp
    4aaa:	90                   	nop
    4aab:	48 8b 45 e8          	mov    -0x18(%rbp),%rax
    4aaf:	64 48 33 04 25 28 00 	xor    %fs:0x28,%rax
    4ab6:	00 00 
    4ab8:	74 05                	je     4abf <_ZNSt10_HashtableIiSt4pairIKiNSt7__cxx1112basic_stringIcSt11char_traitsIcESaIcEEEESaIS8_ENSt8__detail10_Select1stESt8equal_toIiESt4hashIiENSA_18_Mod_range_hashingENSA_20_Default_ranged_hashENSA_20_Prime_rehash_policyENSA_17_Hashtable_traitsILb0ELb0ELb1EEEEC1ESt16initializer_listIS8_EmRKSF_RKSD_RKS9_+0xaf>
    4aba:	e8 a1 ca ff ff       	callq  1560 <__stack_chk_fail@plt>
    4abf:	48 8b 5d f8          	mov    -0x8(%rbp),%rbx
    4ac3:	c9                   	leaveq 
    4ac4:	c3                   	retq   
    4ac5:	90                   	nop

0000000000004ac6 <_ZNSaINSt8__detail10_Hash_nodeISt4pairIKiNSt7__cxx1112basic_stringIcSt11char_traitsIcESaIcEEEELb0EEEED1Ev>:
    4ac6:	55                   	push   %rbp
    4ac7:	48 89 e5             	mov    %rsp,%rbp
    4aca:	48 83 ec 10          	sub    $0x10,%rsp
    4ace:	48 89 7d f8          	mov    %rdi,-0x8(%rbp)
    4ad2:	48 8b 45 f8          	mov    -0x8(%rbp),%rax
    4ad6:	48 89 c7             	mov    %rax,%rdi
    4ad9:	e8 4a 07 00 00       	callq  5228 <_ZN9__gnu_cxx13new_allocatorINSt8__detail10_Hash_nodeISt4pairIKiNSt7__cxx1112basic_stringIcSt11char_traitsIcESaIcEEEELb0EEEED1Ev>
    4ade:	90                   	nop
    4adf:	c9                   	leaveq 
    4ae0:	c3                   	retq   
    4ae1:	90                   	nop

0000000000004ae2 <_ZNSt10_HashtableIiSt4pairIKiNSt7__cxx1112basic_stringIcSt11char_traitsIcESaIcEEEESaIS8_ENSt8__detail10_Select1stESt8equal_toIiESt4hashIiENSA_18_Mod_range_hashingENSA_20_Default_ranged_hashENSA_20_Prime_rehash_policyENSA_17_Hashtable_traitsILb0ELb0ELb1EEEE5clearEv>:
    4ae2:	55                   	push   %rbp
    4ae3:	48 89 e5             	mov    %rsp,%rbp
    4ae6:	48 83 ec 10          	sub    $0x10,%rsp
    4aea:	48 89 7d f8          	mov    %rdi,-0x8(%rbp)
    4aee:	48 8b 45 f8          	mov    -0x8(%rbp),%rax
    4af2:	48 89 c7             	mov    %rax,%rdi
    4af5:	e8 3a 07 00 00       	callq  5234 <_ZNKSt10_HashtableIiSt4pairIKiNSt7__cxx1112basic_stringIcSt11char_traitsIcESaIcEEEESaIS8_ENSt8__detail10_Select1stESt8equal_toIiESt4hashIiENSA_18_Mod_range_hashingENSA_20_Default_ranged_hashENSA_20_Prime_rehash_policyENSA_17_Hashtable_traitsILb0ELb0ELb1EEEE8_M_beginEv>
    4afa:	48 89 c2             	mov    %rax,%rdx
    4afd:	48 8b 45 f8          	mov    -0x8(%rbp),%rax
    4b01:	48 89 d6             	mov    %rdx,%rsi
    4b04:	48 89 c7             	mov    %rax,%rdi
    4b07:	e8 3a 07 00 00       	callq  5246 <_ZNSt8__detail16_Hashtable_allocISaINS_10_Hash_nodeISt4pairIKiNSt7__cxx1112basic_stringIcSt11char_traitsIcESaIcEEEELb0EEEEE19_M_deallocate_nodesEPSB_>
    4b0c:	48 8b 45 f8          	mov    -0x8(%rbp),%rax
    4b10:	48 8b 40 08          	mov    0x8(%rax),%rax
    4b14:	48 8d 14 c5 00 00 00 	lea    0x0(,%rax,8),%rdx
    4b1b:	00 
    4b1c:	48 8b 45 f8          	mov    -0x8(%rbp),%rax
    4b20:	48 8b 00             	mov    (%rax),%rax
    4b23:	be 00 00 00 00       	mov    $0x0,%esi
    4b28:	48 89 c7             	mov    %rax,%rdi
    4b2b:	e8 70 c9 ff ff       	callq  14a0 <memset@plt>
    4b30:	48 8b 45 f8          	mov    -0x8(%rbp),%rax
    4b34:	48 c7 40 18 00 00 00 	movq   $0x0,0x18(%rax)
    4b3b:	00 
    4b3c:	48 8b 45 f8          	mov    -0x8(%rbp),%rax
    4b40:	48 c7 40 10 00 00 00 	movq   $0x0,0x10(%rax)
    4b47:	00 
    4b48:	90                   	nop
    4b49:	c9                   	leaveq 
    4b4a:	c3                   	retq   
    4b4b:	90                   	nop

0000000000004b4c <_ZNSt10_HashtableIiSt4pairIKiNSt7__cxx1112basic_stringIcSt11char_traitsIcESaIcEEEESaIS8_ENSt8__detail10_Select1stESt8equal_toIiESt4hashIiENSA_18_Mod_range_hashingENSA_20_Default_ranged_hashENSA_20_Prime_rehash_policyENSA_17_Hashtable_traitsILb0ELb0ELb1EEEE21_M_deallocate_bucketsEv>:
    4b4c:	55                   	push   %rbp
    4b4d:	48 89 e5             	mov    %rsp,%rbp
    4b50:	48 83 ec 10          	sub    $0x10,%rsp
    4b54:	48 89 7d f8          	mov    %rdi,-0x8(%rbp)
    4b58:	48 8b 45 f8          	mov    -0x8(%rbp),%rax
    4b5c:	48 8b 50 08          	mov    0x8(%rax),%rdx
    4b60:	48 8b 45 f8          	mov    -0x8(%rbp),%rax
    4b64:	48 8b 08             	mov    (%rax),%rcx
    4b67:	48 8b 45 f8          	mov    -0x8(%rbp),%rax
    4b6b:	48 89 ce             	mov    %rcx,%rsi
    4b6e:	48 89 c7             	mov    %rax,%rdi
    4b71:	e8 18 07 00 00       	callq  528e <_ZNSt10_HashtableIiSt4pairIKiNSt7__cxx1112basic_stringIcSt11char_traitsIcESaIcEEEESaIS8_ENSt8__detail10_Select1stESt8equal_toIiESt4hashIiENSA_18_Mod_range_hashingENSA_20_Default_ranged_hashENSA_20_Prime_rehash_policyENSA_17_Hashtable_traitsILb0ELb0ELb1EEEE21_M_deallocate_bucketsEPPNSA_15_Hash_node_baseEm>
    4b76:	90                   	nop
    4b77:	c9                   	leaveq 
    4b78:	c3                   	retq   
    4b79:	90                   	nop

0000000000004b7a <_ZN9__gnu_cxx13new_allocatorISt4pairIKNSt7__cxx1112basic_stringIcSt11char_traitsIcESaIcEEEmEEC1Ev>:
    4b7a:	55                   	push   %rbp
    4b7b:	48 89 e5             	mov    %rsp,%rbp
    4b7e:	48 89 7d f8          	mov    %rdi,-0x8(%rbp)
    4b82:	90                   	nop
    4b83:	5d                   	pop    %rbp
    4b84:	c3                   	retq   
    4b85:	90                   	nop

0000000000004b86 <_ZN9__gnu_cxx13new_allocatorISt4pairIKNSt7__cxx1112basic_stringIcSt11char_traitsIcESaIcEEEmEED1Ev>:
    4b86:	55                   	push   %rbp
    4b87:	48 89 e5             	mov    %rsp,%rbp
    4b8a:	48 89 7d f8          	mov    %rdi,-0x8(%rbp)
    4b8e:	90                   	nop
    4b8f:	5d                   	pop    %rbp
    4b90:	c3                   	retq   
    4b91:	90                   	nop

0000000000004b92 <_ZNKSt16initializer_listISt4pairIKNSt7__cxx1112basic_stringIcSt11char_traitsIcESaIcEEEmEE5beginEv>:
    4b92:	55                   	push   %rbp
    4b93:	48 89 e5             	mov    %rsp,%rbp
    4b96:	48 89 7d f8          	mov    %rdi,-0x8(%rbp)
    4b9a:	48 8b 45 f8          	mov    -0x8(%rbp),%rax
    4b9e:	48 8b 00             	mov    (%rax),%rax
    4ba1:	5d                   	pop    %rbp
    4ba2:	c3                   	retq   
    4ba3:	90                   	nop

0000000000004ba4 <_ZNKSt16initializer_listISt4pairIKNSt7__cxx1112basic_stringIcSt11char_traitsIcESaIcEEEmEE3endEv>:
    4ba4:	55                   	push   %rbp
    4ba5:	48 89 e5             	mov    %rsp,%rbp
    4ba8:	53                   	push   %rbx
    4ba9:	48 83 ec 18          	sub    $0x18,%rsp
    4bad:	48 89 7d e8          	mov    %rdi,-0x18(%rbp)
    4bb1:	48 8b 45 e8          	mov    -0x18(%rbp),%rax
    4bb5:	48 89 c7             	mov    %rax,%rdi
    4bb8:	e8 d5 ff ff ff       	callq  4b92 <_ZNKSt16initializer_listISt4pairIKNSt7__cxx1112basic_stringIcSt11char_traitsIcESaIcEEEmEE5beginEv>
    4bbd:	48 89 c3             	mov    %rax,%rbx
    4bc0:	48 8b 45 e8          	mov    -0x18(%rbp),%rax
    4bc4:	48 89 c7             	mov    %rax,%rdi
    4bc7:	e8 0a 07 00 00       	callq  52d6 <_ZNKSt16initializer_listISt4pairIKNSt7__cxx1112basic_stringIcSt11char_traitsIcESaIcEEEmEE4sizeEv>
    4bcc:	48 89 c2             	mov    %rax,%rdx
    4bcf:	48 89 d0             	mov    %rdx,%rax
    4bd2:	48 c1 e0 02          	shl    $0x2,%rax
    4bd6:	48 01 d0             	add    %rdx,%rax
    4bd9:	48 c1 e0 03          	shl    $0x3,%rax
    4bdd:	48 01 d8             	add    %rbx,%rax
    4be0:	48 83 c4 18          	add    $0x18,%rsp
    4be4:	5b                   	pop    %rbx
    4be5:	5d                   	pop    %rbp
    4be6:	c3                   	retq   
    4be7:	90                   	nop

0000000000004be8 <_ZNSt10_HashtableINSt7__cxx1112basic_stringIcSt11char_traitsIcESaIcEEESt4pairIKS5_mESaIS8_ENSt8__detail10_Select1stESt8equal_toIS5_ESt4hashIS5_ENSA_18_Mod_range_hashingENSA_20_Default_ranged_hashENSA_20_Prime_rehash_policyENSA_17_Hashtable_traitsILb1ELb0ELb1EEEEC1ESt16initializer_listIS8_EmRKSF_RKSD_RKS9_>:
    4be8:	55                   	push   %rbp
    4be9:	48 89 e5             	mov    %rsp,%rbp
    4bec:	53                   	push   %rbx
    4bed:	48 83 ec 58          	sub    $0x58,%rsp
    4bf1:	48 89 7d d8          	mov    %rdi,-0x28(%rbp)
    4bf5:	48 89 f0             	mov    %rsi,%rax
    4bf8:	48 89 d6             	mov    %rdx,%rsi
    4bfb:	48 89 f2             	mov    %rsi,%rdx
    4bfe:	48 89 45 c0          	mov    %rax,-0x40(%rbp)
    4c02:	48 89 55 c8          	mov    %rdx,-0x38(%rbp)
    4c06:	48 89 4d d0          	mov    %rcx,-0x30(%rbp)
    4c0a:	4c 89 45 b8          	mov    %r8,-0x48(%rbp)
    4c0e:	4c 89 4d b0          	mov    %r9,-0x50(%rbp)
    4c12:	48 8b 45 10          	mov    0x10(%rbp),%rax
    4c16:	48 89 45 a8          	mov    %rax,-0x58(%rbp)
    4c1a:	64 48 8b 04 25 28 00 	mov    %fs:0x28,%rax
    4c21:	00 00 
    4c23:	48 89 45 e8          	mov    %rax,-0x18(%rbp)
    4c27:	31 c0                	xor    %eax,%eax
    4c29:	48 8d 45 c0          	lea    -0x40(%rbp),%rax
    4c2d:	48 89 c7             	mov    %rax,%rdi
    4c30:	e8 6f ff ff ff       	callq  4ba4 <_ZNKSt16initializer_listISt4pairIKNSt7__cxx1112basic_stringIcSt11char_traitsIcESaIcEEEmEE3endEv>
    4c35:	48 89 c3             	mov    %rax,%rbx
    4c38:	48 8d 45 c0          	lea    -0x40(%rbp),%rax
    4c3c:	48 89 c7             	mov    %rax,%rdi
    4c3f:	e8 4e ff ff ff       	callq  4b92 <_ZNKSt16initializer_listISt4pairIKNSt7__cxx1112basic_stringIcSt11char_traitsIcESaIcEEEmEE5beginEv>
    4c44:	49 89 c2             	mov    %rax,%r10
    4c47:	48 8d 7d e5          	lea    -0x1b(%rbp),%rdi
    4c4b:	48 8b 75 b8          	mov    -0x48(%rbp),%rsi
    4c4f:	48 8b 55 d0          	mov    -0x30(%rbp),%rdx
    4c53:	48 8b 45 d8          	mov    -0x28(%rbp),%rax
    4c57:	ff 75 a8             	pushq  -0x58(%rbp)
    4c5a:	48 8d 4d e7          	lea    -0x19(%rbp),%rcx
    4c5e:	51                   	push   %rcx
    4c5f:	ff 75 b0             	pushq  -0x50(%rbp)
    4c62:	48 8d 4d e6          	lea    -0x1a(%rbp),%rcx
    4c66:	51                   	push   %rcx
    4c67:	49 89 f9             	mov    %rdi,%r9
    4c6a:	49 89 f0             	mov    %rsi,%r8
    4c6d:	48 89 d1             	mov    %rdx,%rcx
    4c70:	48 89 da             	mov    %rbx,%rdx
    4c73:	4c 89 d6             	mov    %r10,%rsi
    4c76:	48 89 c7             	mov    %rax,%rdi
    4c79:	e8 6a 06 00 00       	callq  52e8 <_ZNSt10_HashtableINSt7__cxx1112basic_stringIcSt11char_traitsIcESaIcEEESt4pairIKS5_mESaIS8_ENSt8__detail10_Select1stESt8equal_toIS5_ESt4hashIS5_ENSA_18_Mod_range_hashingENSA_20_Default_ranged_hashENSA_20_Prime_rehash_policyENSA_17_Hashtable_traitsILb1ELb0ELb1EEEEC1IPKS8_EET_SP_mRKSF_RKSG_RKSH_RKSD_RKSB_RKS9_>
    4c7e:	48 83 c4 20          	add    $0x20,%rsp
    4c82:	90                   	nop
    4c83:	48 8b 45 e8          	mov    -0x18(%rbp),%rax
    4c87:	64 48 33 04 25 28 00 	xor    %fs:0x28,%rax
    4c8e:	00 00 
    4c90:	74 05                	je     4c97 <_ZNSt10_HashtableINSt7__cxx1112basic_stringIcSt11char_traitsIcESaIcEEESt4pairIKS5_mESaIS8_ENSt8__detail10_Select1stESt8equal_toIS5_ESt4hashIS5_ENSA_18_Mod_range_hashingENSA_20_Default_ranged_hashENSA_20_Prime_rehash_policyENSA_17_Hashtable_traitsILb1ELb0ELb1EEEEC1ESt16initializer_listIS8_EmRKSF_RKSD_RKS9_+0xaf>
    4c92:	e8 c9 c8 ff ff       	callq  1560 <__stack_chk_fail@plt>
    4c97:	48 8b 5d f8          	mov    -0x8(%rbp),%rbx
    4c9b:	c9                   	leaveq 
    4c9c:	c3                   	retq   
    4c9d:	90                   	nop

0000000000004c9e <_ZNSaINSt8__detail10_Hash_nodeISt4pairIKNSt7__cxx1112basic_stringIcSt11char_traitsIcESaIcEEEmELb1EEEED1Ev>:
    4c9e:	55                   	push   %rbp
    4c9f:	48 89 e5             	mov    %rsp,%rbp
    4ca2:	48 83 ec 10          	sub    $0x10,%rsp
    4ca6:	48 89 7d f8          	mov    %rdi,-0x8(%rbp)
    4caa:	48 8b 45 f8          	mov    -0x8(%rbp),%rax
    4cae:	48 89 c7             	mov    %rax,%rdi
    4cb1:	e8 a2 07 00 00       	callq  5458 <_ZN9__gnu_cxx13new_allocatorINSt8__detail10_Hash_nodeISt4pairIKNSt7__cxx1112basic_stringIcSt11char_traitsIcESaIcEEEmELb1EEEED1Ev>
    4cb6:	90                   	nop
    4cb7:	c9                   	leaveq 
    4cb8:	c3                   	retq   
    4cb9:	90                   	nop

0000000000004cba <_ZNSt10_HashtableINSt7__cxx1112basic_stringIcSt11char_traitsIcESaIcEEESt4pairIKS5_mESaIS8_ENSt8__detail10_Select1stESt8equal_toIS5_ESt4hashIS5_ENSA_18_Mod_range_hashingENSA_20_Default_ranged_hashENSA_20_Prime_rehash_policyENSA_17_Hashtable_traitsILb1ELb0ELb1EEEE5clearEv>:
    4cba:	55                   	push   %rbp
    4cbb:	48 89 e5             	mov    %rsp,%rbp
    4cbe:	48 83 ec 10          	sub    $0x10,%rsp
    4cc2:	48 89 7d f8          	mov    %rdi,-0x8(%rbp)
    4cc6:	48 8b 45 f8          	mov    -0x8(%rbp),%rax
    4cca:	48 89 c7             	mov    %rax,%rdi
    4ccd:	e8 92 07 00 00       	callq  5464 <_ZNKSt10_HashtableINSt7__cxx1112basic_stringIcSt11char_traitsIcESaIcEEESt4pairIKS5_mESaIS8_ENSt8__detail10_Select1stESt8equal_toIS5_ESt4hashIS5_ENSA_18_Mod_range_hashingENSA_20_Default_ranged_hashENSA_20_Prime_rehash_policyENSA_17_Hashtable_traitsILb1ELb0ELb1EEEE8_M_beginEv>
    4cd2:	48 89 c2             	mov    %rax,%rdx
    4cd5:	48 8b 45 f8          	mov    -0x8(%rbp),%rax
    4cd9:	48 89 d6             	mov    %rdx,%rsi
    4cdc:	48 89 c7             	mov    %rax,%rdi
    4cdf:	e8 92 07 00 00       	callq  5476 <_ZNSt8__detail16_Hashtable_allocISaINS_10_Hash_nodeISt4pairIKNSt7__cxx1112basic_stringIcSt11char_traitsIcESaIcEEEmELb1EEEEE19_M_deallocate_nodesEPSB_>
    4ce4:	48 8b 45 f8          	mov    -0x8(%rbp),%rax
    4ce8:	48 8b 40 08          	mov    0x8(%rax),%rax
    4cec:	48 8d 14 c5 00 00 00 	lea    0x0(,%rax,8),%rdx
    4cf3:	00 
    4cf4:	48 8b 45 f8          	mov    -0x8(%rbp),%rax
    4cf8:	48 8b 00             	mov    (%rax),%rax
    4cfb:	be 00 00 00 00       	mov    $0x0,%esi
    4d00:	48 89 c7             	mov    %rax,%rdi
    4d03:	e8 98 c7 ff ff       	callq  14a0 <memset@plt>
    4d08:	48 8b 45 f8          	mov    -0x8(%rbp),%rax
    4d0c:	48 c7 40 18 00 00 00 	movq   $0x0,0x18(%rax)
    4d13:	00 
    4d14:	48 8b 45 f8          	mov    -0x8(%rbp),%rax
    4d18:	48 c7 40 10 00 00 00 	movq   $0x0,0x10(%rax)
    4d1f:	00 
    4d20:	90                   	nop
    4d21:	c9                   	leaveq 
    4d22:	c3                   	retq   
    4d23:	90                   	nop

0000000000004d24 <_ZNSt10_HashtableINSt7__cxx1112basic_stringIcSt11char_traitsIcESaIcEEESt4pairIKS5_mESaIS8_ENSt8__detail10_Select1stESt8equal_toIS5_ESt4hashIS5_ENSA_18_Mod_range_hashingENSA_20_Default_ranged_hashENSA_20_Prime_rehash_policyENSA_17_Hashtable_traitsILb1ELb0ELb1EEEE21_M_deallocate_bucketsEv>:
    4d24:	55                   	push   %rbp
    4d25:	48 89 e5             	mov    %rsp,%rbp
    4d28:	48 83 ec 10          	sub    $0x10,%rsp
    4d2c:	48 89 7d f8          	mov    %rdi,-0x8(%rbp)
    4d30:	48 8b 45 f8          	mov    -0x8(%rbp),%rax
    4d34:	48 8b 50 08          	mov    0x8(%rax),%rdx
    4d38:	48 8b 45 f8          	mov    -0x8(%rbp),%rax
    4d3c:	48 8b 08             	mov    (%rax),%rcx
    4d3f:	48 8b 45 f8          	mov    -0x8(%rbp),%rax
    4d43:	48 89 ce             	mov    %rcx,%rsi
    4d46:	48 89 c7             	mov    %rax,%rdi
    4d49:	e8 70 07 00 00       	callq  54be <_ZNSt10_HashtableINSt7__cxx1112basic_stringIcSt11char_traitsIcESaIcEEESt4pairIKS5_mESaIS8_ENSt8__detail10_Select1stESt8equal_toIS5_ESt4hashIS5_ENSA_18_Mod_range_hashingENSA_20_Default_ranged_hashENSA_20_Prime_rehash_policyENSA_17_Hashtable_traitsILb1ELb0ELb1EEEE21_M_deallocate_bucketsEPPNSA_15_Hash_node_baseEm>
    4d4e:	90                   	nop
    4d4f:	c9                   	leaveq 
    4d50:	c3                   	retq   
    4d51:	90                   	nop

0000000000004d52 <_ZNSt13unordered_mapIPKcNSt7__cxx1112basic_stringIcSt11char_traitsIcESaIcEEESt4hashIS1_ESt8equal_toIS1_ESaISt4pairIKS1_S7_EEE4findERSD_>:
    4d52:	55                   	push   %rbp
    4d53:	48 89 e5             	mov    %rsp,%rbp
    4d56:	48 83 ec 10          	sub    $0x10,%rsp
    4d5a:	48 89 7d f8          	mov    %rdi,-0x8(%rbp)
    4d5e:	48 89 75 f0          	mov    %rsi,-0x10(%rbp)
    4d62:	48 8b 45 f8          	mov    -0x8(%rbp),%rax
    4d66:	48 8b 55 f0          	mov    -0x10(%rbp),%rdx
    4d6a:	48 89 d6             	mov    %rdx,%rsi
    4d6d:	48 89 c7             	mov    %rax,%rdi
    4d70:	e8 91 07 00 00       	callq  5506 <_ZNSt10_HashtableIPKcSt4pairIKS1_NSt7__cxx1112basic_stringIcSt11char_traitsIcESaIcEEEESaISA_ENSt8__detail10_Select1stESt8equal_toIS1_ESt4hashIS1_ENSC_18_Mod_range_hashingENSC_20_Default_ranged_hashENSC_20_Prime_rehash_policyENSC_17_Hashtable_traitsILb0ELb0ELb1EEEE4findERS3_>
    4d75:	c9                   	leaveq 
    4d76:	c3                   	retq   
    4d77:	90                   	nop

0000000000004d78 <_ZNKSt8__detail14_Node_iteratorISt4pairIKPKcNSt7__cxx1112basic_stringIcSt11char_traitsIcESaIcEEEELb0ELb0EEptEv>:
    4d78:	55                   	push   %rbp
    4d79:	48 89 e5             	mov    %rsp,%rbp
    4d7c:	48 83 ec 10          	sub    $0x10,%rsp
    4d80:	48 89 7d f8          	mov    %rdi,-0x8(%rbp)
    4d84:	48 8b 45 f8          	mov    -0x8(%rbp),%rax
    4d88:	48 8b 00             	mov    (%rax),%rax
    4d8b:	48 89 c7             	mov    %rax,%rdi
    4d8e:	e8 27 08 00 00       	callq  55ba <_ZNSt8__detail21_Hash_node_value_baseISt4pairIKPKcNSt7__cxx1112basic_stringIcSt11char_traitsIcESaIcEEEEE9_M_valptrEv>
    4d93:	c9                   	leaveq 
    4d94:	c3                   	retq   
    4d95:	90                   	nop

0000000000004d96 <_ZNSt10_HashtableINSt7__cxx1112basic_stringIcSt11char_traitsIcESaIcEEESt4pairIKS5_mESaIS8_ENSt8__detail10_Select1stESt8equal_toIS5_ESt4hashIS5_ENSA_18_Mod_range_hashingENSA_20_Default_ranged_hashENSA_20_Prime_rehash_policyENSA_17_Hashtable_traitsILb1ELb0ELb1EEEE5beginEv>:
    4d96:	55                   	push   %rbp
    4d97:	48 89 e5             	mov    %rsp,%rbp
    4d9a:	48 83 ec 20          	sub    $0x20,%rsp
    4d9e:	48 89 7d e8          	mov    %rdi,-0x18(%rbp)
    4da2:	64 48 8b 04 25 28 00 	mov    %fs:0x28,%rax
    4da9:	00 00 
    4dab:	48 89 45 f8          	mov    %rax,-0x8(%rbp)
    4daf:	31 c0                	xor    %eax,%eax
    4db1:	48 8b 45 e8          	mov    -0x18(%rbp),%rax
    4db5:	48 89 c7             	mov    %rax,%rdi
    4db8:	e8 a7 06 00 00       	callq  5464 <_ZNKSt10_HashtableINSt7__cxx1112basic_stringIcSt11char_traitsIcESaIcEEESt4pairIKS5_mESaIS8_ENSt8__detail10_Select1stESt8equal_toIS5_ESt4hashIS5_ENSA_18_Mod_range_hashingENSA_20_Default_ranged_hashENSA_20_Prime_rehash_policyENSA_17_Hashtable_traitsILb1ELb0ELb1EEEE8_M_beginEv>
    4dbd:	48 89 c2             	mov    %rax,%rdx
    4dc0:	48 8d 45 f0          	lea    -0x10(%rbp),%rax
    4dc4:	48 89 d6             	mov    %rdx,%rsi
    4dc7:	48 89 c7             	mov    %rax,%rdi
    4dca:	e8 09 08 00 00       	callq  55d8 <_ZNSt8__detail14_Node_iteratorISt4pairIKNSt7__cxx1112basic_stringIcSt11char_traitsIcESaIcEEEmELb0ELb1EEC1EPNS_10_Hash_nodeIS9_Lb1EEE>
    4dcf:	48 8b 45 f0          	mov    -0x10(%rbp),%rax
    4dd3:	48 8b 4d f8          	mov    -0x8(%rbp),%rcx
    4dd7:	64 48 33 0c 25 28 00 	xor    %fs:0x28,%rcx
    4dde:	00 00 
    4de0:	74 05                	je     4de7 <_ZNSt10_HashtableINSt7__cxx1112basic_stringIcSt11char_traitsIcESaIcEEESt4pairIKS5_mESaIS8_ENSt8__detail10_Select1stESt8equal_toIS5_ESt4hashIS5_ENSA_18_Mod_range_hashingENSA_20_Default_ranged_hashENSA_20_Prime_rehash_policyENSA_17_Hashtable_traitsILb1ELb0ELb1EEEE5beginEv+0x51>
    4de2:	e8 79 c7 ff ff       	callq  1560 <__stack_chk_fail@plt>
    4de7:	c9                   	leaveq 
    4de8:	c3                   	retq   
    4de9:	90                   	nop

0000000000004dea <_ZNSt10_HashtableINSt7__cxx1112basic_stringIcSt11char_traitsIcESaIcEEESt4pairIKS5_mESaIS8_ENSt8__detail10_Select1stESt8equal_toIS5_ESt4hashIS5_ENSA_18_Mod_range_hashingENSA_20_Default_ranged_hashENSA_20_Prime_rehash_policyENSA_17_Hashtable_traitsILb1ELb0ELb1EEEE3endEv>:
    4dea:	55                   	push   %rbp
    4deb:	48 89 e5             	mov    %rsp,%rbp
    4dee:	48 83 ec 20          	sub    $0x20,%rsp
    4df2:	48 89 7d e8          	mov    %rdi,-0x18(%rbp)
    4df6:	64 48 8b 04 25 28 00 	mov    %fs:0x28,%rax
    4dfd:	00 00 
    4dff:	48 89 45 f8          	mov    %rax,-0x8(%rbp)
    4e03:	31 c0                	xor    %eax,%eax
    4e05:	48 8d 45 f0          	lea    -0x10(%rbp),%rax
    4e09:	be 00 00 00 00       	mov    $0x0,%esi
    4e0e:	48 89 c7             	mov    %rax,%rdi
    4e11:	e8 c2 07 00 00       	callq  55d8 <_ZNSt8__detail14_Node_iteratorISt4pairIKNSt7__cxx1112basic_stringIcSt11char_traitsIcESaIcEEEmELb0ELb1EEC1EPNS_10_Hash_nodeIS9_Lb1EEE>
    4e16:	48 8b 45 f0          	mov    -0x10(%rbp),%rax
    4e1a:	48 8b 55 f8          	mov    -0x8(%rbp),%rdx
    4e1e:	64 48 33 14 25 28 00 	xor    %fs:0x28,%rdx
    4e25:	00 00 
    4e27:	74 05                	je     4e2e <_ZNSt10_HashtableINSt7__cxx1112basic_stringIcSt11char_traitsIcESaIcEEESt4pairIKS5_mESaIS8_ENSt8__detail10_Select1stESt8equal_toIS5_ESt4hashIS5_ENSA_18_Mod_range_hashingENSA_20_Default_ranged_hashENSA_20_Prime_rehash_policyENSA_17_Hashtable_traitsILb1ELb0ELb1EEEE3endEv+0x44>
    4e29:	e8 32 c7 ff ff       	callq  1560 <__stack_chk_fail@plt>
    4e2e:	c9                   	leaveq 
    4e2f:	c3                   	retq   

0000000000004e30 <_ZNSt8__detail19_Node_iterator_baseISt4pairIKNSt7__cxx1112basic_stringIcSt11char_traitsIcESaIcEEEmELb1EE7_M_incrEv>:
    4e30:	55                   	push   %rbp
    4e31:	48 89 e5             	mov    %rsp,%rbp
    4e34:	48 83 ec 10          	sub    $0x10,%rsp
    4e38:	48 89 7d f8          	mov    %rdi,-0x8(%rbp)
    4e3c:	48 8b 45 f8          	mov    -0x8(%rbp),%rax
    4e40:	48 8b 00             	mov    (%rax),%rax
    4e43:	48 89 c7             	mov    %rax,%rdi
    4e46:	e8 b3 07 00 00       	callq  55fe <_ZNKSt8__detail10_Hash_nodeISt4pairIKNSt7__cxx1112basic_stringIcSt11char_traitsIcESaIcEEEmELb1EE7_M_nextEv>
    4e4b:	48 89 c2             	mov    %rax,%rdx
    4e4e:	48 8b 45 f8          	mov    -0x8(%rbp),%rax
    4e52:	48 89 10             	mov    %rdx,(%rax)
    4e55:	90                   	nop
    4e56:	c9                   	leaveq 
    4e57:	c3                   	retq   

0000000000004e58 <_ZNSt8__detail21_Hash_node_value_baseISt4pairIKNSt7__cxx1112basic_stringIcSt11char_traitsIcESaIcEEEmEE9_M_valptrEv>:
    4e58:	55                   	push   %rbp
    4e59:	48 89 e5             	mov    %rsp,%rbp
    4e5c:	48 83 ec 10          	sub    $0x10,%rsp
    4e60:	48 89 7d f8          	mov    %rdi,-0x8(%rbp)
    4e64:	48 8b 45 f8          	mov    -0x8(%rbp),%rax
    4e68:	48 83 c0 08          	add    $0x8,%rax
    4e6c:	48 89 c7             	mov    %rax,%rdi
    4e6f:	e8 9c 07 00 00       	callq  5610 <_ZN9__gnu_cxx16__aligned_bufferISt4pairIKNSt7__cxx1112basic_stringIcSt11char_traitsIcESaIcEEEmEE6_M_ptrEv>
    4e74:	c9                   	leaveq 
    4e75:	c3                   	retq   

0000000000004e76 <_ZNKSt16initializer_listISt4pairIKPKcNSt7__cxx1112basic_stringIcSt11char_traitsIcESaIcEEEEE4sizeEv>:
    4e76:	55                   	push   %rbp
    4e77:	48 89 e5             	mov    %rsp,%rbp
    4e7a:	48 89 7d f8          	mov    %rdi,-0x8(%rbp)
