# objdump -d --section .text ../2/sizes
../2/sizes:     file format elf64-x86-64


Disassembly of section .text:

0000000000001640 <_start>:
    1640:	31 ed                	xor    %ebp,%ebp
    1642:	49 89 d1             	mov    %rdx,%r9
    1645:	5e                   	pop    %rsi
    1646:	48 89 e2             	mov    %rsp,%rdx
    1649:	48 83 e4 f0          	and    $0xfffffffffffffff0,%rsp
    164d:	50                   	push   %rax
    164e:	54                   	push   %rsp
    164f:	4c 8d 05 1a 8a 00 00 	lea    0x8a1a(%rip),%r8        # a070 <__libc_csu_fini>
    1656:	48 8d 0d a3 89 00 00 	lea    0x89a3(%rip),%rcx        # a000 <__libc_csu_init>
    165d:	48 8d 3d e6 00 00 00 	lea    0xe6(%rip),%rdi        # 174a <main>
    1664:	ff 15 5e e9 20 00    	callq  *0x20e95e(%rip)        # 20ffc8 <__libc_start_main@GLIBC_2.2.5>
    166a:	f4                   	hlt    
    166b:	0f 1f 44 00 00       	nopl   0x0(%rax,%rax,1)

0000000000001670 <deregister_tm_clones>:
    1670:	48 8d 3d c9 e9 20 00 	lea    0x20e9c9(%rip),%rdi        # 210040 <_ZSt4cout@@GLIBCXX_3.4>
    1677:	55                   	push   %rbp
    1678:	48 8d 05 c1 e9 20 00 	lea    0x20e9c1(%rip),%rax        # 210040 <_ZSt4cout@@GLIBCXX_3.4>
    167f:	48 39 f8             	cmp    %rdi,%rax
    1682:	48 89 e5             	mov    %rsp,%rbp
    1685:	74 19                	je     16a0 <deregister_tm_clones+0x30>
    1687:	48 8b 05 32 e9 20 00 	mov    0x20e932(%rip),%rax        # 20ffc0 <_ITM_deregisterTMCloneTable>
    168e:	48 85 c0             	test   %rax,%rax
    1691:	74 0d                	je     16a0 <deregister_tm_clones+0x30>
    1693:	5d                   	pop    %rbp
    1694:	ff e0                	jmpq   *%rax
    1696:	66 2e 0f 1f 84 00 00 	nopw   %cs:0x0(%rax,%rax,1)
    169d:	00 00 00 
    16a0:	5d                   	pop    %rbp
    16a1:	c3                   	retq   
    16a2:	0f 1f 40 00          	nopl   0x0(%rax)
    16a6:	66 2e 0f 1f 84 00 00 	nopw   %cs:0x0(%rax,%rax,1)
    16ad:	00 00 00 

00000000000016b0 <register_tm_clones>:
    16b0:	48 8d 3d 89 e9 20 00 	lea    0x20e989(%rip),%rdi        # 210040 <_ZSt4cout@@GLIBCXX_3.4>
    16b7:	48 8d 35 82 e9 20 00 	lea    0x20e982(%rip),%rsi        # 210040 <_ZSt4cout@@GLIBCXX_3.4>
    16be:	55                   	push   %rbp
    16bf:	48 29 fe             	sub    %rdi,%rsi
    16c2:	48 89 e5             	mov    %rsp,%rbp
    16c5:	48 c1 fe 03          	sar    $0x3,%rsi
    16c9:	48 89 f0             	mov    %rsi,%rax
    16cc:	48 c1 e8 3f          	shr    $0x3f,%rax
    16d0:	48 01 c6             	add    %rax,%rsi
    16d3:	48 d1 fe             	sar    %rsi
    16d6:	74 18                	je     16f0 <register_tm_clones+0x40>
    16d8:	48 8b 05 f9 e8 20 00 	mov    0x20e8f9(%rip),%rax        # 20ffd8 <_ITM_registerTMCloneTable>
    16df:	48 85 c0             	test   %rax,%rax
    16e2:	74 0c                	je     16f0 <register_tm_clones+0x40>
    16e4:	5d                   	pop    %rbp
    16e5:	ff e0                	jmpq   *%rax
    16e7:	66 0f 1f 84 00 00 00 	nopw   0x0(%rax,%rax,1)
    16ee:	00 00 
    16f0:	5d                   	pop    %rbp
    16f1:	c3                   	retq   
    16f2:	0f 1f 40 00          	nopl   0x0(%rax)
    16f6:	66 2e 0f 1f 84 00 00 	nopw   %cs:0x0(%rax,%rax,1)
    16fd:	00 00 00 

0000000000001700 <__do_global_dtors_aux>:
    1700:	80 3d 49 ea 20 00 00 	cmpb   $0x0,0x20ea49(%rip)        # 210150 <completed.7698>
    1707:	75 2f                	jne    1738 <__do_global_dtors_aux+0x38>
    1709:	48 83 3d 9f e8 20 00 	cmpq   $0x0,0x20e89f(%rip)        # 20ffb0 <__cxa_finalize@GLIBC_2.2.5>
    1710:	00 
    1711:	55                   	push   %rbp
    1712:	48 89 e5             	mov    %rsp,%rbp
    1715:	74 0c                	je     1723 <__do_global_dtors_aux+0x23>
    1717:	48 8b 3d ea e8 20 00 	mov    0x20e8ea(%rip),%rdi        # 210008 <__dso_handle>
    171e:	e8 0d ff ff ff       	callq  1630 <__cxa_finalize@plt>
    1723:	e8 48 ff ff ff       	callq  1670 <deregister_tm_clones>
    1728:	c6 05 21 ea 20 00 01 	movb   $0x1,0x20ea21(%rip)        # 210150 <completed.7698>
    172f:	5d                   	pop    %rbp
    1730:	c3                   	retq   
    1731:	0f 1f 80 00 00 00 00 	nopl   0x0(%rax)
    1738:	f3 c3                	repz retq 
    173a:	66 0f 1f 44 00 00    	nopw   0x0(%rax,%rax,1)

0000000000001740 <frame_dummy>:
    1740:	55                   	push   %rbp
    1741:	48 89 e5             	mov    %rsp,%rbp
    1744:	5d                   	pop    %rbp
    1745:	e9 66 ff ff ff       	jmpq   16b0 <register_tm_clones>

000000000000174a <main>:
    174a:	55                   	push   %rbp
    174b:	48 89 e5             	mov    %rsp,%rbp
    174e:	53                   	push   %rbx
    174f:	48 83 ec 58          	sub    $0x58,%rsp
    1753:	64 48 8b 04 25 28 00 	mov    %fs:0x28,%rax
    175a:	00 00 
    175c:	48 89 45 e8          	mov    %rax,-0x18(%rbp)
    1760:	31 c0                	xor    %eax,%eax
    1762:	48 8d 35 2a 89 00 00 	lea    0x892a(%rip),%rsi        # a093 <_ZStL6ignore+0x1>
    1769:	48 8d 3d d0 e8 20 00 	lea    0x20e8d0(%rip),%rdi        # 210040 <_ZSt4cout@@GLIBCXX_3.4>
    1770:	e8 ab fd ff ff       	callq  1520 <_ZStlsISt11char_traitsIcEERSt13basic_ostreamIcT_ES5_PKc@plt>
    1775:	be 08 00 00 00       	mov    $0x8,%esi
    177a:	48 89 c7             	mov    %rax,%rdi
    177d:	e8 6e fe ff ff       	callq  15f0 <_ZNSolsEi@plt>
    1782:	48 8d 35 1b 89 00 00 	lea    0x891b(%rip),%rsi        # a0a4 <_ZStL6ignore+0x12>
    1789:	48 89 c7             	mov    %rax,%rdi
    178c:	e8 8f fd ff ff       	callq  1520 <_ZStlsISt11char_traitsIcEERSt13basic_ostreamIcT_ES5_PKc@plt>
    1791:	48 8d 35 0e 89 00 00 	lea    0x890e(%rip),%rsi        # a0a6 <_ZStL6ignore+0x14>
    1798:	48 8d 3d a1 e8 20 00 	lea    0x20e8a1(%rip),%rdi        # 210040 <_ZSt4cout@@GLIBCXX_3.4>
    179f:	e8 7c fd ff ff       	callq  1520 <_ZStlsISt11char_traitsIcEERSt13basic_ostreamIcT_ES5_PKc@plt>
    17a4:	48 89 c2             	mov    %rax,%rdx
    17a7:	8b 05 73 e8 20 00    	mov    0x20e873(%rip),%eax        # 210020 <test_obj>
    17ad:	89 c6                	mov    %eax,%esi
    17af:	48 89 d7             	mov    %rdx,%rdi
    17b2:	e8 39 fe ff ff       	callq  15f0 <_ZNSolsEi@plt>
    17b7:	48 8d 35 e6 88 00 00 	lea    0x88e6(%rip),%rsi        # a0a4 <_ZStL6ignore+0x12>
    17be:	48 89 c7             	mov    %rax,%rdi
    17c1:	e8 5a fd ff ff       	callq  1520 <_ZStlsISt11char_traitsIcEERSt13basic_ostreamIcT_ES5_PKc@plt>
    17c6:	48 8d 35 dd 88 00 00 	lea    0x88dd(%rip),%rsi        # a0aa <_ZStL6ignore+0x18>
    17cd:	48 8d 3d 6c e8 20 00 	lea    0x20e86c(%rip),%rdi        # 210040 <_ZSt4cout@@GLIBCXX_3.4>
    17d4:	e8 47 fd ff ff       	callq  1520 <_ZStlsISt11char_traitsIcEERSt13basic_ostreamIcT_ES5_PKc@plt>
    17d9:	48 89 c3             	mov    %rax,%rbx
    17dc:	48 8d 3d 9d e3 20 00 	lea    0x20e39d(%rip),%rdi        # 20fb80 <_ZTIi@@CXXABI_1.3>
    17e3:	e8 96 15 00 00       	callq  2d7e <_ZNKSt9type_info4nameEv>
    17e8:	48 89 c2             	mov    %rax,%rdx
    17eb:	48 8d 45 c0          	lea    -0x40(%rbp),%rax
    17ef:	48 89 d6             	mov    %rdx,%rsi
    17f2:	48 89 c7             	mov    %rax,%rdi
    17f5:	e8 8f 2e 00 00       	callq  4689 <_Z7getKey1IPKcENSt7__cxx1112basic_stringIcSt11char_traitsIcESaIcEEET_>
    17fa:	48 8d 45 c0          	lea    -0x40(%rbp),%rax
    17fe:	48 89 c6             	mov    %rax,%rsi
    1801:	48 89 df             	mov    %rbx,%rdi
    1804:	e8 f7 fc ff ff       	callq  1500 <_ZStlsIcSt11char_traitsIcESaIcEERSt13basic_ostreamIT_T0_ES7_RKNSt7__cxx1112basic_stringIS4_S5_T1_EE@plt>
    1809:	48 8d 35 a1 88 00 00 	lea    0x88a1(%rip),%rsi        # a0b1 <_ZStL6ignore+0x1f>
    1810:	48 89 c7             	mov    %rax,%rdi
    1813:	e8 08 fd ff ff       	callq  1520 <_ZStlsISt11char_traitsIcEERSt13basic_ostreamIcT_ES5_PKc@plt>
    1818:	be 20 00 00 00       	mov    $0x20,%esi
    181d:	48 89 c7             	mov    %rax,%rdi
    1820:	e8 2b fc ff ff       	callq  1450 <_ZNSolsEm@plt>
    1825:	48 8d 35 9a 88 00 00 	lea    0x889a(%rip),%rsi        # a0c6 <_ZStL6ignore+0x34>
    182c:	48 89 c7             	mov    %rax,%rdi
    182f:	e8 ec fc ff ff       	callq  1520 <_ZStlsISt11char_traitsIcEERSt13basic_ostreamIcT_ES5_PKc@plt>
    1834:	48 8d 45 c0          	lea    -0x40(%rbp),%rax
    1838:	48 89 c7             	mov    %rax,%rdi
    183b:	e8 70 fc ff ff       	callq  14b0 <_ZNSt7__cxx1112basic_stringIcSt11char_traitsIcESaIcEED1Ev@plt>
    1840:	c7 45 a4 20 00 00 00 	movl   $0x20,-0x5c(%rbp)
    1847:	8b 45 a4             	mov    -0x5c(%rbp),%eax
    184a:	8d 50 ff             	lea    -0x1(%rax),%edx
    184d:	89 55 a4             	mov    %edx,-0x5c(%rbp)
    1850:	85 c0                	test   %eax,%eax
    1852:	0f 95 c0             	setne  %al
    1855:	84 c0                	test   %al,%al
    1857:	74 32                	je     188b <main+0x141>
    1859:	8b 15 c1 e7 20 00    	mov    0x20e7c1(%rip),%edx        # 210020 <test_obj>
    185f:	8b 45 a4             	mov    -0x5c(%rbp),%eax
    1862:	89 c1                	mov    %eax,%ecx
    1864:	d3 fa                	sar    %cl,%edx
    1866:	89 d0                	mov    %edx,%eax
    1868:	83 e0 01             	and    $0x1,%eax
    186b:	85 c0                	test   %eax,%eax
    186d:	74 07                	je     1876 <main+0x12c>
    186f:	b8 31 00 00 00       	mov    $0x31,%eax
    1874:	eb 05                	jmp    187b <main+0x131>
    1876:	b8 30 00 00 00       	mov    $0x30,%eax
    187b:	89 c6                	mov    %eax,%esi
    187d:	48 8d 3d bc e7 20 00 	lea    0x20e7bc(%rip),%rdi        # 210040 <_ZSt4cout@@GLIBCXX_3.4>
    1884:	e8 e7 fc ff ff       	callq  1570 <_ZStlsISt11char_traitsIcEERSt13basic_ostreamIcT_ES5_c@plt>
    1889:	eb bc                	jmp    1847 <main+0xfd>
    188b:	48 8d 35 3c 88 00 00 	lea    0x883c(%rip),%rsi        # a0ce <_ZStL6ignore+0x3c>
    1892:	48 8d 3d a7 e7 20 00 	lea    0x20e7a7(%rip),%rdi        # 210040 <_ZSt4cout@@GLIBCXX_3.4>
    1899:	e8 82 fc ff ff       	callq  1520 <_ZStlsISt11char_traitsIcEERSt13basic_ostreamIcT_ES5_PKc@plt>
    189e:	48 89 c2             	mov    %rax,%rdx
    18a1:	48 8b 05 80 e7 20 00 	mov    0x20e780(%rip),%rax        # 210028 <test_obj+0x8>
    18a8:	48 89 c6             	mov    %rax,%rsi
    18ab:	48 89 d7             	mov    %rdx,%rdi
    18ae:	e8 2d fc ff ff       	callq  14e0 <_ZNSolsEPKv@plt>
    18b3:	48 8d 35 ea 87 00 00 	lea    0x87ea(%rip),%rsi        # a0a4 <_ZStL6ignore+0x12>
    18ba:	48 89 c7             	mov    %rax,%rdi
    18bd:	e8 5e fc ff ff       	callq  1520 <_ZStlsISt11char_traitsIcEERSt13basic_ostreamIcT_ES5_PKc@plt>
    18c2:	48 8d 35 e1 87 00 00 	lea    0x87e1(%rip),%rsi        # a0aa <_ZStL6ignore+0x18>
    18c9:	48 8d 3d 70 e7 20 00 	lea    0x20e770(%rip),%rdi        # 210040 <_ZSt4cout@@GLIBCXX_3.4>
    18d0:	e8 4b fc ff ff       	callq  1520 <_ZStlsISt11char_traitsIcEERSt13basic_ostreamIcT_ES5_PKc@plt>
    18d5:	48 89 c3             	mov    %rax,%rbx
    18d8:	48 8d 3d e1 e2 20 00 	lea    0x20e2e1(%rip),%rdi        # 20fbc0 <_ZTIPi@@CXXABI_1.3>
    18df:	e8 9a 14 00 00       	callq  2d7e <_ZNKSt9type_info4nameEv>
    18e4:	48 89 c2             	mov    %rax,%rdx
    18e7:	48 8d 45 c0          	lea    -0x40(%rbp),%rax
    18eb:	48 89 d6             	mov    %rdx,%rsi
    18ee:	48 89 c7             	mov    %rax,%rdi
    18f1:	e8 93 2d 00 00       	callq  4689 <_Z7getKey1IPKcENSt7__cxx1112basic_stringIcSt11char_traitsIcESaIcEEET_>
    18f6:	48 8d 45 c0          	lea    -0x40(%rbp),%rax
    18fa:	48 89 c6             	mov    %rax,%rsi
    18fd:	48 89 df             	mov    %rbx,%rdi
    1900:	e8 fb fb ff ff       	callq  1500 <_ZStlsIcSt11char_traitsIcESaIcEERSt13basic_ostreamIT_T0_ES7_RKNSt7__cxx1112basic_stringIS4_S5_T1_EE@plt>
    1905:	48 8d 35 a5 87 00 00 	lea    0x87a5(%rip),%rsi        # a0b1 <_ZStL6ignore+0x1f>
    190c:	48 89 c7             	mov    %rax,%rdi
    190f:	e8 0c fc ff ff       	callq  1520 <_ZStlsISt11char_traitsIcEERSt13basic_ostreamIcT_ES5_PKc@plt>
    1914:	be 40 00 00 00       	mov    $0x40,%esi
    1919:	48 89 c7             	mov    %rax,%rdi
    191c:	e8 2f fb ff ff       	callq  1450 <_ZNSolsEm@plt>
    1921:	48 8d 35 ab 87 00 00 	lea    0x87ab(%rip),%rsi        # a0d3 <_ZStL6ignore+0x41>
    1928:	48 89 c7             	mov    %rax,%rdi
    192b:	e8 f0 fb ff ff       	callq  1520 <_ZStlsISt11char_traitsIcEERSt13basic_ostreamIcT_ES5_PKc@plt>
    1930:	48 8d 45 c0          	lea    -0x40(%rbp),%rax
    1934:	48 89 c7             	mov    %rax,%rdi
    1937:	e8 74 fb ff ff       	callq  14b0 <_ZNSt7__cxx1112basic_stringIcSt11char_traitsIcESaIcEED1Ev@plt>
    193c:	c7 45 a8 40 00 00 00 	movl   $0x40,-0x58(%rbp)
    1943:	8b 45 a8             	mov    -0x58(%rbp),%eax
    1946:	8d 50 ff             	lea    -0x1(%rax),%edx
    1949:	89 55 a8             	mov    %edx,-0x58(%rbp)
    194c:	85 c0                	test   %eax,%eax
    194e:	0f 95 c0             	setne  %al
    1951:	84 c0                	test   %al,%al
    1953:	74 13                	je     1968 <main+0x21e>
    1955:	be 62 00 00 00       	mov    $0x62,%esi
    195a:	48 8d 3d df e6 20 00 	lea    0x20e6df(%rip),%rdi        # 210040 <_ZSt4cout@@GLIBCXX_3.4>
    1961:	e8 0a fc ff ff       	callq  1570 <_ZStlsISt11char_traitsIcEERSt13basic_ostreamIcT_ES5_c@plt>
    1966:	eb db                	jmp    1943 <main+0x1f9>
    1968:	48 8d 35 71 87 00 00 	lea    0x8771(%rip),%rsi        # a0e0 <_ZStL6ignore+0x4e>
    196f:	48 8d 3d ca e6 20 00 	lea    0x20e6ca(%rip),%rdi        # 210040 <_ZSt4cout@@GLIBCXX_3.4>
    1976:	e8 a5 fb ff ff       	callq  1520 <_ZStlsISt11char_traitsIcEERSt13basic_ostreamIcT_ES5_PKc@plt>
    197b:	48 89 c2             	mov    %rax,%rdx
    197e:	0f b6 05 ab e6 20 00 	movzbl 0x20e6ab(%rip),%eax        # 210030 <test_obj+0x10>
    1985:	0f b6 c0             	movzbl %al,%eax
    1988:	89 c6                	mov    %eax,%esi
    198a:	48 89 d7             	mov    %rdx,%rdi
    198d:	e8 8e fc ff ff       	callq  1620 <_ZNSolsEb@plt>
    1992:	48 89 c2             	mov    %rax,%rdx
    1995:	48 8b 05 1c e6 20 00 	mov    0x20e61c(%rip),%rax        # 20ffb8 <_ZSt4endlIcSt11char_traitsIcEERSt13basic_ostreamIT_T0_ES6_@GLIBCXX_3.4>
    199c:	48 89 c6             	mov    %rax,%rsi
    199f:	48 89 d7             	mov    %rdx,%rdi
    19a2:	e8 99 fb ff ff       	callq  1540 <_ZNSolsEPFRSoS_E@plt>
    19a7:	48 8d 35 fc 86 00 00 	lea    0x86fc(%rip),%rsi        # a0aa <_ZStL6ignore+0x18>
    19ae:	48 8d 3d 8b e6 20 00 	lea    0x20e68b(%rip),%rdi        # 210040 <_ZSt4cout@@GLIBCXX_3.4>
    19b5:	e8 66 fb ff ff       	callq  1520 <_ZStlsISt11char_traitsIcEERSt13basic_ostreamIcT_ES5_PKc@plt>
    19ba:	48 89 c3             	mov    %rax,%rbx
    19bd:	48 8d 3d 3c e2 20 00 	lea    0x20e23c(%rip),%rdi        # 20fc00 <_ZTIb@@CXXABI_1.3>
    19c4:	e8 b5 13 00 00       	callq  2d7e <_ZNKSt9type_info4nameEv>
    19c9:	48 89 c2             	mov    %rax,%rdx
    19cc:	48 8d 45 c0          	lea    -0x40(%rbp),%rax
    19d0:	48 89 d6             	mov    %rdx,%rsi
    19d3:	48 89 c7             	mov    %rax,%rdi
    19d6:	e8 ae 2c 00 00       	callq  4689 <_Z7getKey1IPKcENSt7__cxx1112basic_stringIcSt11char_traitsIcESaIcEEET_>
    19db:	48 8d 45 c0          	lea    -0x40(%rbp),%rax
    19df:	48 89 c6             	mov    %rax,%rsi
    19e2:	48 89 df             	mov    %rbx,%rdi
    19e5:	e8 16 fb ff ff       	callq  1500 <_ZStlsIcSt11char_traitsIcESaIcEERSt13basic_ostreamIT_T0_ES7_RKNSt7__cxx1112basic_stringIS4_S5_T1_EE@plt>
    19ea:	48 8d 35 c0 86 00 00 	lea    0x86c0(%rip),%rsi        # a0b1 <_ZStL6ignore+0x1f>
    19f1:	48 89 c7             	mov    %rax,%rdi
    19f4:	e8 27 fb ff ff       	callq  1520 <_ZStlsISt11char_traitsIcEERSt13basic_ostreamIcT_ES5_PKc@plt>
    19f9:	be 08 00 00 00       	mov    $0x8,%esi
    19fe:	48 89 c7             	mov    %rax,%rdi
    1a01:	e8 4a fa ff ff       	callq  1450 <_ZNSolsEm@plt>
    1a06:	48 8d 35 b9 86 00 00 	lea    0x86b9(%rip),%rsi        # a0c6 <_ZStL6ignore+0x34>
    1a0d:	48 89 c7             	mov    %rax,%rdi
    1a10:	e8 0b fb ff ff       	callq  1520 <_ZStlsISt11char_traitsIcEERSt13basic_ostreamIcT_ES5_PKc@plt>
    1a15:	48 8d 45 c0          	lea    -0x40(%rbp),%rax
    1a19:	48 89 c7             	mov    %rax,%rdi
    1a1c:	e8 8f fa ff ff       	callq  14b0 <_ZNSt7__cxx1112basic_stringIcSt11char_traitsIcESaIcEED1Ev@plt>
    1a21:	c7 45 ac 08 00 00 00 	movl   $0x8,-0x54(%rbp)
    1a28:	8b 45 ac             	mov    -0x54(%rbp),%eax
    1a2b:	8d 50 ff             	lea    -0x1(%rax),%edx
    1a2e:	89 55 ac             	mov    %edx,-0x54(%rbp)
    1a31:	85 c0                	test   %eax,%eax
    1a33:	0f 95 c0             	setne  %al
    1a36:	84 c0                	test   %al,%al
    1a38:	74 13                	je     1a4d <main+0x303>
    1a3a:	be 62 00 00 00       	mov    $0x62,%esi
    1a3f:	48 8d 3d fa e5 20 00 	lea    0x20e5fa(%rip),%rdi        # 210040 <_ZSt4cout@@GLIBCXX_3.4>
    1a46:	e8 25 fb ff ff       	callq  1570 <_ZStlsISt11char_traitsIcEERSt13basic_ostreamIcT_ES5_c@plt>
    1a4b:	eb db                	jmp    1a28 <main+0x2de>
    1a4d:	48 8d 35 50 86 00 00 	lea    0x8650(%rip),%rsi        # a0a4 <_ZStL6ignore+0x12>
    1a54:	48 8d 3d e5 e5 20 00 	lea    0x20e5e5(%rip),%rdi        # 210040 <_ZSt4cout@@GLIBCXX_3.4>
    1a5b:	e8 c0 fa ff ff       	callq  1520 <_ZStlsISt11char_traitsIcEERSt13basic_ostreamIcT_ES5_PKc@plt>
    1a60:	48 8d 3d 79 e7 20 00 	lea    0x20e779(%rip),%rdi        # 2101e0 <_Z5type3B5cxx11>
    1a67:	e8 8c 2c 00 00       	callq  46f8 <_ZNSt13unordered_mapINSt7__cxx1112basic_stringIcSt11char_traitsIcESaIcEEEmSt4hashIS5_ESt8equal_toIS5_ESaISt4pairIKS5_mEEE5beginEv>
    1a6c:	48 89 45 b0          	mov    %rax,-0x50(%rbp)
    1a70:	48 8d 3d 69 e7 20 00 	lea    0x20e769(%rip),%rdi        # 2101e0 <_Z5type3B5cxx11>
    1a77:	e8 96 2c 00 00       	callq  4712 <_ZNSt13unordered_mapINSt7__cxx1112basic_stringIcSt11char_traitsIcESaIcEEEmSt4hashIS5_ESt8equal_toIS5_ESaISt4pairIKS5_mEEE3endEv>
    1a7c:	48 89 45 b8          	mov    %rax,-0x48(%rbp)
    1a80:	48 8d 55 b8          	lea    -0x48(%rbp),%rdx
    1a84:	48 8d 45 b0          	lea    -0x50(%rbp),%rax
    1a88:	48 89 d6             	mov    %rdx,%rsi
    1a8b:	48 89 c7             	mov    %rax,%rdi
    1a8e:	e8 99 2c 00 00       	callq  472c <_ZNSt8__detailneISt4pairIKNSt7__cxx1112basic_stringIcSt11char_traitsIcESaIcEEEmELb1EEEbRKNS_19_Node_iterator_baseIT_XT0_EEESE_>
    1a93:	84 c0                	test   %al,%al
    1a95:	0f 84 b4 00 00 00    	je     1b4f <main+0x405>
    1a9b:	48 8d 35 08 86 00 00 	lea    0x8608(%rip),%rsi        # a0aa <_ZStL6ignore+0x18>
    1aa2:	48 8d 3d 97 e5 20 00 	lea    0x20e597(%rip),%rdi        # 210040 <_ZSt4cout@@GLIBCXX_3.4>
    1aa9:	e8 72 fa ff ff       	callq  1520 <_ZStlsISt11char_traitsIcEERSt13basic_ostreamIcT_ES5_PKc@plt>
    1aae:	48 89 c3             	mov    %rax,%rbx
    1ab1:	48 8d 45 b0          	lea    -0x50(%rbp),%rax
    1ab5:	48 89 c7             	mov    %rax,%rdi
    1ab8:	e8 e1 2c 00 00       	callq  479e <_ZNKSt8__detail14_Node_iteratorISt4pairIKNSt7__cxx1112basic_stringIcSt11char_traitsIcESaIcEEEmELb0ELb1EEptEv>
    1abd:	48 89 c6             	mov    %rax,%rsi
    1ac0:	48 89 df             	mov    %rbx,%rdi
    1ac3:	e8 38 fa ff ff       	callq  1500 <_ZStlsIcSt11char_traitsIcESaIcEERSt13basic_ostreamIT_T0_ES7_RKNSt7__cxx1112basic_stringIS4_S5_T1_EE@plt>
    1ac8:	48 8d 35 16 86 00 00 	lea    0x8616(%rip),%rsi        # a0e5 <_ZStL6ignore+0x53>
    1acf:	48 89 c7             	mov    %rax,%rdi
    1ad2:	e8 49 fa ff ff       	callq  1520 <_ZStlsISt11char_traitsIcEERSt13basic_ostreamIcT_ES5_PKc@plt>
    1ad7:	48 89 c3             	mov    %rax,%rbx
    1ada:	48 8d 45 b0          	lea    -0x50(%rbp),%rax
    1ade:	48 89 c7             	mov    %rax,%rdi
    1ae1:	e8 b8 2c 00 00       	callq  479e <_ZNKSt8__detail14_Node_iteratorISt4pairIKNSt7__cxx1112basic_stringIcSt11char_traitsIcESaIcEEEmELb0ELb1EEptEv>
    1ae6:	48 8b 40 20          	mov    0x20(%rax),%rax
    1aea:	48 89 c6             	mov    %rax,%rsi
    1aed:	48 89 df             	mov    %rbx,%rdi
    1af0:	e8 5b f9 ff ff       	callq  1450 <_ZNSolsEm@plt>
    1af5:	48 8d 35 00 86 00 00 	lea    0x8600(%rip),%rsi        # a0fc <_ZStL6ignore+0x6a>
    1afc:	48 89 c7             	mov    %rax,%rdi
    1aff:	e8 1c fa ff ff       	callq  1520 <_ZStlsISt11char_traitsIcEERSt13basic_ostreamIcT_ES5_PKc@plt>
    1b04:	48 89 c3             	mov    %rax,%rbx
    1b07:	48 8d 45 b0          	lea    -0x50(%rbp),%rax
    1b0b:	48 89 c7             	mov    %rax,%rdi
    1b0e:	e8 8b 2c 00 00       	callq  479e <_ZNKSt8__detail14_Node_iteratorISt4pairIKNSt7__cxx1112basic_stringIcSt11char_traitsIcESaIcEEEmELb0ELb1EEptEv>
    1b13:	48 8b 40 20          	mov    0x20(%rax),%rax
    1b17:	48 c1 e0 03          	shl    $0x3,%rax
    1b1b:	48 89 c6             	mov    %rax,%rsi
    1b1e:	48 89 df             	mov    %rbx,%rdi
    1b21:	e8 2a f9 ff ff       	callq  1450 <_ZNSolsEm@plt>
    1b26:	48 8d 35 77 85 00 00 	lea    0x8577(%rip),%rsi        # a0a4 <_ZStL6ignore+0x12>
    1b2d:	48 8d 3d 0c e5 20 00 	lea    0x20e50c(%rip),%rdi        # 210040 <_ZSt4cout@@GLIBCXX_3.4>
    1b34:	e8 e7 f9 ff ff       	callq  1520 <_ZStlsISt11char_traitsIcEERSt13basic_ostreamIcT_ES5_PKc@plt>
    1b39:	48 8d 45 b0          	lea    -0x50(%rbp),%rax
    1b3d:	be 00 00 00 00       	mov    $0x0,%esi
    1b42:	48 89 c7             	mov    %rax,%rdi
    1b45:	e8 04 2c 00 00       	callq  474e <_ZNSt8__detail14_Node_iteratorISt4pairIKNSt7__cxx1112basic_stringIcSt11char_traitsIcESaIcEEEmELb0ELb1EEppEi>
    1b4a:	e9 21 ff ff ff       	jmpq   1a70 <main+0x326>
    1b4f:	b8 00 00 00 00       	mov    $0x0,%eax
    1b54:	48 8b 4d e8          	mov    -0x18(%rbp),%rcx
    1b58:	64 48 33 0c 25 28 00 	xor    %fs:0x28,%rcx
    1b5f:	00 00 
    1b61:	74 55                	je     1bb8 <main+0x46e>
    1b63:	eb 4e                	jmp    1bb3 <main+0x469>
    1b65:	48 89 c3             	mov    %rax,%rbx
    1b68:	48 8d 45 c0          	lea    -0x40(%rbp),%rax
    1b6c:	48 89 c7             	mov    %rax,%rdi
    1b6f:	e8 3c f9 ff ff       	callq  14b0 <_ZNSt7__cxx1112basic_stringIcSt11char_traitsIcESaIcEED1Ev@plt>
    1b74:	48 89 d8             	mov    %rbx,%rax
    1b77:	48 89 c7             	mov    %rax,%rdi
    1b7a:	e8 81 fa ff ff       	callq  1600 <_Unwind_Resume@plt>
    1b7f:	48 89 c3             	mov    %rax,%rbx
    1b82:	48 8d 45 c0          	lea    -0x40(%rbp),%rax
    1b86:	48 89 c7             	mov    %rax,%rdi
    1b89:	e8 22 f9 ff ff       	callq  14b0 <_ZNSt7__cxx1112basic_stringIcSt11char_traitsIcESaIcEED1Ev@plt>
    1b8e:	48 89 d8             	mov    %rbx,%rax
    1b91:	48 89 c7             	mov    %rax,%rdi
    1b94:	e8 67 fa ff ff       	callq  1600 <_Unwind_Resume@plt>
    1b99:	48 89 c3             	mov    %rax,%rbx
    1b9c:	48 8d 45 c0          	lea    -0x40(%rbp),%rax
    1ba0:	48 89 c7             	mov    %rax,%rdi
    1ba3:	e8 08 f9 ff ff       	callq  14b0 <_ZNSt7__cxx1112basic_stringIcSt11char_traitsIcESaIcEED1Ev@plt>
    1ba8:	48 89 d8             	mov    %rbx,%rax
    1bab:	48 89 c7             	mov    %rax,%rdi
    1bae:	e8 4d fa ff ff       	callq  1600 <_Unwind_Resume@plt>
    1bb3:	e8 a8 f9 ff ff       	callq  1560 <__stack_chk_fail@plt>
    1bb8:	48 83 c4 58          	add    $0x58,%rsp
    1bbc:	5b                   	pop    %rbx
    1bbd:	5d                   	pop    %rbp
    1bbe:	c3                   	retq   

0000000000001bbf <_Z41__static_initialization_and_destruction_0ii>:
    1bbf:	55                   	push   %rbp
    1bc0:	48 89 e5             	mov    %rsp,%rbp
    1bc3:	41 57                	push   %r15
    1bc5:	41 56                	push   %r14
    1bc7:	41 55                	push   %r13
    1bc9:	41 54                	push   %r12
    1bcb:	53                   	push   %rbx
    1bcc:	48 81 ec 08 09 00 00 	sub    $0x908,%rsp
    1bd3:	89 bd ec f6 ff ff    	mov    %edi,-0x914(%rbp)
    1bd9:	89 b5 e8 f6 ff ff    	mov    %esi,-0x918(%rbp)
    1bdf:	64 48 8b 04 25 28 00 	mov    %fs:0x28,%rax
    1be6:	00 00 
    1be8:	48 89 45 c8          	mov    %rax,-0x38(%rbp)
    1bec:	31 c0                	xor    %eax,%eax
    1bee:	83 bd ec f6 ff ff 01 	cmpl   $0x1,-0x914(%rbp)
    1bf5:	0f 85 4b 11 00 00    	jne    2d46 <_Z41__static_initialization_and_destruction_0ii+0x1187>
    1bfb:	81 bd e8 f6 ff ff ff 	cmpl   $0xffff,-0x918(%rbp)
    1c02:	ff 00 00 
    1c05:	0f 85 3b 11 00 00    	jne    2d46 <_Z41__static_initialization_and_destruction_0ii+0x1187>
    1c0b:	48 8d 3d 06 e6 20 00 	lea    0x20e606(%rip),%rdi        # 210218 <_ZStL8__ioinit>
    1c12:	e8 b9 f9 ff ff       	callq  15d0 <_ZNSt8ios_base4InitC1Ev@plt>
    1c17:	48 8d 15 ea e3 20 00 	lea    0x20e3ea(%rip),%rdx        # 210008 <__dso_handle>
    1c1e:	48 8d 35 f3 e5 20 00 	lea    0x20e5f3(%rip),%rsi        # 210218 <_ZStL8__ioinit>
    1c25:	48 8b 05 b4 e3 20 00 	mov    0x20e3b4(%rip),%rax        # 20ffe0 <_ZNSt8ios_base4InitD1Ev@GLIBCXX_3.4>
    1c2c:	48 89 c7             	mov    %rax,%rdi
    1c2f:	e8 bc f8 ff ff       	callq  14f0 <__cxa_atexit@plt>
    1c34:	48 8d 3d 45 df 20 00 	lea    0x20df45(%rip),%rdi        # 20fb80 <_ZTIi@@CXXABI_1.3>
    1c3b:	e8 3e 11 00 00       	callq  2d7e <_ZNKSt9type_info4nameEv>
    1c40:	48 89 85 10 f8 ff ff 	mov    %rax,-0x7f0(%rbp)
    1c47:	48 8d 8d 10 f8 ff ff 	lea    -0x7f0(%rbp),%rcx
    1c4e:	48 8d 85 70 f8 ff ff 	lea    -0x790(%rbp),%rax
    1c55:	48 8d 15 b6 84 00 00 	lea    0x84b6(%rip),%rdx        # a112 <_ZStL6ignore+0x80>
    1c5c:	48 89 ce             	mov    %rcx,%rsi
    1c5f:	48 89 c7             	mov    %rax,%rdi
    1c62:	e8 31 22 00 00       	callq  3e98 <_ZNSt4pairIKPKcNSt7__cxx1112basic_stringIcSt11char_traitsIcESaIcEEEEC1IS1_RA11_S0_Lb1EEEOT_OT0_>
    1c67:	48 8d 3d 92 df 20 00 	lea    0x20df92(%rip),%rdi        # 20fc00 <_ZTIb@@CXXABI_1.3>
    1c6e:	e8 0b 11 00 00       	callq  2d7e <_ZNKSt9type_info4nameEv>
    1c73:	48 89 85 18 f8 ff ff 	mov    %rax,-0x7e8(%rbp)
    1c7a:	48 8d 85 18 f8 ff ff 	lea    -0x7e8(%rbp),%rax
    1c81:	48 8d 95 70 f8 ff ff 	lea    -0x790(%rbp),%rdx
    1c88:	48 8d 4a 28          	lea    0x28(%rdx),%rcx
    1c8c:	48 8d 15 8a 84 00 00 	lea    0x848a(%rip),%rdx        # a11d <_ZStL6ignore+0x8b>
    1c93:	48 89 c6             	mov    %rax,%rsi
    1c96:	48 89 cf             	mov    %rcx,%rdi
    1c99:	e8 ae 22 00 00       	callq  3f4c <_ZNSt4pairIKPKcNSt7__cxx1112basic_stringIcSt11char_traitsIcESaIcEEEEC1IS1_RA5_S0_Lb1EEEOT_OT0_>
    1c9e:	48 8d 3d eb de 20 00 	lea    0x20deeb(%rip),%rdi        # 20fb90 <_ZTIx@@CXXABI_1.3>
    1ca5:	e8 d4 10 00 00       	callq  2d7e <_ZNKSt9type_info4nameEv>
    1caa:	48 89 85 20 f8 ff ff 	mov    %rax,-0x7e0(%rbp)
    1cb1:	48 8d 85 20 f8 ff ff 	lea    -0x7e0(%rbp),%rax
    1cb8:	48 8d 95 70 f8 ff ff 	lea    -0x790(%rbp),%rdx
    1cbf:	48 8d 4a 50          	lea    0x50(%rdx),%rcx
    1cc3:	48 8d 15 58 84 00 00 	lea    0x8458(%rip),%rdx        # a122 <_ZStL6ignore+0x90>
    1cca:	48 89 c6             	mov    %rax,%rsi
    1ccd:	48 89 cf             	mov    %rcx,%rdi
    1cd0:	e8 2b 23 00 00       	callq  4000 <_ZNSt4pairIKPKcNSt7__cxx1112basic_stringIcSt11char_traitsIcESaIcEEEEC1IS1_RA10_S0_Lb1EEEOT_OT0_>
    1cd5:	48 8d 3d 04 df 20 00 	lea    0x20df04(%rip),%rdi        # 20fbe0 <_ZTIs@@CXXABI_1.3>
    1cdc:	e8 9d 10 00 00       	callq  2d7e <_ZNKSt9type_info4nameEv>
    1ce1:	48 89 85 28 f8 ff ff 	mov    %rax,-0x7d8(%rbp)
    1ce8:	48 8d 85 28 f8 ff ff 	lea    -0x7d8(%rbp),%rax
    1cef:	48 8d 95 70 f8 ff ff 	lea    -0x790(%rbp),%rdx
    1cf6:	48 8d 4a 78          	lea    0x78(%rdx),%rcx
    1cfa:	48 8d 15 2b 84 00 00 	lea    0x842b(%rip),%rdx        # a12c <_ZStL6ignore+0x9a>
    1d01:	48 89 c6             	mov    %rax,%rsi
    1d04:	48 89 cf             	mov    %rcx,%rdi
    1d07:	e8 a8 23 00 00       	callq  40b4 <_ZNSt4pairIKPKcNSt7__cxx1112basic_stringIcSt11char_traitsIcESaIcEEEEC1IS1_RA6_S0_Lb1EEEOT_OT0_>
    1d0c:	48 8d 3d 2d df 20 00 	lea    0x20df2d(%rip),%rdi        # 20fc40 <_ZTId@@CXXABI_1.3>
    1d13:	e8 66 10 00 00       	callq  2d7e <_ZNKSt9type_info4nameEv>
    1d18:	48 89 85 30 f8 ff ff 	mov    %rax,-0x7d0(%rbp)
    1d1f:	48 8d 85 30 f8 ff ff 	lea    -0x7d0(%rbp),%rax
    1d26:	48 8d 95 70 f8 ff ff 	lea    -0x790(%rbp),%rdx
    1d2d:	48 8d 8a a0 00 00 00 	lea    0xa0(%rdx),%rcx
    1d34:	48 8d 15 f7 83 00 00 	lea    0x83f7(%rip),%rdx        # a132 <_ZStL6ignore+0xa0>
    1d3b:	48 89 c6             	mov    %rax,%rsi
    1d3e:	48 89 cf             	mov    %rcx,%rdi
    1d41:	e8 22 24 00 00       	callq  4168 <_ZNSt4pairIKPKcNSt7__cxx1112basic_stringIcSt11char_traitsIcESaIcEEEEC1IS1_RA7_S0_Lb1EEEOT_OT0_>
    1d46:	48 8d 3d c3 de 20 00 	lea    0x20dec3(%rip),%rdi        # 20fc10 <_ZTIf@@CXXABI_1.3>
    1d4d:	e8 2c 10 00 00       	callq  2d7e <_ZNKSt9type_info4nameEv>
    1d52:	48 89 85 38 f8 ff ff 	mov    %rax,-0x7c8(%rbp)
    1d59:	48 8d 85 38 f8 ff ff 	lea    -0x7c8(%rbp),%rax
    1d60:	48 8d 95 70 f8 ff ff 	lea    -0x790(%rbp),%rdx
    1d67:	48 8d 8a c8 00 00 00 	lea    0xc8(%rdx),%rcx
    1d6e:	48 8d 15 c4 83 00 00 	lea    0x83c4(%rip),%rdx        # a139 <_ZStL6ignore+0xa7>
    1d75:	48 89 c6             	mov    %rax,%rsi
    1d78:	48 89 cf             	mov    %rcx,%rdi
    1d7b:	e8 34 23 00 00       	callq  40b4 <_ZNSt4pairIKPKcNSt7__cxx1112basic_stringIcSt11char_traitsIcESaIcEEEEC1IS1_RA6_S0_Lb1EEEOT_OT0_>
    1d80:	48 8d 3d 99 de 20 00 	lea    0x20de99(%rip),%rdi        # 20fc20 <_ZTIj@@CXXABI_1.3>
    1d87:	e8 f2 0f 00 00       	callq  2d7e <_ZNKSt9type_info4nameEv>
    1d8c:	48 89 85 40 f8 ff ff 	mov    %rax,-0x7c0(%rbp)
    1d93:	48 8d 85 40 f8 ff ff 	lea    -0x7c0(%rbp),%rax
    1d9a:	48 8d 95 70 f8 ff ff 	lea    -0x790(%rbp),%rdx
    1da1:	48 8d 8a f0 00 00 00 	lea    0xf0(%rdx),%rcx
    1da8:	48 8d 15 90 83 00 00 	lea    0x8390(%rip),%rdx        # a13f <_ZStL6ignore+0xad>
    1daf:	48 89 c6             	mov    %rax,%rsi
    1db2:	48 89 cf             	mov    %rcx,%rdi
    1db5:	e8 62 24 00 00       	callq  421c <_ZNSt4pairIKPKcNSt7__cxx1112basic_stringIcSt11char_traitsIcESaIcEEEEC1IS1_RA13_S0_Lb1EEEOT_OT0_>
    1dba:	48 8d 3d bf de 20 00 	lea    0x20debf(%rip),%rdi        # 20fc80 <_ZTVN10__cxxabiv117__class_type_infoE@CXXABI_1.3>
    1dc1:	e8 b8 0f 00 00       	callq  2d7e <_ZNKSt9type_info4nameEv>
    1dc6:	48 89 85 48 f8 ff ff 	mov    %rax,-0x7b8(%rbp)
    1dcd:	48 8d 85 48 f8 ff ff 	lea    -0x7b8(%rbp),%rax
    1dd4:	48 8d 95 70 f8 ff ff 	lea    -0x790(%rbp),%rdx
    1ddb:	48 8d 8a 18 01 00 00 	lea    0x118(%rdx),%rcx
    1de2:	48 8d 15 63 83 00 00 	lea    0x8363(%rip),%rdx        # a14c <_ZStL6ignore+0xba>
    1de9:	48 89 c6             	mov    %rax,%rsi
    1dec:	48 89 cf             	mov    %rcx,%rdi
    1def:	e8 74 23 00 00       	callq  4168 <_ZNSt4pairIKPKcNSt7__cxx1112basic_stringIcSt11char_traitsIcESaIcEEEEC1IS1_RA7_S0_Lb1EEEOT_OT0_>
    1df4:	48 8d 3d c5 dd 20 00 	lea    0x20ddc5(%rip),%rdi        # 20fbc0 <_ZTIPi@@CXXABI_1.3>
    1dfb:	e8 7e 0f 00 00       	callq  2d7e <_ZNKSt9type_info4nameEv>
    1e00:	48 89 85 50 f8 ff ff 	mov    %rax,-0x7b0(%rbp)
    1e07:	48 8d 85 50 f8 ff ff 	lea    -0x7b0(%rbp),%rax
    1e0e:	48 8d 95 70 f8 ff ff 	lea    -0x790(%rbp),%rdx
    1e15:	48 8d 8a 40 01 00 00 	lea    0x140(%rdx),%rcx
    1e1c:	48 8d 15 30 83 00 00 	lea    0x8330(%rip),%rdx        # a153 <_ZStL6ignore+0xc1>
    1e23:	48 89 c6             	mov    %rax,%rsi
    1e26:	48 89 cf             	mov    %rcx,%rdi
    1e29:	e8 ee 23 00 00       	callq  421c <_ZNSt4pairIKPKcNSt7__cxx1112basic_stringIcSt11char_traitsIcESaIcEEEEC1IS1_RA13_S0_Lb1EEEOT_OT0_>
    1e2e:	48 8d 3d 2b de 20 00 	lea    0x20de2b(%rip),%rdi        # 20fc60 <_ZTIPj@@CXXABI_1.3>
    1e35:	e8 44 0f 00 00       	callq  2d7e <_ZNKSt9type_info4nameEv>
    1e3a:	48 89 85 58 f8 ff ff 	mov    %rax,-0x7a8(%rbp)
    1e41:	48 8d 85 58 f8 ff ff 	lea    -0x7a8(%rbp),%rax
    1e48:	48 8d 95 70 f8 ff ff 	lea    -0x790(%rbp),%rdx
    1e4f:	48 8d 8a 68 01 00 00 	lea    0x168(%rdx),%rcx
    1e56:	48 8d 15 03 83 00 00 	lea    0x8303(%rip),%rdx        # a160 <_ZStL6ignore+0xce>
    1e5d:	48 89 c6             	mov    %rax,%rsi
    1e60:	48 89 cf             	mov    %rcx,%rdi
    1e63:	e8 68 24 00 00       	callq  42d0 <_ZNSt4pairIKPKcNSt7__cxx1112basic_stringIcSt11char_traitsIcESaIcEEEEC1IS1_RA15_S0_Lb1EEEOT_OT0_>
    1e68:	48 8d 3d 31 dd 20 00 	lea    0x20dd31(%rip),%rdi        # 20fba0 <_ZTIPv@@CXXABI_1.3>
    1e6f:	e8 0a 0f 00 00       	callq  2d7e <_ZNKSt9type_info4nameEv>
    1e74:	48 89 85 60 f8 ff ff 	mov    %rax,-0x7a0(%rbp)
    1e7b:	48 8d 85 60 f8 ff ff 	lea    -0x7a0(%rbp),%rax
    1e82:	48 8d 95 70 f8 ff ff 	lea    -0x790(%rbp),%rdx
    1e89:	48 8d 8a 90 01 00 00 	lea    0x190(%rdx),%rcx
    1e90:	48 8d 15 d8 82 00 00 	lea    0x82d8(%rip),%rdx        # a16f <_ZStL6ignore+0xdd>
    1e97:	48 89 c6             	mov    %rax,%rsi
    1e9a:	48 89 cf             	mov    %rcx,%rdi
    1e9d:	e8 c6 22 00 00       	callq  4168 <_ZNSt4pairIKPKcNSt7__cxx1112basic_stringIcSt11char_traitsIcESaIcEEEEC1IS1_RA7_S0_Lb1EEEOT_OT0_>
    1ea2:	48 8d 3d 47 dd 20 00 	lea    0x20dd47(%rip),%rdi        # 20fbf0 <_ZTIv@@CXXABI_1.3>
    1ea9:	e8 d0 0e 00 00       	callq  2d7e <_ZNKSt9type_info4nameEv>
    1eae:	48 89 85 68 f8 ff ff 	mov    %rax,-0x798(%rbp)
    1eb5:	48 8d 85 68 f8 ff ff 	lea    -0x798(%rbp),%rax
    1ebc:	48 8d 95 70 f8 ff ff 	lea    -0x790(%rbp),%rdx
    1ec3:	48 8d 8a b8 01 00 00 	lea    0x1b8(%rdx),%rcx
    1eca:	48 8d 15 a5 82 00 00 	lea    0x82a5(%rip),%rdx        # a176 <_ZStL6ignore+0xe4>
    1ed1:	48 89 c6             	mov    %rax,%rsi
    1ed4:	48 89 cf             	mov    %rcx,%rdi
    1ed7:	e8 70 20 00 00       	callq  3f4c <_ZNSt4pairIKPKcNSt7__cxx1112basic_stringIcSt11char_traitsIcESaIcEEEEC1IS1_RA5_S0_Lb1EEEOT_OT0_>
    1edc:	48 8d 85 70 f8 ff ff 	lea    -0x790(%rbp),%rax
    1ee3:	48 89 85 d0 f6 ff ff 	mov    %rax,-0x930(%rbp)
    1eea:	48 c7 85 d8 f6 ff ff 	movq   $0xc,-0x928(%rbp)
    1ef1:	0c 00 00 00 
    1ef5:	48 8d 85 08 f8 ff ff 	lea    -0x7f8(%rbp),%rax
    1efc:	48 89 c7             	mov    %rax,%rdi
    1eff:	e8 80 24 00 00       	callq  4384 <_ZNSaISt4pairIKPKcNSt7__cxx1112basic_stringIcSt11char_traitsIcESaIcEEEEEC1Ev>
    1f04:	48 8d bd 00 f8 ff ff 	lea    -0x800(%rbp),%rdi
    1f0b:	48 8d b5 f8 f7 ff ff 	lea    -0x808(%rbp),%rsi
    1f12:	48 8b 85 d0 f6 ff ff 	mov    -0x930(%rbp),%rax
    1f19:	48 8b 95 d8 f6 ff ff 	mov    -0x928(%rbp),%rdx
    1f20:	48 89 c1             	mov    %rax,%rcx
    1f23:	48 89 d3             	mov    %rdx,%rbx
    1f26:	49 89 ca             	mov    %rcx,%r10
    1f29:	48 83 ec 08          	sub    $0x8,%rsp
    1f2d:	48 8d 85 08 f8 ff ff 	lea    -0x7f8(%rbp),%rax
    1f34:	50                   	push   %rax
    1f35:	49 89 f9             	mov    %rdi,%r9
    1f38:	49 89 f0             	mov    %rsi,%r8
    1f3b:	b9 00 00 00 00       	mov    $0x0,%ecx
    1f40:	4c 89 d6             	mov    %r10,%rsi
    1f43:	48 8d 3d 16 e2 20 00 	lea    0x20e216(%rip),%rdi        # 210160 <_Z5type1B5cxx11>
    1f4a:	e8 6d 24 00 00       	callq  43bc <_ZNSt13unordered_mapIPKcNSt7__cxx1112basic_stringIcSt11char_traitsIcESaIcEEESt4hashIS1_ESt8equal_toIS1_ESaISt4pairIKS1_S7_EEEC1ESt16initializer_listISE_EmRKS9_RKSB_RKSF_>
    1f4f:	48 83 c4 10          	add    $0x10,%rsp
    1f53:	48 8d 85 08 f8 ff ff 	lea    -0x7f8(%rbp),%rax
    1f5a:	48 89 c7             	mov    %rax,%rdi
    1f5d:	e8 3e 24 00 00       	callq  43a0 <_ZNSaISt4pairIKPKcNSt7__cxx1112basic_stringIcSt11char_traitsIcESaIcEEEEED1Ev>
    1f62:	48 8d 9d 70 f8 ff ff 	lea    -0x790(%rbp),%rbx
    1f69:	48 81 c3 e0 01 00 00 	add    $0x1e0,%rbx
    1f70:	48 8d 85 70 f8 ff ff 	lea    -0x790(%rbp),%rax
    1f77:	48 39 c3             	cmp    %rax,%rbx
    1f7a:	74 0e                	je     1f8a <_Z41__static_initialization_and_destruction_0ii+0x3cb>
    1f7c:	48 83 eb 28          	sub    $0x28,%rbx
    1f80:	48 89 df             	mov    %rbx,%rdi
    1f83:	e8 62 10 00 00       	callq  2fea <_ZNSt4pairIKPKcNSt7__cxx1112basic_stringIcSt11char_traitsIcESaIcEEEED1Ev>
    1f88:	eb e6                	jmp    1f70 <_Z41__static_initialization_and_destruction_0ii+0x3b1>
    1f8a:	48 8d 15 77 e0 20 00 	lea    0x20e077(%rip),%rdx        # 210008 <__dso_handle>
    1f91:	48 8d 35 c8 e1 20 00 	lea    0x20e1c8(%rip),%rsi        # 210160 <_Z5type1B5cxx11>
    1f98:	48 8d 3d 6b 10 00 00 	lea    0x106b(%rip),%rdi        # 300a <_ZNSt13unordered_mapIPKcNSt7__cxx1112basic_stringIcSt11char_traitsIcESaIcEEESt4hashIS1_ESt8equal_toIS1_ESaISt4pairIKS1_S7_EEED1Ev>
    1f9f:	e8 4c f5 ff ff       	callq  14f0 <__cxa_atexit@plt>
    1fa4:	c7 85 10 f8 ff ff 00 	movl   $0x0,-0x7f0(%rbp)
    1fab:	00 00 00 
    1fae:	48 8d 8d 10 f8 ff ff 	lea    -0x7f0(%rbp),%rcx
    1fb5:	48 8d 85 70 f8 ff ff 	lea    -0x790(%rbp),%rax
    1fbc:	48 8d 15 4f 81 00 00 	lea    0x814f(%rip),%rdx        # a112 <_ZStL6ignore+0x80>
    1fc3:	48 89 ce             	mov    %rcx,%rsi
    1fc6:	48 89 c7             	mov    %rax,%rdi
    1fc9:	e8 86 10 00 00       	callq  3054 <_ZNSt4pairIKiNSt7__cxx1112basic_stringIcSt11char_traitsIcESaIcEEEEC1IiRA11_KcLb1EEEOT_OT0_>
    1fce:	c7 85 18 f8 ff ff 01 	movl   $0x1,-0x7e8(%rbp)
    1fd5:	00 00 00 
    1fd8:	48 8d 85 18 f8 ff ff 	lea    -0x7e8(%rbp),%rax
    1fdf:	48 8d 95 70 f8 ff ff 	lea    -0x790(%rbp),%rdx
    1fe6:	48 8d 4a 28          	lea    0x28(%rdx),%rcx
    1fea:	48 8d 15 2c 81 00 00 	lea    0x812c(%rip),%rdx        # a11d <_ZStL6ignore+0x8b>
    1ff1:	48 89 c6             	mov    %rax,%rsi
    1ff4:	48 89 cf             	mov    %rcx,%rdi
    1ff7:	e8 18 11 00 00       	callq  3114 <_ZNSt4pairIKiNSt7__cxx1112basic_stringIcSt11char_traitsIcESaIcEEEEC1IiRA5_KcLb1EEEOT_OT0_>
    1ffc:	c7 85 20 f8 ff ff 02 	movl   $0x2,-0x7e0(%rbp)
    2003:	00 00 00 
    2006:	48 8d 85 20 f8 ff ff 	lea    -0x7e0(%rbp),%rax
    200d:	48 8d 95 70 f8 ff ff 	lea    -0x790(%rbp),%rdx
    2014:	48 8d 4a 50          	lea    0x50(%rdx),%rcx
    2018:	48 8d 15 03 81 00 00 	lea    0x8103(%rip),%rdx        # a122 <_ZStL6ignore+0x90>
    201f:	48 89 c6             	mov    %rax,%rsi
    2022:	48 89 cf             	mov    %rcx,%rdi
    2025:	e8 aa 11 00 00       	callq  31d4 <_ZNSt4pairIKiNSt7__cxx1112basic_stringIcSt11char_traitsIcESaIcEEEEC1IiRA10_KcLb1EEEOT_OT0_>
    202a:	c7 85 28 f8 ff ff 03 	movl   $0x3,-0x7d8(%rbp)
    2031:	00 00 00 
    2034:	48 8d 85 28 f8 ff ff 	lea    -0x7d8(%rbp),%rax
    203b:	48 8d 95 70 f8 ff ff 	lea    -0x790(%rbp),%rdx
    2042:	48 8d 4a 78          	lea    0x78(%rdx),%rcx
    2046:	48 8d 15 df 80 00 00 	lea    0x80df(%rip),%rdx        # a12c <_ZStL6ignore+0x9a>
    204d:	48 89 c6             	mov    %rax,%rsi
    2050:	48 89 cf             	mov    %rcx,%rdi
    2053:	e8 3c 12 00 00       	callq  3294 <_ZNSt4pairIKiNSt7__cxx1112basic_stringIcSt11char_traitsIcESaIcEEEEC1IiRA6_KcLb1EEEOT_OT0_>
    2058:	c7 85 30 f8 ff ff 04 	movl   $0x4,-0x7d0(%rbp)
    205f:	00 00 00 
    2062:	48 8d 85 30 f8 ff ff 	lea    -0x7d0(%rbp),%rax
    2069:	48 8d 95 70 f8 ff ff 	lea    -0x790(%rbp),%rdx
    2070:	48 8d 8a a0 00 00 00 	lea    0xa0(%rdx),%rcx
    2077:	48 8d 15 b4 80 00 00 	lea    0x80b4(%rip),%rdx        # a132 <_ZStL6ignore+0xa0>
    207e:	48 89 c6             	mov    %rax,%rsi
    2081:	48 89 cf             	mov    %rcx,%rdi
    2084:	e8 cb 12 00 00       	callq  3354 <_ZNSt4pairIKiNSt7__cxx1112basic_stringIcSt11char_traitsIcESaIcEEEEC1IiRA7_KcLb1EEEOT_OT0_>
    2089:	c7 85 38 f8 ff ff 05 	movl   $0x5,-0x7c8(%rbp)
    2090:	00 00 00 
    2093:	48 8d 85 38 f8 ff ff 	lea    -0x7c8(%rbp),%rax
    209a:	48 8d 95 70 f8 ff ff 	lea    -0x790(%rbp),%rdx
    20a1:	48 8d 8a c8 00 00 00 	lea    0xc8(%rdx),%rcx
    20a8:	48 8d 15 8a 80 00 00 	lea    0x808a(%rip),%rdx        # a139 <_ZStL6ignore+0xa7>
    20af:	48 89 c6             	mov    %rax,%rsi
    20b2:	48 89 cf             	mov    %rcx,%rdi
    20b5:	e8 da 11 00 00       	callq  3294 <_ZNSt4pairIKiNSt7__cxx1112basic_stringIcSt11char_traitsIcESaIcEEEEC1IiRA6_KcLb1EEEOT_OT0_>
    20ba:	c7 85 40 f8 ff ff 06 	movl   $0x6,-0x7c0(%rbp)
    20c1:	00 00 00 
    20c4:	48 8d 85 40 f8 ff ff 	lea    -0x7c0(%rbp),%rax
    20cb:	48 8d 95 70 f8 ff ff 	lea    -0x790(%rbp),%rdx
    20d2:	48 8d 8a f0 00 00 00 	lea    0xf0(%rdx),%rcx
    20d9:	48 8d 15 5f 80 00 00 	lea    0x805f(%rip),%rdx        # a13f <_ZStL6ignore+0xad>
    20e0:	48 89 c6             	mov    %rax,%rsi
    20e3:	48 89 cf             	mov    %rcx,%rdi
    20e6:	e8 29 13 00 00       	callq  3414 <_ZNSt4pairIKiNSt7__cxx1112basic_stringIcSt11char_traitsIcESaIcEEEEC1IiRA13_KcLb1EEEOT_OT0_>
    20eb:	c7 85 48 f8 ff ff 07 	movl   $0x7,-0x7b8(%rbp)
    20f2:	00 00 00 
    20f5:	48 8d 85 48 f8 ff ff 	lea    -0x7b8(%rbp),%rax
    20fc:	48 8d 95 70 f8 ff ff 	lea    -0x790(%rbp),%rdx
    2103:	48 8d 8a 18 01 00 00 	lea    0x118(%rdx),%rcx
    210a:	48 8d 15 3b 80 00 00 	lea    0x803b(%rip),%rdx        # a14c <_ZStL6ignore+0xba>
    2111:	48 89 c6             	mov    %rax,%rsi
    2114:	48 89 cf             	mov    %rcx,%rdi
    2117:	e8 38 12 00 00       	callq  3354 <_ZNSt4pairIKiNSt7__cxx1112basic_stringIcSt11char_traitsIcESaIcEEEEC1IiRA7_KcLb1EEEOT_OT0_>
    211c:	c7 85 50 f8 ff ff 08 	movl   $0x8,-0x7b0(%rbp)
    2123:	00 00 00 
    2126:	48 8d 85 50 f8 ff ff 	lea    -0x7b0(%rbp),%rax
    212d:	48 8d 95 70 f8 ff ff 	lea    -0x790(%rbp),%rdx
    2134:	48 8d 8a 40 01 00 00 	lea    0x140(%rdx),%rcx
    213b:	48 8d 15 11 80 00 00 	lea    0x8011(%rip),%rdx        # a153 <_ZStL6ignore+0xc1>
    2142:	48 89 c6             	mov    %rax,%rsi
    2145:	48 89 cf             	mov    %rcx,%rdi
    2148:	e8 c7 12 00 00       	callq  3414 <_ZNSt4pairIKiNSt7__cxx1112basic_stringIcSt11char_traitsIcESaIcEEEEC1IiRA13_KcLb1EEEOT_OT0_>
    214d:	c7 85 58 f8 ff ff 09 	movl   $0x9,-0x7a8(%rbp)
    2154:	00 00 00 
    2157:	48 8d 85 58 f8 ff ff 	lea    -0x7a8(%rbp),%rax
    215e:	48 8d 95 70 f8 ff ff 	lea    -0x790(%rbp),%rdx
    2165:	48 8d 8a 68 01 00 00 	lea    0x168(%rdx),%rcx
    216c:	48 8d 15 ed 7f 00 00 	lea    0x7fed(%rip),%rdx        # a160 <_ZStL6ignore+0xce>
    2173:	48 89 c6             	mov    %rax,%rsi
    2176:	48 89 cf             	mov    %rcx,%rdi
    2179:	e8 56 13 00 00       	callq  34d4 <_ZNSt4pairIKiNSt7__cxx1112basic_stringIcSt11char_traitsIcESaIcEEEEC1IiRA15_KcLb1EEEOT_OT0_>
    217e:	c7 85 60 f8 ff ff 0a 	movl   $0xa,-0x7a0(%rbp)
    2185:	00 00 00 
    2188:	48 8d 85 60 f8 ff ff 	lea    -0x7a0(%rbp),%rax
    218f:	48 8d 95 70 f8 ff ff 	lea    -0x790(%rbp),%rdx
    2196:	48 8d 8a 90 01 00 00 	lea    0x190(%rdx),%rcx
    219d:	48 8d 15 cb 7f 00 00 	lea    0x7fcb(%rip),%rdx        # a16f <_ZStL6ignore+0xdd>
    21a4:	48 89 c6             	mov    %rax,%rsi
    21a7:	48 89 cf             	mov    %rcx,%rdi
    21aa:	e8 a5 11 00 00       	callq  3354 <_ZNSt4pairIKiNSt7__cxx1112basic_stringIcSt11char_traitsIcESaIcEEEEC1IiRA7_KcLb1EEEOT_OT0_>
    21af:	c7 85 68 f8 ff ff 0b 	movl   $0xb,-0x798(%rbp)
    21b6:	00 00 00 
    21b9:	48 8d 85 68 f8 ff ff 	lea    -0x798(%rbp),%rax
    21c0:	48 8d 95 70 f8 ff ff 	lea    -0x790(%rbp),%rdx
    21c7:	48 8d 8a b8 01 00 00 	lea    0x1b8(%rdx),%rcx
    21ce:	48 8d 15 a1 7f 00 00 	lea    0x7fa1(%rip),%rdx        # a176 <_ZStL6ignore+0xe4>
    21d5:	48 89 c6             	mov    %rax,%rsi
    21d8:	48 89 cf             	mov    %rcx,%rdi
    21db:	e8 34 0f 00 00       	callq  3114 <_ZNSt4pairIKiNSt7__cxx1112basic_stringIcSt11char_traitsIcESaIcEEEEC1IiRA5_KcLb1EEEOT_OT0_>
    21e0:	48 8d 85 70 f8 ff ff 	lea    -0x790(%rbp),%rax
    21e7:	49 89 c6             	mov    %rax,%r14
    21ea:	41 bf 0c 00 00 00    	mov    $0xc,%r15d
    21f0:	48 8d 85 08 f8 ff ff 	lea    -0x7f8(%rbp),%rax
    21f7:	48 89 c7             	mov    %rax,%rdi
    21fa:	e8 87 22 00 00       	callq  4486 <_ZNSaISt4pairIKiNSt7__cxx1112basic_stringIcSt11char_traitsIcESaIcEEEEEC1Ev>
    21ff:	48 8d bd 00 f8 ff ff 	lea    -0x800(%rbp),%rdi
    2206:	48 8d b5 f8 f7 ff ff 	lea    -0x808(%rbp),%rsi
    220d:	4c 89 f1             	mov    %r14,%rcx
    2210:	4c 89 fb             	mov    %r15,%rbx
    2213:	4c 89 f0             	mov    %r14,%rax
    2216:	4c 89 fa             	mov    %r15,%rdx
    2219:	49 89 ca             	mov    %rcx,%r10
    221c:	48 83 ec 08          	sub    $0x8,%rsp
    2220:	48 8d 85 08 f8 ff ff 	lea    -0x7f8(%rbp),%rax
    2227:	50                   	push   %rax
    2228:	49 89 f9             	mov    %rdi,%r9
    222b:	49 89 f0             	mov    %rsi,%r8
    222e:	b9 00 00 00 00       	mov    $0x0,%ecx
    2233:	4c 89 d6             	mov    %r10,%rsi
    2236:	48 8d 3d 63 df 20 00 	lea    0x20df63(%rip),%rdi        # 2101a0 <_Z5type2B5cxx11>
    223d:	e8 7c 22 00 00       	callq  44be <_ZNSt13unordered_mapIiNSt7__cxx1112basic_stringIcSt11char_traitsIcESaIcEEESt4hashIiESt8equal_toIiESaISt4pairIKiS5_EEEC1ESt16initializer_listISC_EmRKS7_RKS9_RKSD_>
    2242:	48 83 c4 10          	add    $0x10,%rsp
    2246:	48 8d 85 08 f8 ff ff 	lea    -0x7f8(%rbp),%rax
    224d:	48 89 c7             	mov    %rax,%rdi
    2250:	e8 4d 22 00 00       	callq  44a2 <_ZNSaISt4pairIKiNSt7__cxx1112basic_stringIcSt11char_traitsIcESaIcEEEEED1Ev>
    2255:	48 8d 9d 70 f8 ff ff 	lea    -0x790(%rbp),%rbx
    225c:	48 81 c3 e0 01 00 00 	add    $0x1e0,%rbx
    2263:	48 8d 85 70 f8 ff ff 	lea    -0x790(%rbp),%rax
    226a:	48 39 c3             	cmp    %rax,%rbx
    226d:	74 0e                	je     227d <_Z41__static_initialization_and_destruction_0ii+0x6be>
    226f:	48 83 eb 28          	sub    $0x28,%rbx
    2273:	48 89 df             	mov    %rbx,%rdi
    2276:	e8 ab 0d 00 00       	callq  3026 <_ZNSt4pairIKiNSt7__cxx1112basic_stringIcSt11char_traitsIcESaIcEEEED1Ev>
    227b:	eb e6                	jmp    2263 <_Z41__static_initialization_and_destruction_0ii+0x6a4>
    227d:	48 8d 15 84 dd 20 00 	lea    0x20dd84(%rip),%rdx        # 210008 <__dso_handle>
    2284:	48 8d 35 15 df 20 00 	lea    0x20df15(%rip),%rsi        # 2101a0 <_Z5type2B5cxx11>
    228b:	48 8d 3d f4 12 00 00 	lea    0x12f4(%rip),%rdi        # 3586 <_ZNSt13unordered_mapIiNSt7__cxx1112basic_stringIcSt11char_traitsIcESaIcEEESt4hashIiESt8equal_toIiESaISt4pairIKiS5_EEED1Ev>
    2292:	e8 59 f2 ff ff       	callq  14f0 <__cxa_atexit@plt>
    2297:	48 c7 85 f8 f6 ff ff 	movq   $0x4,-0x908(%rbp)
    229e:	04 00 00 00 
    22a2:	48 8d 95 f8 f6 ff ff 	lea    -0x908(%rbp),%rdx
    22a9:	48 8d 85 70 f8 ff ff 	lea    -0x790(%rbp),%rax
    22b0:	48 8d 35 5b 7e 00 00 	lea    0x7e5b(%rip),%rsi        # a112 <_ZStL6ignore+0x80>
    22b7:	48 89 c7             	mov    %rax,%rdi
    22ba:	e8 ff 12 00 00       	callq  35be <_ZNSt4pairIKNSt7__cxx1112basic_stringIcSt11char_traitsIcESaIcEEEmEC1IRA11_KcmLb1EEEOT_OT0_>
    22bf:	48 c7 85 00 f7 ff ff 	movq   $0x1,-0x900(%rbp)
    22c6:	01 00 00 00 
    22ca:	48 8d 85 00 f7 ff ff 	lea    -0x900(%rbp),%rax
    22d1:	48 8d 95 70 f8 ff ff 	lea    -0x790(%rbp),%rdx
    22d8:	48 8d 4a 28          	lea    0x28(%rdx),%rcx
    22dc:	48 89 c2             	mov    %rax,%rdx
    22df:	48 8d 35 37 7e 00 00 	lea    0x7e37(%rip),%rsi        # a11d <_ZStL6ignore+0x8b>
    22e6:	48 89 cf             	mov    %rcx,%rdi
    22e9:	e8 80 13 00 00       	callq  366e <_ZNSt4pairIKNSt7__cxx1112basic_stringIcSt11char_traitsIcESaIcEEEmEC1IRA5_KcmLb1EEEOT_OT0_>
    22ee:	48 c7 85 08 f7 ff ff 	movq   $0x8,-0x8f8(%rbp)
    22f5:	08 00 00 00 
    22f9:	48 8d 85 08 f7 ff ff 	lea    -0x8f8(%rbp),%rax
    2300:	48 8d 95 70 f8 ff ff 	lea    -0x790(%rbp),%rdx
    2307:	48 8d 4a 50          	lea    0x50(%rdx),%rcx
    230b:	48 89 c2             	mov    %rax,%rdx
    230e:	48 8d 35 0d 7e 00 00 	lea    0x7e0d(%rip),%rsi        # a122 <_ZStL6ignore+0x90>
    2315:	48 89 cf             	mov    %rcx,%rdi
    2318:	e8 01 14 00 00       	callq  371e <_ZNSt4pairIKNSt7__cxx1112basic_stringIcSt11char_traitsIcESaIcEEEmEC1IRA10_KcmLb1EEEOT_OT0_>
    231d:	48 c7 85 10 f7 ff ff 	movq   $0x2,-0x8f0(%rbp)
    2324:	02 00 00 00 
    2328:	48 8d 85 10 f7 ff ff 	lea    -0x8f0(%rbp),%rax
    232f:	48 8d 95 70 f8 ff ff 	lea    -0x790(%rbp),%rdx
    2336:	48 8d 4a 78          	lea    0x78(%rdx),%rcx
    233a:	48 89 c2             	mov    %rax,%rdx
    233d:	48 8d 35 e8 7d 00 00 	lea    0x7de8(%rip),%rsi        # a12c <_ZStL6ignore+0x9a>
    2344:	48 89 cf             	mov    %rcx,%rdi
    2347:	e8 82 14 00 00       	callq  37ce <_ZNSt4pairIKNSt7__cxx1112basic_stringIcSt11char_traitsIcESaIcEEEmEC1IRA6_KcmLb1EEEOT_OT0_>
    234c:	48 c7 85 18 f7 ff ff 	movq   $0x2,-0x8e8(%rbp)
    2353:	02 00 00 00 
    2357:	48 8d 85 18 f7 ff ff 	lea    -0x8e8(%rbp),%rax
    235e:	48 8d 95 70 f8 ff ff 	lea    -0x790(%rbp),%rdx
    2365:	48 8d 8a a0 00 00 00 	lea    0xa0(%rdx),%rcx
    236c:	48 89 c2             	mov    %rax,%rdx
    236f:	48 8d 35 05 7e 00 00 	lea    0x7e05(%rip),%rsi        # a17b <_ZStL6ignore+0xe9>
    2376:	48 89 cf             	mov    %rcx,%rdi
    2379:	e8 00 15 00 00       	callq  387e <_ZNSt4pairIKNSt7__cxx1112basic_stringIcSt11char_traitsIcESaIcEEEmEC1IRA15_KcmLb1EEEOT_OT0_>
    237e:	48 c7 85 20 f7 ff ff 	movq   $0x8,-0x8e0(%rbp)
    2385:	08 00 00 00 
    2389:	48 8d 85 20 f7 ff ff 	lea    -0x8e0(%rbp),%rax
    2390:	48 8d 95 70 f8 ff ff 	lea    -0x790(%rbp),%rdx
    2397:	48 8d 8a c8 00 00 00 	lea    0xc8(%rdx),%rcx
    239e:	48 89 c2             	mov    %rax,%rdx
    23a1:	48 8d 35 8a 7d 00 00 	lea    0x7d8a(%rip),%rsi        # a132 <_ZStL6ignore+0xa0>
    23a8:	48 89 cf             	mov    %rcx,%rdi
    23ab:	e8 7e 15 00 00       	callq  392e <_ZNSt4pairIKNSt7__cxx1112basic_stringIcSt11char_traitsIcESaIcEEEmEC1IRA7_KcmLb1EEEOT_OT0_>
    23b0:	48 c7 85 28 f7 ff ff 	movq   $0x10,-0x8d8(%rbp)
    23b7:	10 00 00 00 
    23bb:	48 8d 85 28 f7 ff ff 	lea    -0x8d8(%rbp),%rax
    23c2:	48 8d 95 70 f8 ff ff 	lea    -0x790(%rbp),%rdx
    23c9:	48 8d 8a f0 00 00 00 	lea    0xf0(%rdx),%rcx
    23d0:	48 89 c2             	mov    %rax,%rdx
    23d3:	48 8d 35 b0 7d 00 00 	lea    0x7db0(%rip),%rsi        # a18a <_ZStL6ignore+0xf8>
    23da:	48 89 cf             	mov    %rcx,%rdi
    23dd:	e8 0a 16 00 00       	callq  39ec <_ZNSt4pairIKNSt7__cxx1112basic_stringIcSt11char_traitsIcESaIcEEEmEC1IRA12_KcmLb1EEEOT_OT0_>
    23e2:	48 c7 85 30 f7 ff ff 	movq   $0x4,-0x8d0(%rbp)
    23e9:	04 00 00 00 
    23ed:	48 8d 85 30 f7 ff ff 	lea    -0x8d0(%rbp),%rax
    23f4:	48 8d 95 70 f8 ff ff 	lea    -0x790(%rbp),%rdx
    23fb:	48 8d 8a 18 01 00 00 	lea    0x118(%rdx),%rcx
    2402:	48 89 c2             	mov    %rax,%rdx
    2405:	48 8d 35 2d 7d 00 00 	lea    0x7d2d(%rip),%rsi        # a139 <_ZStL6ignore+0xa7>
    240c:	48 89 cf             	mov    %rcx,%rdi
    240f:	e8 ba 13 00 00       	callq  37ce <_ZNSt4pairIKNSt7__cxx1112basic_stringIcSt11char_traitsIcESaIcEEEmEC1IRA6_KcmLb1EEEOT_OT0_>
    2414:	48 c7 85 38 f7 ff ff 	movq   $0x4,-0x8c8(%rbp)
    241b:	04 00 00 00 
    241f:	48 8d 85 38 f7 ff ff 	lea    -0x8c8(%rbp),%rax
    2426:	48 8d 95 70 f8 ff ff 	lea    -0x790(%rbp),%rdx
    242d:	48 8d 8a 40 01 00 00 	lea    0x140(%rdx),%rcx
    2434:	48 89 c2             	mov    %rax,%rdx
    2437:	48 8d 35 01 7d 00 00 	lea    0x7d01(%rip),%rsi        # a13f <_ZStL6ignore+0xad>
    243e:	48 89 cf             	mov    %rcx,%rdi
    2441:	e8 56 16 00 00       	callq  3a9c <_ZNSt4pairIKNSt7__cxx1112basic_stringIcSt11char_traitsIcESaIcEEEmEC1IRA13_KcmLb1EEEOT_OT0_>
    2446:	48 c7 85 40 f7 ff ff 	movq   $0x8,-0x8c0(%rbp)
    244d:	08 00 00 00 
    2451:	48 8d 85 40 f7 ff ff 	lea    -0x8c0(%rbp),%rax
    2458:	48 8d 95 70 f8 ff ff 	lea    -0x790(%rbp),%rdx
    245f:	48 8d 8a 68 01 00 00 	lea    0x168(%rdx),%rcx
    2466:	48 89 c2             	mov    %rax,%rdx
    2469:	48 8d 35 26 7d 00 00 	lea    0x7d26(%rip),%rsi        # a196 <_ZStL6ignore+0x104>
    2470:	48 89 cf             	mov    %rcx,%rdi
    2473:	e8 e2 16 00 00       	callq  3b5a <_ZNSt4pairIKNSt7__cxx1112basic_stringIcSt11char_traitsIcESaIcEEEmEC1IRA14_KcmLb1EEEOT_OT0_>
    2478:	48 c7 85 48 f7 ff ff 	movq   $0x8,-0x8b8(%rbp)
    247f:	08 00 00 00 
    2483:	48 8d 85 48 f7 ff ff 	lea    -0x8b8(%rbp),%rax
    248a:	48 8d 95 70 f8 ff ff 	lea    -0x790(%rbp),%rdx
    2491:	48 8d 8a 90 01 00 00 	lea    0x190(%rdx),%rcx
    2498:	48 89 c2             	mov    %rax,%rdx
    249b:	48 8d 35 02 7d 00 00 	lea    0x7d02(%rip),%rsi        # a1a4 <_ZStL6ignore+0x112>
    24a2:	48 89 cf             	mov    %rcx,%rdi
    24a5:	e8 6e 17 00 00       	callq  3c18 <_ZNSt4pairIKNSt7__cxx1112basic_stringIcSt11char_traitsIcESaIcEEEmEC1IRA19_KcmLb1EEEOT_OT0_>
    24aa:	48 c7 85 50 f7 ff ff 	movq   $0x20,-0x8b0(%rbp)
    24b1:	20 00 00 00 
    24b5:	48 8d 85 50 f7 ff ff 	lea    -0x8b0(%rbp),%rax
    24bc:	48 8d 95 70 f8 ff ff 	lea    -0x790(%rbp),%rdx
    24c3:	48 8d 8a b8 01 00 00 	lea    0x1b8(%rdx),%rcx
    24ca:	48 89 c2             	mov    %rax,%rdx
    24cd:	48 8d 35 78 7c 00 00 	lea    0x7c78(%rip),%rsi        # a14c <_ZStL6ignore+0xba>
    24d4:	48 89 cf             	mov    %rcx,%rdi
    24d7:	e8 52 14 00 00       	callq  392e <_ZNSt4pairIKNSt7__cxx1112basic_stringIcSt11char_traitsIcESaIcEEEmEC1IRA7_KcmLb1EEEOT_OT0_>
    24dc:	48 c7 85 58 f7 ff ff 	movq   $0x8,-0x8a8(%rbp)
    24e3:	08 00 00 00 
    24e7:	48 8d 85 58 f7 ff ff 	lea    -0x8a8(%rbp),%rax
    24ee:	48 8d 95 70 f8 ff ff 	lea    -0x790(%rbp),%rdx
    24f5:	48 8d 8a e0 01 00 00 	lea    0x1e0(%rdx),%rcx
    24fc:	48 89 c2             	mov    %rax,%rdx
    24ff:	48 8d 35 4d 7c 00 00 	lea    0x7c4d(%rip),%rsi        # a153 <_ZStL6ignore+0xc1>
    2506:	48 89 cf             	mov    %rcx,%rdi
    2509:	e8 8e 15 00 00       	callq  3a9c <_ZNSt4pairIKNSt7__cxx1112basic_stringIcSt11char_traitsIcESaIcEEEmEC1IRA13_KcmLb1EEEOT_OT0_>
    250e:	48 c7 85 60 f7 ff ff 	movq   $0x8,-0x8a0(%rbp)
    2515:	08 00 00 00 
    2519:	48 8d 85 60 f7 ff ff 	lea    -0x8a0(%rbp),%rax
    2520:	48 8d 95 70 f8 ff ff 	lea    -0x790(%rbp),%rdx
    2527:	48 8d 8a 08 02 00 00 	lea    0x208(%rdx),%rcx
    252e:	48 89 c2             	mov    %rax,%rdx
    2531:	48 8d 35 28 7c 00 00 	lea    0x7c28(%rip),%rsi        # a160 <_ZStL6ignore+0xce>
    2538:	48 89 cf             	mov    %rcx,%rdi
    253b:	e8 3e 13 00 00       	callq  387e <_ZNSt4pairIKNSt7__cxx1112basic_stringIcSt11char_traitsIcESaIcEEEmEC1IRA15_KcmLb1EEEOT_OT0_>
    2540:	48 c7 85 68 f7 ff ff 	movq   $0x8,-0x898(%rbp)
    2547:	08 00 00 00 
    254b:	48 8d 85 68 f7 ff ff 	lea    -0x898(%rbp),%rax
    2552:	48 8d 95 70 f8 ff ff 	lea    -0x790(%rbp),%rdx
    2559:	48 8d 8a 30 02 00 00 	lea    0x230(%rdx),%rcx
    2560:	48 89 c2             	mov    %rax,%rdx
    2563:	48 8d 35 4d 7c 00 00 	lea    0x7c4d(%rip),%rsi        # a1b7 <_ZStL6ignore+0x125>
    256a:	48 89 cf             	mov    %rcx,%rdi
    256d:	e8 bc 13 00 00       	callq  392e <_ZNSt4pairIKNSt7__cxx1112basic_stringIcSt11char_traitsIcESaIcEEEmEC1IRA7_KcmLb1EEEOT_OT0_>
    2572:	48 c7 85 70 f7 ff ff 	movq   $0x8,-0x890(%rbp)
    2579:	08 00 00 00 
    257d:	48 8d 85 70 f7 ff ff 	lea    -0x890(%rbp),%rax
    2584:	48 8d 95 70 f8 ff ff 	lea    -0x790(%rbp),%rdx
    258b:	48 8d 8a 58 02 00 00 	lea    0x258(%rdx),%rcx
    2592:	48 89 c2             	mov    %rax,%rdx
    2595:	48 8d 35 22 7c 00 00 	lea    0x7c22(%rip),%rsi        # a1be <_ZStL6ignore+0x12c>
    259c:	48 89 cf             	mov    %rcx,%rdi
    259f:	e8 32 17 00 00       	callq  3cd6 <_ZNSt4pairIKNSt7__cxx1112basic_stringIcSt11char_traitsIcESaIcEEEmEC1IRA8_KcmLb1EEEOT_OT0_>
    25a4:	48 c7 85 78 f7 ff ff 	movq   $0x4,-0x888(%rbp)
    25ab:	04 00 00 00 
    25af:	48 8d 85 78 f7 ff ff 	lea    -0x888(%rbp),%rax
    25b6:	48 8d 95 70 f8 ff ff 	lea    -0x790(%rbp),%rdx
    25bd:	48 8d 8a 80 02 00 00 	lea    0x280(%rdx),%rcx
    25c4:	48 89 c2             	mov    %rax,%rdx
    25c7:	48 8d 35 f8 7b 00 00 	lea    0x7bf8(%rip),%rsi        # a1c6 <_ZStL6ignore+0x134>
    25ce:	48 89 cf             	mov    %rcx,%rdi
    25d1:	e8 00 17 00 00       	callq  3cd6 <_ZNSt4pairIKNSt7__cxx1112basic_stringIcSt11char_traitsIcESaIcEEEmEC1IRA8_KcmLb1EEEOT_OT0_>
    25d6:	48 c7 85 80 f7 ff ff 	movq   $0x2,-0x880(%rbp)
    25dd:	02 00 00 00 
    25e1:	48 8d 85 80 f7 ff ff 	lea    -0x880(%rbp),%rax
    25e8:	48 8d 95 70 f8 ff ff 	lea    -0x790(%rbp),%rdx
    25ef:	48 8d 8a a8 02 00 00 	lea    0x2a8(%rdx),%rcx
    25f6:	48 89 c2             	mov    %rax,%rdx
    25f9:	48 8d 35 ce 7b 00 00 	lea    0x7bce(%rip),%rsi        # a1ce <_ZStL6ignore+0x13c>
    2600:	48 89 cf             	mov    %rcx,%rdi
    2603:	e8 8c 17 00 00       	callq  3d94 <_ZNSt4pairIKNSt7__cxx1112basic_stringIcSt11char_traitsIcESaIcEEEmEC1IRA9_KcmLb1EEEOT_OT0_>
    2608:	48 c7 85 88 f7 ff ff 	movq   $0x4,-0x878(%rbp)
    260f:	04 00 00 00 
    2613:	48 8d 85 88 f7 ff ff 	lea    -0x878(%rbp),%rax
    261a:	48 8d 95 70 f8 ff ff 	lea    -0x790(%rbp),%rdx
    2621:	48 8d 8a d0 02 00 00 	lea    0x2d0(%rdx),%rcx
    2628:	48 89 c2             	mov    %rax,%rdx
    262b:	48 8d 35 a5 7b 00 00 	lea    0x7ba5(%rip),%rsi        # a1d7 <_ZStL6ignore+0x145>
    2632:	48 89 cf             	mov    %rcx,%rdi
    2635:	e8 5a 17 00 00       	callq  3d94 <_ZNSt4pairIKNSt7__cxx1112basic_stringIcSt11char_traitsIcESaIcEEEmEC1IRA9_KcmLb1EEEOT_OT0_>
    263a:	48 c7 85 90 f7 ff ff 	movq   $0x8,-0x870(%rbp)
    2641:	08 00 00 00 
    2645:	48 8d 85 90 f7 ff ff 	lea    -0x870(%rbp),%rax
    264c:	48 8d 95 70 f8 ff ff 	lea    -0x790(%rbp),%rdx
    2653:	48 8d 8a f8 02 00 00 	lea    0x2f8(%rdx),%rcx
    265a:	48 89 c2             	mov    %rax,%rdx
    265d:	48 8d 35 7c 7b 00 00 	lea    0x7b7c(%rip),%rsi        # a1e0 <_ZStL6ignore+0x14e>
    2664:	48 89 cf             	mov    %rcx,%rdi
    2667:	e8 28 17 00 00       	callq  3d94 <_ZNSt4pairIKNSt7__cxx1112basic_stringIcSt11char_traitsIcESaIcEEEmEC1IRA9_KcmLb1EEEOT_OT0_>
    266c:	48 c7 85 98 f7 ff ff 	movq   $0x1,-0x868(%rbp)
    2673:	01 00 00 00 
    2677:	48 8d 85 98 f7 ff ff 	lea    -0x868(%rbp),%rax
    267e:	48 8d 95 70 f8 ff ff 	lea    -0x790(%rbp),%rdx
    2685:	48 8d 8a 20 03 00 00 	lea    0x320(%rdx),%rcx
    268c:	48 89 c2             	mov    %rax,%rdx
    268f:	48 8d 35 53 7b 00 00 	lea    0x7b53(%rip),%rsi        # a1e9 <_ZStL6ignore+0x157>
    2696:	48 89 cf             	mov    %rcx,%rdi
    2699:	e8 90 12 00 00       	callq  392e <_ZNSt4pairIKNSt7__cxx1112basic_stringIcSt11char_traitsIcESaIcEEEmEC1IRA7_KcmLb1EEEOT_OT0_>
    269e:	48 c7 85 a0 f7 ff ff 	movq   $0x2,-0x860(%rbp)
    26a5:	02 00 00 00 
    26a9:	48 8d 85 a0 f7 ff ff 	lea    -0x860(%rbp),%rax
    26b0:	48 8d 95 70 f8 ff ff 	lea    -0x790(%rbp),%rdx
    26b7:	48 8d 8a 48 03 00 00 	lea    0x348(%rdx),%rcx
    26be:	48 89 c2             	mov    %rax,%rdx
    26c1:	48 8d 35 28 7b 00 00 	lea    0x7b28(%rip),%rsi        # a1f0 <_ZStL6ignore+0x15e>
    26c8:	48 89 cf             	mov    %rcx,%rdi
    26cb:	e8 06 16 00 00       	callq  3cd6 <_ZNSt4pairIKNSt7__cxx1112basic_stringIcSt11char_traitsIcESaIcEEEmEC1IRA8_KcmLb1EEEOT_OT0_>
    26d0:	48 c7 85 a8 f7 ff ff 	movq   $0x4,-0x858(%rbp)
    26d7:	04 00 00 00 
    26db:	48 8d 85 a8 f7 ff ff 	lea    -0x858(%rbp),%rax
    26e2:	48 8d 95 70 f8 ff ff 	lea    -0x790(%rbp),%rdx
    26e9:	48 8d 8a 70 03 00 00 	lea    0x370(%rdx),%rcx
    26f0:	48 89 c2             	mov    %rax,%rdx
    26f3:	48 8d 35 fe 7a 00 00 	lea    0x7afe(%rip),%rsi        # a1f8 <_ZStL6ignore+0x166>
    26fa:	48 89 cf             	mov    %rcx,%rdi
    26fd:	e8 d4 15 00 00       	callq  3cd6 <_ZNSt4pairIKNSt7__cxx1112basic_stringIcSt11char_traitsIcESaIcEEEmEC1IRA8_KcmLb1EEEOT_OT0_>
    2702:	48 c7 85 b0 f7 ff ff 	movq   $0x8,-0x850(%rbp)
    2709:	08 00 00 00 
    270d:	48 8d 85 b0 f7 ff ff 	lea    -0x850(%rbp),%rax
    2714:	48 8d 95 70 f8 ff ff 	lea    -0x790(%rbp),%rdx
    271b:	48 8d 8a 98 03 00 00 	lea    0x398(%rdx),%rcx
    2722:	48 89 c2             	mov    %rax,%rdx
    2725:	48 8d 35 d4 7a 00 00 	lea    0x7ad4(%rip),%rsi        # a200 <_ZStL6ignore+0x16e>
    272c:	48 89 cf             	mov    %rcx,%rdi
    272f:	e8 a2 15 00 00       	callq  3cd6 <_ZNSt4pairIKNSt7__cxx1112basic_stringIcSt11char_traitsIcESaIcEEEmEC1IRA8_KcmLb1EEEOT_OT0_>
    2734:	48 c7 85 b8 f7 ff ff 	movq   $0x1,-0x848(%rbp)
    273b:	01 00 00 00 
    273f:	48 8d 85 b8 f7 ff ff 	lea    -0x848(%rbp),%rax
    2746:	48 8d 95 70 f8 ff ff 	lea    -0x790(%rbp),%rdx
    274d:	48 8d 8a c0 03 00 00 	lea    0x3c0(%rdx),%rcx
    2754:	48 89 c2             	mov    %rax,%rdx
    2757:	48 8d 35 aa 7a 00 00 	lea    0x7aaa(%rip),%rsi        # a208 <_ZStL6ignore+0x176>
    275e:	48 89 cf             	mov    %rcx,%rdi
    2761:	e8 36 13 00 00       	callq  3a9c <_ZNSt4pairIKNSt7__cxx1112basic_stringIcSt11char_traitsIcESaIcEEEmEC1IRA13_KcmLb1EEEOT_OT0_>
    2766:	48 c7 85 c0 f7 ff ff 	movq   $0x2,-0x840(%rbp)
    276d:	02 00 00 00 
    2771:	48 8d 85 c0 f7 ff ff 	lea    -0x840(%rbp),%rax
    2778:	48 8d 95 70 f8 ff ff 	lea    -0x790(%rbp),%rdx
    277f:	48 8d 8a e8 03 00 00 	lea    0x3e8(%rdx),%rcx
    2786:	48 89 c2             	mov    %rax,%rdx
    2789:	48 8d 35 85 7a 00 00 	lea    0x7a85(%rip),%rsi        # a215 <_ZStL6ignore+0x183>
    2790:	48 89 cf             	mov    %rcx,%rdi
    2793:	e8 c2 13 00 00       	callq  3b5a <_ZNSt4pairIKNSt7__cxx1112basic_stringIcSt11char_traitsIcESaIcEEEmEC1IRA14_KcmLb1EEEOT_OT0_>
    2798:	48 c7 85 c8 f7 ff ff 	movq   $0x4,-0x838(%rbp)
    279f:	04 00 00 00 
    27a3:	48 8d 85 c8 f7 ff ff 	lea    -0x838(%rbp),%rax
    27aa:	48 8d 95 70 f8 ff ff 	lea    -0x790(%rbp),%rdx
    27b1:	48 8d 8a 10 04 00 00 	lea    0x410(%rdx),%rcx
    27b8:	48 89 c2             	mov    %rax,%rdx
    27bb:	48 8d 35 61 7a 00 00 	lea    0x7a61(%rip),%rsi        # a223 <_ZStL6ignore+0x191>
    27c2:	48 89 cf             	mov    %rcx,%rdi
    27c5:	e8 90 13 00 00       	callq  3b5a <_ZNSt4pairIKNSt7__cxx1112basic_stringIcSt11char_traitsIcESaIcEEEmEC1IRA14_KcmLb1EEEOT_OT0_>
    27ca:	48 c7 85 d0 f7 ff ff 	movq   $0x8,-0x830(%rbp)
    27d1:	08 00 00 00 
    27d5:	48 8d 85 d0 f7 ff ff 	lea    -0x830(%rbp),%rax
    27dc:	48 8d 95 70 f8 ff ff 	lea    -0x790(%rbp),%rdx
    27e3:	48 8d 8a 38 04 00 00 	lea    0x438(%rdx),%rcx
    27ea:	48 89 c2             	mov    %rax,%rdx
    27ed:	48 8d 35 3d 7a 00 00 	lea    0x7a3d(%rip),%rsi        # a231 <_ZStL6ignore+0x19f>
    27f4:	48 89 cf             	mov    %rcx,%rdi
    27f7:	e8 5e 13 00 00       	callq  3b5a <_ZNSt4pairIKNSt7__cxx1112basic_stringIcSt11char_traitsIcESaIcEEEmEC1IRA14_KcmLb1EEEOT_OT0_>
    27fc:	48 c7 85 d8 f7 ff ff 	movq   $0x1,-0x828(%rbp)
    2803:	01 00 00 00 
    2807:	48 8d 85 d8 f7 ff ff 	lea    -0x828(%rbp),%rax
    280e:	48 8d 95 70 f8 ff ff 	lea    -0x790(%rbp),%rdx
    2815:	48 8d 8a 60 04 00 00 	lea    0x460(%rdx),%rcx
    281c:	48 89 c2             	mov    %rax,%rdx
    281f:	48 8d 35 19 7a 00 00 	lea    0x7a19(%rip),%rsi        # a23f <_ZStL6ignore+0x1ad>
    2826:	48 89 cf             	mov    %rcx,%rdi
    2829:	e8 be 11 00 00       	callq  39ec <_ZNSt4pairIKNSt7__cxx1112basic_stringIcSt11char_traitsIcESaIcEEEmEC1IRA12_KcmLb1EEEOT_OT0_>
    282e:	48 c7 85 e0 f7 ff ff 	movq   $0x8,-0x820(%rbp)
    2835:	08 00 00 00 
    2839:	48 8d 85 e0 f7 ff ff 	lea    -0x820(%rbp),%rax
    2840:	48 8d 95 70 f8 ff ff 	lea    -0x790(%rbp),%rdx
    2847:	48 8d 8a 88 04 00 00 	lea    0x488(%rdx),%rcx
    284e:	48 89 c2             	mov    %rax,%rdx
    2851:	48 8d 35 f3 79 00 00 	lea    0x79f3(%rip),%rsi        # a24b <_ZStL6ignore+0x1b9>
    2858:	48 89 cf             	mov    %rcx,%rdi
    285b:	e8 3c 12 00 00       	callq  3a9c <_ZNSt4pairIKNSt7__cxx1112basic_stringIcSt11char_traitsIcESaIcEEEmEC1IRA13_KcmLb1EEEOT_OT0_>
    2860:	48 c7 85 e8 f7 ff ff 	movq   $0x8,-0x818(%rbp)
    2867:	08 00 00 00 
    286b:	48 8d 85 e8 f7 ff ff 	lea    -0x818(%rbp),%rax
    2872:	48 8d 95 70 f8 ff ff 	lea    -0x790(%rbp),%rdx
    2879:	48 8d 8a b0 04 00 00 	lea    0x4b0(%rdx),%rcx
    2880:	48 89 c2             	mov    %rax,%rdx
    2883:	48 8d 35 ce 79 00 00 	lea    0x79ce(%rip),%rsi        # a258 <_ZStL6ignore+0x1c6>
    288a:	48 89 cf             	mov    %rcx,%rdi
    288d:	e8 0a 12 00 00       	callq  3a9c <_ZNSt4pairIKNSt7__cxx1112basic_stringIcSt11char_traitsIcESaIcEEEmEC1IRA13_KcmLb1EEEOT_OT0_>
    2892:	48 c7 85 f0 f7 ff ff 	movq   $0x8,-0x810(%rbp)
    2899:	08 00 00 00 
    289d:	48 8d 85 f0 f7 ff ff 	lea    -0x810(%rbp),%rax
    28a4:	48 8d 95 70 f8 ff ff 	lea    -0x790(%rbp),%rdx
    28ab:	48 8d 8a d8 04 00 00 	lea    0x4d8(%rdx),%rcx
    28b2:	48 89 c2             	mov    %rax,%rdx
    28b5:	48 8d 35 a9 79 00 00 	lea    0x79a9(%rip),%rsi        # a265 <_ZStL6ignore+0x1d3>
    28bc:	48 89 cf             	mov    %rcx,%rdi
    28bf:	e8 d8 11 00 00       	callq  3a9c <_ZNSt4pairIKNSt7__cxx1112basic_stringIcSt11char_traitsIcESaIcEEEmEC1IRA13_KcmLb1EEEOT_OT0_>
    28c4:	48 c7 85 f8 f7 ff ff 	movq   $0x8,-0x808(%rbp)
    28cb:	08 00 00 00 
    28cf:	48 8d 85 f8 f7 ff ff 	lea    -0x808(%rbp),%rax
    28d6:	48 8d 95 70 f8 ff ff 	lea    -0x790(%rbp),%rdx
    28dd:	48 8d 8a 00 05 00 00 	lea    0x500(%rdx),%rcx
    28e4:	48 89 c2             	mov    %rax,%rdx
    28e7:	48 8d 35 84 79 00 00 	lea    0x7984(%rip),%rsi        # a272 <_ZStL6ignore+0x1e0>
    28ee:	48 89 cf             	mov    %rcx,%rdi
    28f1:	e8 9e 14 00 00       	callq  3d94 <_ZNSt4pairIKNSt7__cxx1112basic_stringIcSt11char_traitsIcESaIcEEEmEC1IRA9_KcmLb1EEEOT_OT0_>
    28f6:	48 c7 85 00 f8 ff ff 	movq   $0x8,-0x800(%rbp)
    28fd:	08 00 00 00 
    2901:	48 8d 85 00 f8 ff ff 	lea    -0x800(%rbp),%rax
    2908:	48 8d 95 70 f8 ff ff 	lea    -0x790(%rbp),%rdx
    290f:	48 8d 8a 28 05 00 00 	lea    0x528(%rdx),%rcx
    2916:	48 89 c2             	mov    %rax,%rdx
    2919:	48 8d 35 5b 79 00 00 	lea    0x795b(%rip),%rsi        # a27b <_ZStL6ignore+0x1e9>
    2920:	48 89 cf             	mov    %rcx,%rdi
    2923:	e8 f6 0d 00 00       	callq  371e <_ZNSt4pairIKNSt7__cxx1112basic_stringIcSt11char_traitsIcESaIcEEEmEC1IRA10_KcmLb1EEEOT_OT0_>
    2928:	48 c7 85 08 f8 ff ff 	movq   $0x1,-0x7f8(%rbp)
    292f:	01 00 00 00 
    2933:	48 8d 85 08 f8 ff ff 	lea    -0x7f8(%rbp),%rax
    293a:	48 8d 95 70 f8 ff ff 	lea    -0x790(%rbp),%rdx
    2941:	48 8d 8a 50 05 00 00 	lea    0x550(%rdx),%rcx
    2948:	48 89 c2             	mov    %rax,%rdx
    294b:	48 8d 35 33 79 00 00 	lea    0x7933(%rip),%rsi        # a285 <_ZStL6ignore+0x1f3>
    2952:	48 89 cf             	mov    %rcx,%rdi
    2955:	e8 7c 13 00 00       	callq  3cd6 <_ZNSt4pairIKNSt7__cxx1112basic_stringIcSt11char_traitsIcESaIcEEEmEC1IRA8_KcmLb1EEEOT_OT0_>
    295a:	48 c7 85 10 f8 ff ff 	movq   $0x2,-0x7f0(%rbp)
    2961:	02 00 00 00 
    2965:	48 8d 85 10 f8 ff ff 	lea    -0x7f0(%rbp),%rax
    296c:	48 8d 95 70 f8 ff ff 	lea    -0x790(%rbp),%rdx
    2973:	48 8d 8a 78 05 00 00 	lea    0x578(%rdx),%rcx
    297a:	48 89 c2             	mov    %rax,%rdx
    297d:	48 8d 35 09 79 00 00 	lea    0x7909(%rip),%rsi        # a28d <_ZStL6ignore+0x1fb>
    2984:	48 89 cf             	mov    %rcx,%rdi
    2987:	e8 08 14 00 00       	callq  3d94 <_ZNSt4pairIKNSt7__cxx1112basic_stringIcSt11char_traitsIcESaIcEEEmEC1IRA9_KcmLb1EEEOT_OT0_>
    298c:	48 c7 85 18 f8 ff ff 	movq   $0x4,-0x7e8(%rbp)
    2993:	04 00 00 00 
    2997:	48 8d 85 18 f8 ff ff 	lea    -0x7e8(%rbp),%rax
    299e:	48 8d 95 70 f8 ff ff 	lea    -0x790(%rbp),%rdx
    29a5:	48 8d 8a a0 05 00 00 	lea    0x5a0(%rdx),%rcx
    29ac:	48 89 c2             	mov    %rax,%rdx
    29af:	48 8d 35 e0 78 00 00 	lea    0x78e0(%rip),%rsi        # a296 <_ZStL6ignore+0x204>
    29b6:	48 89 cf             	mov    %rcx,%rdi
    29b9:	e8 d6 13 00 00       	callq  3d94 <_ZNSt4pairIKNSt7__cxx1112basic_stringIcSt11char_traitsIcESaIcEEEmEC1IRA9_KcmLb1EEEOT_OT0_>
    29be:	48 c7 85 20 f8 ff ff 	movq   $0x8,-0x7e0(%rbp)
    29c5:	08 00 00 00 
    29c9:	48 8d 85 20 f8 ff ff 	lea    -0x7e0(%rbp),%rax
    29d0:	48 8d 95 70 f8 ff ff 	lea    -0x790(%rbp),%rdx
    29d7:	48 8d 8a c8 05 00 00 	lea    0x5c8(%rdx),%rcx
    29de:	48 89 c2             	mov    %rax,%rdx
    29e1:	48 8d 35 b7 78 00 00 	lea    0x78b7(%rip),%rsi        # a29f <_ZStL6ignore+0x20d>
    29e8:	48 89 cf             	mov    %rcx,%rdi
    29eb:	e8 a4 13 00 00       	callq  3d94 <_ZNSt4pairIKNSt7__cxx1112basic_stringIcSt11char_traitsIcESaIcEEEmEC1IRA9_KcmLb1EEEOT_OT0_>
    29f0:	48 c7 85 28 f8 ff ff 	movq   $0x1,-0x7d8(%rbp)
    29f7:	01 00 00 00 
    29fb:	48 8d 85 28 f8 ff ff 	lea    -0x7d8(%rbp),%rax
    2a02:	48 8d 95 70 f8 ff ff 	lea    -0x790(%rbp),%rdx
    2a09:	48 8d 8a f0 05 00 00 	lea    0x5f0(%rdx),%rcx
    2a10:	48 89 c2             	mov    %rax,%rdx
    2a13:	48 8d 35 8e 78 00 00 	lea    0x788e(%rip),%rsi        # a2a8 <_ZStL6ignore+0x216>
    2a1a:	48 89 cf             	mov    %rcx,%rdi
    2a1d:	e8 38 11 00 00       	callq  3b5a <_ZNSt4pairIKNSt7__cxx1112basic_stringIcSt11char_traitsIcESaIcEEEmEC1IRA14_KcmLb1EEEOT_OT0_>
    2a22:	48 c7 85 30 f8 ff ff 	movq   $0x2,-0x7d0(%rbp)
    2a29:	02 00 00 00 
    2a2d:	48 8d 85 30 f8 ff ff 	lea    -0x7d0(%rbp),%rax
    2a34:	48 8d 95 70 f8 ff ff 	lea    -0x790(%rbp),%rdx
    2a3b:	48 8d 8a 18 06 00 00 	lea    0x618(%rdx),%rcx
    2a42:	48 89 c2             	mov    %rax,%rdx
    2a45:	48 8d 35 6a 78 00 00 	lea    0x786a(%rip),%rsi        # a2b6 <_ZStL6ignore+0x224>
    2a4c:	48 89 cf             	mov    %rcx,%rdi
    2a4f:	e8 2a 0e 00 00       	callq  387e <_ZNSt4pairIKNSt7__cxx1112basic_stringIcSt11char_traitsIcESaIcEEEmEC1IRA15_KcmLb1EEEOT_OT0_>
    2a54:	48 c7 85 38 f8 ff ff 	movq   $0x4,-0x7c8(%rbp)
    2a5b:	04 00 00 00 
    2a5f:	48 8d 85 38 f8 ff ff 	lea    -0x7c8(%rbp),%rax
    2a66:	48 8d 95 70 f8 ff ff 	lea    -0x790(%rbp),%rdx
    2a6d:	48 8d 8a 40 06 00 00 	lea    0x640(%rdx),%rcx
    2a74:	48 89 c2             	mov    %rax,%rdx
    2a77:	48 8d 35 47 78 00 00 	lea    0x7847(%rip),%rsi        # a2c5 <_ZStL6ignore+0x233>
    2a7e:	48 89 cf             	mov    %rcx,%rdi
    2a81:	e8 f8 0d 00 00       	callq  387e <_ZNSt4pairIKNSt7__cxx1112basic_stringIcSt11char_traitsIcESaIcEEEmEC1IRA15_KcmLb1EEEOT_OT0_>
    2a86:	48 c7 85 40 f8 ff ff 	movq   $0x8,-0x7c0(%rbp)
    2a8d:	08 00 00 00 
    2a91:	48 8d 85 40 f8 ff ff 	lea    -0x7c0(%rbp),%rax
    2a98:	48 8d 95 70 f8 ff ff 	lea    -0x790(%rbp),%rdx
    2a9f:	48 8d 8a 68 06 00 00 	lea    0x668(%rdx),%rcx
    2aa6:	48 89 c2             	mov    %rax,%rdx
    2aa9:	48 8d 35 24 78 00 00 	lea    0x7824(%rip),%rsi        # a2d4 <_ZStL6ignore+0x242>
    2ab0:	48 89 cf             	mov    %rcx,%rdi
    2ab3:	e8 c6 0d 00 00       	callq  387e <_ZNSt4pairIKNSt7__cxx1112basic_stringIcSt11char_traitsIcESaIcEEEmEC1IRA15_KcmLb1EEEOT_OT0_>
    2ab8:	48 c7 85 48 f8 ff ff 	movq   $0x1,-0x7b8(%rbp)
    2abf:	01 00 00 00 
    2ac3:	48 8d 85 48 f8 ff ff 	lea    -0x7b8(%rbp),%rax
    2aca:	48 8d 95 70 f8 ff ff 	lea    -0x790(%rbp),%rdx
    2ad1:	48 8d 8a 90 06 00 00 	lea    0x690(%rdx),%rcx
    2ad8:	48 89 c2             	mov    %rax,%rdx
    2adb:	48 8d 35 01 78 00 00 	lea    0x7801(%rip),%rsi        # a2e3 <_ZStL6ignore+0x251>
    2ae2:	48 89 cf             	mov    %rcx,%rdi
    2ae5:	e8 b2 0f 00 00       	callq  3a9c <_ZNSt4pairIKNSt7__cxx1112basic_stringIcSt11char_traitsIcESaIcEEEmEC1IRA13_KcmLb1EEEOT_OT0_>
    2aea:	48 c7 85 50 f8 ff ff 	movq   $0x8,-0x7b0(%rbp)
    2af1:	08 00 00 00 
    2af5:	48 8d 85 50 f8 ff ff 	lea    -0x7b0(%rbp),%rax
    2afc:	48 8d 95 70 f8 ff ff 	lea    -0x790(%rbp),%rdx
    2b03:	48 8d 8a b8 06 00 00 	lea    0x6b8(%rdx),%rcx
    2b0a:	48 89 c2             	mov    %rax,%rdx
    2b0d:	48 8d 35 dc 77 00 00 	lea    0x77dc(%rip),%rsi        # a2f0 <_ZStL6ignore+0x25e>
    2b14:	48 89 cf             	mov    %rcx,%rdi
    2b17:	e8 3e 10 00 00       	callq  3b5a <_ZNSt4pairIKNSt7__cxx1112basic_stringIcSt11char_traitsIcESaIcEEEmEC1IRA14_KcmLb1EEEOT_OT0_>
    2b1c:	48 c7 85 58 f8 ff ff 	movq   $0x8,-0x7a8(%rbp)
    2b23:	08 00 00 00 
    2b27:	48 8d 85 58 f8 ff ff 	lea    -0x7a8(%rbp),%rax
    2b2e:	48 8d 95 70 f8 ff ff 	lea    -0x790(%rbp),%rdx
    2b35:	48 8d 8a e0 06 00 00 	lea    0x6e0(%rdx),%rcx
    2b3c:	48 89 c2             	mov    %rax,%rdx
    2b3f:	48 8d 35 b8 77 00 00 	lea    0x77b8(%rip),%rsi        # a2fe <_ZStL6ignore+0x26c>
    2b46:	48 89 cf             	mov    %rcx,%rdi
    2b49:	e8 0c 10 00 00       	callq  3b5a <_ZNSt4pairIKNSt7__cxx1112basic_stringIcSt11char_traitsIcESaIcEEEmEC1IRA14_KcmLb1EEEOT_OT0_>
    2b4e:	48 c7 85 60 f8 ff ff 	movq   $0x8,-0x7a0(%rbp)
    2b55:	08 00 00 00 
    2b59:	48 8d 85 60 f8 ff ff 	lea    -0x7a0(%rbp),%rax
    2b60:	48 8d 95 70 f8 ff ff 	lea    -0x790(%rbp),%rdx
    2b67:	48 8d 8a 08 07 00 00 	lea    0x708(%rdx),%rcx
    2b6e:	48 89 c2             	mov    %rax,%rdx
    2b71:	48 8d 35 94 77 00 00 	lea    0x7794(%rip),%rsi        # a30c <_ZStL6ignore+0x27a>
    2b78:	48 89 cf             	mov    %rcx,%rdi
    2b7b:	e8 da 0f 00 00       	callq  3b5a <_ZNSt4pairIKNSt7__cxx1112basic_stringIcSt11char_traitsIcESaIcEEEmEC1IRA14_KcmLb1EEEOT_OT0_>
    2b80:	48 c7 85 68 f8 ff ff 	movq   $0x8,-0x798(%rbp)
    2b87:	08 00 00 00 
    2b8b:	48 8d 85 68 f8 ff ff 	lea    -0x798(%rbp),%rax
    2b92:	48 8d 95 70 f8 ff ff 	lea    -0x790(%rbp),%rdx
    2b99:	48 8d 8a 30 07 00 00 	lea    0x730(%rdx),%rcx
    2ba0:	48 89 c2             	mov    %rax,%rdx
    2ba3:	48 8d 35 70 77 00 00 	lea    0x7770(%rip),%rsi        # a31a <_ZStL6ignore+0x288>
    2baa:	48 89 cf             	mov    %rcx,%rdi
    2bad:	e8 6c 0b 00 00       	callq  371e <_ZNSt4pairIKNSt7__cxx1112basic_stringIcSt11char_traitsIcESaIcEEEmEC1IRA10_KcmLb1EEEOT_OT0_>
    2bb2:	48 8d 85 70 f8 ff ff 	lea    -0x790(%rbp),%rax
    2bb9:	49 89 c4             	mov    %rax,%r12
    2bbc:	41 bd 2f 00 00 00    	mov    $0x2f,%r13d
    2bc2:	48 8d 85 f7 f6 ff ff 	lea    -0x909(%rbp),%rax
    2bc9:	48 89 c7             	mov    %rax,%rdi
    2bcc:	e8 b7 19 00 00       	callq  4588 <_ZNSaISt4pairIKNSt7__cxx1112basic_stringIcSt11char_traitsIcESaIcEEEmEEC1Ev>
    2bd1:	48 8d bd f6 f6 ff ff 	lea    -0x90a(%rbp),%rdi
    2bd8:	48 8d b5 f5 f6 ff ff 	lea    -0x90b(%rbp),%rsi
    2bdf:	4c 89 e1             	mov    %r12,%rcx
    2be2:	4c 89 eb             	mov    %r13,%rbx
    2be5:	4c 89 e0             	mov    %r12,%rax
    2be8:	4c 89 ea             	mov    %r13,%rdx
    2beb:	49 89 ca             	mov    %rcx,%r10
    2bee:	48 83 ec 08          	sub    $0x8,%rsp
    2bf2:	48 8d 85 f7 f6 ff ff 	lea    -0x909(%rbp),%rax
    2bf9:	50                   	push   %rax
    2bfa:	49 89 f9             	mov    %rdi,%r9
    2bfd:	49 89 f0             	mov    %rsi,%r8
    2c00:	b9 00 00 00 00       	mov    $0x0,%ecx
    2c05:	4c 89 d6             	mov    %r10,%rsi
    2c08:	48 8d 3d d1 d5 20 00 	lea    0x20d5d1(%rip),%rdi        # 2101e0 <_Z5type3B5cxx11>
    2c0f:	e8 ac 19 00 00       	callq  45c0 <_ZNSt13unordered_mapINSt7__cxx1112basic_stringIcSt11char_traitsIcESaIcEEEmSt4hashIS5_ESt8equal_toIS5_ESaISt4pairIKS5_mEEEC1ESt16initializer_listISC_EmRKS7_RKS9_RKSD_>
    2c14:	48 83 c4 10          	add    $0x10,%rsp
    2c18:	48 8d 85 f7 f6 ff ff 	lea    -0x909(%rbp),%rax
    2c1f:	48 89 c7             	mov    %rax,%rdi
    2c22:	e8 7d 19 00 00       	callq  45a4 <_ZNSaISt4pairIKNSt7__cxx1112basic_stringIcSt11char_traitsIcESaIcEEEmEED1Ev>
    2c27:	48 8d 9d 70 f8 ff ff 	lea    -0x790(%rbp),%rbx
    2c2e:	48 81 c3 58 07 00 00 	add    $0x758,%rbx
    2c35:	48 8d 85 70 f8 ff ff 	lea    -0x790(%rbp),%rax
    2c3c:	48 39 c3             	cmp    %rax,%rbx
    2c3f:	74 0e                	je     2c4f <_Z41__static_initialization_and_destruction_0ii+0x1090>
    2c41:	48 83 eb 28          	sub    $0x28,%rbx
    2c45:	48 89 df             	mov    %rbx,%rdi
    2c48:	e8 55 09 00 00       	callq  35a2 <_ZNSt4pairIKNSt7__cxx1112basic_stringIcSt11char_traitsIcESaIcEEEmED1Ev>
    2c4d:	eb e6                	jmp    2c35 <_Z41__static_initialization_and_destruction_0ii+0x1076>
    2c4f:	48 8d 15 b2 d3 20 00 	lea    0x20d3b2(%rip),%rdx        # 210008 <__dso_handle>
    2c56:	48 8d 35 83 d5 20 00 	lea    0x20d583(%rip),%rsi        # 2101e0 <_Z5type3B5cxx11>
    2c5d:	48 8d 3d e0 11 00 00 	lea    0x11e0(%rip),%rdi        # 3e44 <_ZNSt13unordered_mapINSt7__cxx1112basic_stringIcSt11char_traitsIcESaIcEEEmSt4hashIS5_ESt8equal_toIS5_ESaISt4pairIKS5_mEEED1Ev>
    2c64:	e8 87 e8 ff ff       	callq  14f0 <__cxa_atexit@plt>
    2c69:	e9 d8 00 00 00       	jmpq   2d46 <_Z41__static_initialization_and_destruction_0ii+0x1187>
    2c6e:	48 89 c3             	mov    %rax,%rbx
    2c71:	48 8d 85 08 f8 ff ff 	lea    -0x7f8(%rbp),%rax
    2c78:	48 89 c7             	mov    %rax,%rdi
    2c7b:	e8 20 17 00 00       	callq  43a0 <_ZNSaISt4pairIKPKcNSt7__cxx1112basic_stringIcSt11char_traitsIcESaIcEEEEED1Ev>
    2c80:	49 89 dc             	mov    %rbx,%r12
    2c83:	48 8d 9d 70 f8 ff ff 	lea    -0x790(%rbp),%rbx
    2c8a:	48 81 c3 e0 01 00 00 	add    $0x1e0,%rbx
    2c91:	48 8d 85 70 f8 ff ff 	lea    -0x790(%rbp),%rax
    2c98:	48 39 c3             	cmp    %rax,%rbx
    2c9b:	74 0e                	je     2cab <_Z41__static_initialization_and_destruction_0ii+0x10ec>
    2c9d:	48 83 eb 28          	sub    $0x28,%rbx
    2ca1:	48 89 df             	mov    %rbx,%rdi
    2ca4:	e8 41 03 00 00       	callq  2fea <_ZNSt4pairIKPKcNSt7__cxx1112basic_stringIcSt11char_traitsIcESaIcEEEED1Ev>
    2ca9:	eb e6                	jmp    2c91 <_Z41__static_initialization_and_destruction_0ii+0x10d2>
    2cab:	4c 89 e0             	mov    %r12,%rax
    2cae:	48 89 c7             	mov    %rax,%rdi
    2cb1:	e8 4a e9 ff ff       	callq  1600 <_Unwind_Resume@plt>
    2cb6:	48 89 c3             	mov    %rax,%rbx
    2cb9:	48 8d 85 08 f8 ff ff 	lea    -0x7f8(%rbp),%rax
    2cc0:	48 89 c7             	mov    %rax,%rdi
    2cc3:	e8 da 17 00 00       	callq  44a2 <_ZNSaISt4pairIKiNSt7__cxx1112basic_stringIcSt11char_traitsIcESaIcEEEEED1Ev>
    2cc8:	49 89 dc             	mov    %rbx,%r12
    2ccb:	48 8d 9d 70 f8 ff ff 	lea    -0x790(%rbp),%rbx
    2cd2:	48 81 c3 e0 01 00 00 	add    $0x1e0,%rbx
    2cd9:	48 8d 85 70 f8 ff ff 	lea    -0x790(%rbp),%rax
    2ce0:	48 39 c3             	cmp    %rax,%rbx
    2ce3:	74 0e                	je     2cf3 <_Z41__static_initialization_and_destruction_0ii+0x1134>
    2ce5:	48 83 eb 28          	sub    $0x28,%rbx
    2ce9:	48 89 df             	mov    %rbx,%rdi
    2cec:	e8 35 03 00 00       	callq  3026 <_ZNSt4pairIKiNSt7__cxx1112basic_stringIcSt11char_traitsIcESaIcEEEED1Ev>
    2cf1:	eb e6                	jmp    2cd9 <_Z41__static_initialization_and_destruction_0ii+0x111a>
    2cf3:	4c 89 e0             	mov    %r12,%rax
    2cf6:	48 89 c7             	mov    %rax,%rdi
    2cf9:	e8 02 e9 ff ff       	callq  1600 <_Unwind_Resume@plt>
    2cfe:	48 89 c3             	mov    %rax,%rbx
    2d01:	48 8d 85 f7 f6 ff ff 	lea    -0x909(%rbp),%rax
    2d08:	48 89 c7             	mov    %rax,%rdi
    2d0b:	e8 94 18 00 00       	callq  45a4 <_ZNSaISt4pairIKNSt7__cxx1112basic_stringIcSt11char_traitsIcESaIcEEEmEED1Ev>
    2d10:	49 89 dc             	mov    %rbx,%r12
    2d13:	48 8d 9d 70 f8 ff ff 	lea    -0x790(%rbp),%rbx
    2d1a:	48 81 c3 58 07 00 00 	add    $0x758,%rbx
    2d21:	48 8d 85 70 f8 ff ff 	lea    -0x790(%rbp),%rax
    2d28:	48 39 c3             	cmp    %rax,%rbx
    2d2b:	74 0e                	je     2d3b <_Z41__static_initialization_and_destruction_0ii+0x117c>
    2d2d:	48 83 eb 28          	sub    $0x28,%rbx
    2d31:	48 89 df             	mov    %rbx,%rdi
    2d34:	e8 69 08 00 00       	callq  35a2 <_ZNSt4pairIKNSt7__cxx1112basic_stringIcSt11char_traitsIcESaIcEEEmED1Ev>
    2d39:	eb e6                	jmp    2d21 <_Z41__static_initialization_and_destruction_0ii+0x1162>
    2d3b:	4c 89 e0             	mov    %r12,%rax
    2d3e:	48 89 c7             	mov    %rax,%rdi
    2d41:	e8 ba e8 ff ff       	callq  1600 <_Unwind_Resume@plt>
    2d46:	48 8b 45 c8          	mov    -0x38(%rbp),%rax
    2d4a:	64 48 33 04 25 28 00 	xor    %fs:0x28,%rax
    2d51:	00 00 
    2d53:	74 05                	je     2d5a <_Z41__static_initialization_and_destruction_0ii+0x119b>
    2d55:	e8 06 e8 ff ff       	callq  1560 <__stack_chk_fail@plt>
    2d5a:	48 8d 65 d8          	lea    -0x28(%rbp),%rsp
    2d5e:	5b                   	pop    %rbx
    2d5f:	41 5c                	pop    %r12
    2d61:	41 5d                	pop    %r13
    2d63:	41 5e                	pop    %r14
    2d65:	41 5f                	pop    %r15
    2d67:	5d                   	pop    %rbp
    2d68:	c3                   	retq   

0000000000002d69 <_GLOBAL__sub_I_gi>:
    2d69:	55                   	push   %rbp
    2d6a:	48 89 e5             	mov    %rsp,%rbp
    2d6d:	be ff ff 00 00       	mov    $0xffff,%esi
    2d72:	bf 01 00 00 00       	mov    $0x1,%edi
    2d77:	e8 43 ee ff ff       	callq  1bbf <_Z41__static_initialization_and_destruction_0ii>
    2d7c:	5d                   	pop    %rbp
    2d7d:	c3                   	retq   

0000000000002d7e <_ZNKSt9type_info4nameEv>:
    2d7e:	55                   	push   %rbp
    2d7f:	48 89 e5             	mov    %rsp,%rbp
    2d82:	48 89 7d f8          	mov    %rdi,-0x8(%rbp)
    2d86:	48 8b 45 f8          	mov    -0x8(%rbp),%rax
    2d8a:	48 8b 40 08          	mov    0x8(%rax),%rax
    2d8e:	0f b6 00             	movzbl (%rax),%eax
    2d91:	3c 2a                	cmp    $0x2a,%al
    2d93:	75 0e                	jne    2da3 <_ZNKSt9type_info4nameEv+0x25>
    2d95:	48 8b 45 f8          	mov    -0x8(%rbp),%rax
    2d99:	48 8b 40 08          	mov    0x8(%rax),%rax
    2d9d:	48 83 c0 01          	add    $0x1,%rax
    2da1:	eb 08                	jmp    2dab <_ZNKSt9type_info4nameEv+0x2d>
    2da3:	48 8b 45 f8          	mov    -0x8(%rbp),%rax
    2da7:	48 8b 40 08          	mov    0x8(%rax),%rax
    2dab:	5d                   	pop    %rbp
    2dac:	c3                   	retq   

0000000000002dad <_ZnwmPv>:
    2dad:	55                   	push   %rbp
    2dae:	48 89 e5             	mov    %rsp,%rbp
    2db1:	48 89 7d f8          	mov    %rdi,-0x8(%rbp)
    2db5:	48 89 75 f0          	mov    %rsi,-0x10(%rbp)
    2db9:	48 8b 45 f0          	mov    -0x10(%rbp),%rax
    2dbd:	5d                   	pop    %rbp
    2dbe:	c3                   	retq   

0000000000002dbf <_ZdlPvS_>:
    2dbf:	55                   	push   %rbp
    2dc0:	48 89 e5             	mov    %rsp,%rbp
    2dc3:	48 89 7d f8          	mov    %rdi,-0x8(%rbp)
    2dc7:	48 89 75 f0          	mov    %rsi,-0x10(%rbp)
    2dcb:	90                   	nop
    2dcc:	5d                   	pop    %rbp
    2dcd:	c3                   	retq   

0000000000002dce <_ZNSt11char_traitsIcE7compareEPKcS2_m>:
    2dce:	55                   	push   %rbp
    2dcf:	48 89 e5             	mov    %rsp,%rbp
    2dd2:	48 83 ec 20          	sub    $0x20,%rsp
    2dd6:	48 89 7d f8          	mov    %rdi,-0x8(%rbp)
    2dda:	48 89 75 f0          	mov    %rsi,-0x10(%rbp)
    2dde:	48 89 55 e8          	mov    %rdx,-0x18(%rbp)
    2de2:	48 83 7d e8 00       	cmpq   $0x0,-0x18(%rbp)
    2de7:	75 07                	jne    2df0 <_ZNSt11char_traitsIcE7compareEPKcS2_m+0x22>
    2de9:	b8 00 00 00 00       	mov    $0x0,%eax
    2dee:	eb 17                	jmp    2e07 <_ZNSt11char_traitsIcE7compareEPKcS2_m+0x39>
    2df0:	48 8b 55 e8          	mov    -0x18(%rbp),%rdx
    2df4:	48 8b 4d f0          	mov    -0x10(%rbp),%rcx
    2df8:	48 8b 45 f8          	mov    -0x8(%rbp),%rax
    2dfc:	48 89 ce             	mov    %rcx,%rsi
    2dff:	48 89 c7             	mov    %rax,%rdi
    2e02:	e8 89 e6 ff ff       	callq  1490 <memcmp@plt>
    2e07:	c9                   	leaveq 
    2e08:	c3                   	retq   
    2e09:	90                   	nop

0000000000002e0a <_ZNKSt4hashIiEclEi>:
    2e0a:	55                   	push   %rbp
    2e0b:	48 89 e5             	mov    %rsp,%rbp
    2e0e:	48 89 7d f8          	mov    %rdi,-0x8(%rbp)
    2e12:	89 75 f4             	mov    %esi,-0xc(%rbp)
    2e15:	8b 45 f4             	mov    -0xc(%rbp),%eax
    2e18:	48 98                	cltq   
    2e1a:	5d                   	pop    %rbp
    2e1b:	c3                   	retq   

0000000000002e1c <_ZNSt10_Hash_impl4hashEPKvmm>:
    2e1c:	55                   	push   %rbp
    2e1d:	48 89 e5             	mov    %rsp,%rbp
    2e20:	48 83 ec 20          	sub    $0x20,%rsp
    2e24:	48 89 7d f8          	mov    %rdi,-0x8(%rbp)
    2e28:	48 89 75 f0          	mov    %rsi,-0x10(%rbp)
    2e2c:	48 89 55 e8          	mov    %rdx,-0x18(%rbp)
    2e30:	48 8b 55 e8          	mov    -0x18(%rbp),%rdx
    2e34:	48 8b 4d f0          	mov    -0x10(%rbp),%rcx
    2e38:	48 8b 45 f8          	mov    -0x8(%rbp),%rax
    2e3c:	48 89 ce             	mov    %rcx,%rsi
    2e3f:	48 89 c7             	mov    %rax,%rdi
    2e42:	e8 f9 e5 ff ff       	callq  1440 <_ZSt11_Hash_bytesPKvmm@plt>
    2e47:	c9                   	leaveq 
    2e48:	c3                   	retq   
    2e49:	90                   	nop

0000000000002e4a <_ZNKSt4hashINSt7__cxx1112basic_stringIcSt11char_traitsIcESaIcEEEEclERKS5_>:
    2e4a:	55                   	push   %rbp
    2e4b:	48 89 e5             	mov    %rsp,%rbp
    2e4e:	53                   	push   %rbx
    2e4f:	48 83 ec 18          	sub    $0x18,%rsp
    2e53:	48 89 7d e8          	mov    %rdi,-0x18(%rbp)
    2e57:	48 89 75 e0          	mov    %rsi,-0x20(%rbp)
    2e5b:	48 8b 45 e0          	mov    -0x20(%rbp),%rax
    2e5f:	48 89 c7             	mov    %rax,%rdi
    2e62:	e8 59 e7 ff ff       	callq  15c0 <_ZNKSt7__cxx1112basic_stringIcSt11char_traitsIcESaIcEE6lengthEv@plt>
    2e67:	48 89 c3             	mov    %rax,%rbx
    2e6a:	48 8b 45 e0          	mov    -0x20(%rbp),%rax
    2e6e:	48 89 c7             	mov    %rax,%rdi
    2e71:	e8 0a e7 ff ff       	callq  1580 <_ZNKSt7__cxx1112basic_stringIcSt11char_traitsIcESaIcEE4dataEv@plt>
    2e76:	ba 07 69 0f c7       	mov    $0xc70f6907,%edx
    2e7b:	48 89 de             	mov    %rbx,%rsi
    2e7e:	48 89 c7             	mov    %rax,%rdi
    2e81:	e8 96 ff ff ff       	callq  2e1c <_ZNSt10_Hash_impl4hashEPKvmm>
    2e86:	48 83 c4 18          	add    $0x18,%rsp
    2e8a:	5b                   	pop    %rbx
    2e8b:	5d                   	pop    %rbp
    2e8c:	c3                   	retq   
    2e8d:	90                   	nop

0000000000002e8e <_ZNSt8__detail15_Hash_node_baseC1Ev>:
    2e8e:	55                   	push   %rbp
    2e8f:	48 89 e5             	mov    %rsp,%rbp
    2e92:	48 89 7d f8          	mov    %rdi,-0x8(%rbp)
    2e96:	48 8b 45 f8          	mov    -0x8(%rbp),%rax
    2e9a:	48 c7 00 00 00 00 00 	movq   $0x0,(%rax)
    2ea1:	90                   	nop
    2ea2:	5d                   	pop    %rbp
    2ea3:	c3                   	retq   

0000000000002ea4 <_ZNKSt8__detail18_Mod_range_hashingclEmm>:
    2ea4:	55                   	push   %rbp
    2ea5:	48 89 e5             	mov    %rsp,%rbp
    2ea8:	48 89 7d f8          	mov    %rdi,-0x8(%rbp)
    2eac:	48 89 75 f0          	mov    %rsi,-0x10(%rbp)
    2eb0:	48 89 55 e8          	mov    %rdx,-0x18(%rbp)
    2eb4:	48 8b 45 f0          	mov    -0x10(%rbp),%rax
    2eb8:	ba 00 00 00 00       	mov    $0x0,%edx
    2ebd:	48 f7 75 e8          	divq   -0x18(%rbp)
    2ec1:	48 89 d0             	mov    %rdx,%rax
    2ec4:	5d                   	pop    %rbp
    2ec5:	c3                   	retq   

0000000000002ec6 <_ZNSt8__detail20_Prime_rehash_policyC1Ef>:
    2ec6:	55                   	push   %rbp
    2ec7:	48 89 e5             	mov    %rsp,%rbp
    2eca:	48 89 7d f8          	mov    %rdi,-0x8(%rbp)
    2ece:	f3 0f 11 45 f4       	movss  %xmm0,-0xc(%rbp)
    2ed3:	48 8b 45 f8          	mov    -0x8(%rbp),%rax
    2ed7:	f3 0f 10 45 f4       	movss  -0xc(%rbp),%xmm0
    2edc:	f3 0f 11 00          	movss  %xmm0,(%rax)
    2ee0:	48 8b 45 f8          	mov    -0x8(%rbp),%rax
    2ee4:	48 c7 40 08 00 00 00 	movq   $0x0,0x8(%rax)
    2eeb:	00 
    2eec:	90                   	nop
    2eed:	5d                   	pop    %rbp
    2eee:	c3                   	retq   
    2eef:	90                   	nop

0000000000002ef0 <_ZNKSt8__detail20_Prime_rehash_policy19_M_bkt_for_elementsEm>:
    2ef0:	55                   	push   %rbp
    2ef1:	48 89 e5             	mov    %rsp,%rbp
    2ef4:	48 89 7d f8          	mov    %rdi,-0x8(%rbp)
    2ef8:	48 89 75 f0          	mov    %rsi,-0x10(%rbp)
    2efc:	df 6d f0             	fildll -0x10(%rbp)
    2eff:	48 83 7d f0 00       	cmpq   $0x0,-0x10(%rbp)
    2f04:	79 08                	jns    2f0e <_ZNKSt8__detail20_Prime_rehash_policy19_M_bkt_for_elementsEm+0x1e>
    2f06:	db 2d 24 74 00 00    	fldt   0x7424(%rip)        # a330 <_ZStL6ignore+0x29e>
    2f0c:	de c1                	faddp  %st,%st(1)
    2f0e:	48 8b 45 f8          	mov    -0x8(%rbp),%rax
    2f12:	d9 00                	flds   (%rax)
    2f14:	de f9                	fdivrp %st,%st(1)
    2f16:	dd 5d e8             	fstpl  -0x18(%rbp)
    2f19:	f2 0f 10 65 e8       	movsd  -0x18(%rbp),%xmm4
    2f1e:	f2 0f 10 1d 1a 74 00 	movsd  0x741a(%rip),%xmm3        # a340 <_ZStL6ignore+0x2ae>
    2f25:	00 
    2f26:	66 0f 28 c4          	movapd %xmm4,%xmm0
    2f2a:	f3 0f 7e 0d 1e 74 00 	movq   0x741e(%rip),%xmm1        # a350 <_ZStL6ignore+0x2be>
    2f31:	00 
    2f32:	66 0f 28 d1          	movapd %xmm1,%xmm2
    2f36:	66 0f 28 c8          	movapd %xmm0,%xmm1
    2f3a:	66 0f 54 ca          	andpd  %xmm2,%xmm1
    2f3e:	66 0f 2e d9          	ucomisd %xmm1,%xmm3
    2f42:	76 2b                	jbe    2f6f <_ZNKSt8__detail20_Prime_rehash_policy19_M_bkt_for_elementsEm+0x7f>
    2f44:	f2 48 0f 2c c0       	cvttsd2si %xmm0,%rax
    2f49:	f2 48 0f 2a c8       	cvtsi2sd %rax,%xmm1
    2f4e:	f2 0f 10 1d 0a 74 00 	movsd  0x740a(%rip),%xmm3        # a360 <_ZStL6ignore+0x2ce>
    2f55:	00 
    2f56:	f2 0f c2 c1 06       	cmpnlesd %xmm1,%xmm0
    2f5b:	66 0f 54 c3          	andpd  %xmm3,%xmm0
    2f5f:	f2 0f 58 c1          	addsd  %xmm1,%xmm0
    2f63:	66 0f 55 d4          	andnpd %xmm4,%xmm2
    2f67:	66 0f 28 ca          	movapd %xmm2,%xmm1
    2f6b:	66 0f 56 c1          	orpd   %xmm1,%xmm0
    2f6f:	66 0f 2e 05 f1 73 00 	ucomisd 0x73f1(%rip),%xmm0        # a368 <_ZStL6ignore+0x2d6>
    2f76:	00 
    2f77:	73 07                	jae    2f80 <_ZNKSt8__detail20_Prime_rehash_policy19_M_bkt_for_elementsEm+0x90>
    2f79:	f2 48 0f 2c c0       	cvttsd2si %xmm0,%rax
    2f7e:	eb 1e                	jmp    2f9e <_ZNKSt8__detail20_Prime_rehash_policy19_M_bkt_for_elementsEm+0xae>
    2f80:	f2 0f 10 0d e0 73 00 	movsd  0x73e0(%rip),%xmm1        # a368 <_ZStL6ignore+0x2d6>
    2f87:	00 
    2f88:	f2 0f 5c c1          	subsd  %xmm1,%xmm0
    2f8c:	f2 48 0f 2c c0       	cvttsd2si %xmm0,%rax
    2f91:	48 ba 00 00 00 00 00 	movabs $0x8000000000000000,%rdx
    2f98:	00 00 80 
    2f9b:	48 31 d0             	xor    %rdx,%rax
    2f9e:	5d                   	pop    %rbp
    2f9f:	c3                   	retq   

0000000000002fa0 <_ZNKSt8__detail20_Prime_rehash_policy8_M_stateEv>:
    2fa0:	55                   	push   %rbp
    2fa1:	48 89 e5             	mov    %rsp,%rbp
    2fa4:	48 89 7d f8          	mov    %rdi,-0x8(%rbp)
    2fa8:	48 8b 45 f8          	mov    -0x8(%rbp),%rax
    2fac:	48 8b 40 08          	mov    0x8(%rax),%rax
    2fb0:	5d                   	pop    %rbp
    2fb1:	c3                   	retq   

0000000000002fb2 <_ZNSt8__detail20_Prime_rehash_policy8_M_resetEm>:
    2fb2:	55                   	push   %rbp
    2fb3:	48 89 e5             	mov    %rsp,%rbp
    2fb6:	48 89 7d f8          	mov    %rdi,-0x8(%rbp)
    2fba:	48 89 75 f0          	mov    %rsi,-0x10(%rbp)
    2fbe:	48 8b 45 f8          	mov    -0x8(%rbp),%rax
    2fc2:	48 8b 55 f0          	mov    -0x10(%rbp),%rdx
    2fc6:	48 89 50 08          	mov    %rdx,0x8(%rax)
    2fca:	90                   	nop
    2fcb:	5d                   	pop    %rbp
    2fcc:	c3                   	retq   

0000000000002fcd <_ZSt7forwardIbEOT_RNSt16remove_referenceIS0_E4typeE>:
    2fcd:	55                   	push   %rbp
    2fce:	48 89 e5             	mov    %rsp,%rbp
    2fd1:	48 89 7d f8          	mov    %rdi,-0x8(%rbp)
    2fd5:	48 8b 45 f8          	mov    -0x8(%rbp),%rax
    2fd9:	5d                   	pop    %rbp
    2fda:	c3                   	retq   

0000000000002fdb <_ZSt7forwardIiEOT_RNSt16remove_referenceIS0_E4typeE>:
    2fdb:	55                   	push   %rbp
    2fdc:	48 89 e5             	mov    %rsp,%rbp
    2fdf:	48 89 7d f8          	mov    %rdi,-0x8(%rbp)
    2fe3:	48 8b 45 f8          	mov    -0x8(%rbp),%rax
    2fe7:	5d                   	pop    %rbp
    2fe8:	c3                   	retq   
    2fe9:	90                   	nop

0000000000002fea <_ZNSt4pairIKPKcNSt7__cxx1112basic_stringIcSt11char_traitsIcESaIcEEEED1Ev>:
    2fea:	55                   	push   %rbp
    2feb:	48 89 e5             	mov    %rsp,%rbp
    2fee:	48 83 ec 10          	sub    $0x10,%rsp
    2ff2:	48 89 7d f8          	mov    %rdi,-0x8(%rbp)
    2ff6:	48 8b 45 f8          	mov    -0x8(%rbp),%rax
    2ffa:	48 83 c0 08          	add    $0x8,%rax
    2ffe:	48 89 c7             	mov    %rax,%rdi
    3001:	e8 aa e4 ff ff       	callq  14b0 <_ZNSt7__cxx1112basic_stringIcSt11char_traitsIcESaIcEED1Ev@plt>
    3006:	90                   	nop
    3007:	c9                   	leaveq 
    3008:	c3                   	retq   
    3009:	90                   	nop

000000000000300a <_ZNSt13unordered_mapIPKcNSt7__cxx1112basic_stringIcSt11char_traitsIcESaIcEEESt4hashIS1_ESt8equal_toIS1_ESaISt4pairIKS1_S7_EEED1Ev>:
    300a:	55                   	push   %rbp
    300b:	48 89 e5             	mov    %rsp,%rbp
    300e:	48 83 ec 10          	sub    $0x10,%rsp
    3012:	48 89 7d f8          	mov    %rdi,-0x8(%rbp)
    3016:	48 8b 45 f8          	mov    -0x8(%rbp),%rax
    301a:	48 89 c7             	mov    %rax,%rdi
    301d:	e8 30 14 00 00       	callq  4452 <_ZNSt10_HashtableIPKcSt4pairIKS1_NSt7__cxx1112basic_stringIcSt11char_traitsIcESaIcEEEESaISA_ENSt8__detail10_Select1stESt8equal_toIS1_ESt4hashIS1_ENSC_18_Mod_range_hashingENSC_20_Default_ranged_hashENSC_20_Prime_rehash_policyENSC_17_Hashtable_traitsILb0ELb0ELb1EEEED1Ev>
    3022:	90                   	nop
    3023:	c9                   	leaveq 
    3024:	c3                   	retq   
    3025:	90                   	nop

0000000000003026 <_ZNSt4pairIKiNSt7__cxx1112basic_stringIcSt11char_traitsIcESaIcEEEED1Ev>:
    3026:	55                   	push   %rbp
    3027:	48 89 e5             	mov    %rsp,%rbp
    302a:	48 83 ec 10          	sub    $0x10,%rsp
    302e:	48 89 7d f8          	mov    %rdi,-0x8(%rbp)
    3032:	48 8b 45 f8          	mov    -0x8(%rbp),%rax
    3036:	48 83 c0 08          	add    $0x8,%rax
    303a:	48 89 c7             	mov    %rax,%rdi
    303d:	e8 6e e4 ff ff       	callq  14b0 <_ZNSt7__cxx1112basic_stringIcSt11char_traitsIcESaIcEED1Ev@plt>
    3042:	90                   	nop
    3043:	c9                   	leaveq 
    3044:	c3                   	retq   

0000000000003045 <_ZSt7forwardIRA11_KcEOT_RNSt16remove_referenceIS3_E4typeE>:
    3045:	55                   	push   %rbp
    3046:	48 89 e5             	mov    %rsp,%rbp
    3049:	48 89 7d f8          	mov    %rdi,-0x8(%rbp)
    304d:	48 8b 45 f8          	mov    -0x8(%rbp),%rax
    3051:	5d                   	pop    %rbp
    3052:	c3                   	retq   
    3053:	90                   	nop

0000000000003054 <_ZNSt4pairIKiNSt7__cxx1112basic_stringIcSt11char_traitsIcESaIcEEEEC1IiRA11_KcLb1EEEOT_OT0_>:
    3054:	55                   	push   %rbp
    3055:	48 89 e5             	mov    %rsp,%rbp
    3058:	53                   	push   %rbx
    3059:	48 83 ec 38          	sub    $0x38,%rsp
    305d:	48 89 7d d8          	mov    %rdi,-0x28(%rbp)
    3061:	48 89 75 d0          	mov    %rsi,-0x30(%rbp)
    3065:	48 89 55 c8          	mov    %rdx,-0x38(%rbp)
    3069:	64 48 8b 04 25 28 00 	mov    %fs:0x28,%rax
    3070:	00 00 
    3072:	48 89 45 e8          	mov    %rax,-0x18(%rbp)
    3076:	31 c0                	xor    %eax,%eax
    3078:	48 8b 45 d0          	mov    -0x30(%rbp),%rax
    307c:	48 89 c7             	mov    %rax,%rdi
    307f:	e8 57 ff ff ff       	callq  2fdb <_ZSt7forwardIiEOT_RNSt16remove_referenceIS0_E4typeE>
    3084:	8b 10                	mov    (%rax),%edx
    3086:	48 8b 45 d8          	mov    -0x28(%rbp),%rax
    308a:	89 10                	mov    %edx,(%rax)
    308c:	48 8b 45 d8          	mov    -0x28(%rbp),%rax
    3090:	48 8d 58 08          	lea    0x8(%rax),%rbx
    3094:	48 8d 45 e7          	lea    -0x19(%rbp),%rax
    3098:	48 89 c7             	mov    %rax,%rdi
    309b:	e8 70 e5 ff ff       	callq  1610 <_ZNSaIcEC1Ev@plt>
    30a0:	48 8b 45 c8          	mov    -0x38(%rbp),%rax
    30a4:	48 89 c7             	mov    %rax,%rdi
    30a7:	e8 99 ff ff ff       	callq  3045 <_ZSt7forwardIRA11_KcEOT_RNSt16remove_referenceIS3_E4typeE>
    30ac:	48 89 c1             	mov    %rax,%rcx
    30af:	48 8d 45 e7          	lea    -0x19(%rbp),%rax
    30b3:	48 89 c2             	mov    %rax,%rdx
    30b6:	48 89 ce             	mov    %rcx,%rsi
    30b9:	48 89 df             	mov    %rbx,%rdi
    30bc:	e8 df e4 ff ff       	callq  15a0 <_ZNSt7__cxx1112basic_stringIcSt11char_traitsIcESaIcEEC1EPKcRKS3_@plt>
    30c1:	48 8d 45 e7          	lea    -0x19(%rbp),%rax
    30c5:	48 89 c7             	mov    %rax,%rdi
    30c8:	e8 83 e4 ff ff       	callq  1550 <_ZNSaIcED1Ev@plt>
    30cd:	90                   	nop
    30ce:	48 8b 45 e8          	mov    -0x18(%rbp),%rax
    30d2:	64 48 33 04 25 28 00 	xor    %fs:0x28,%rax
    30d9:	00 00 
    30db:	74 21                	je     30fe <_ZNSt4pairIKiNSt7__cxx1112basic_stringIcSt11char_traitsIcESaIcEEEEC1IiRA11_KcLb1EEEOT_OT0_+0xaa>
    30dd:	eb 1a                	jmp    30f9 <_ZNSt4pairIKiNSt7__cxx1112basic_stringIcSt11char_traitsIcESaIcEEEEC1IiRA11_KcLb1EEEOT_OT0_+0xa5>
    30df:	48 89 c3             	mov    %rax,%rbx
    30e2:	48 8d 45 e7          	lea    -0x19(%rbp),%rax
    30e6:	48 89 c7             	mov    %rax,%rdi
    30e9:	e8 62 e4 ff ff       	callq  1550 <_ZNSaIcED1Ev@plt>
    30ee:	48 89 d8             	mov    %rbx,%rax
    30f1:	48 89 c7             	mov    %rax,%rdi
    30f4:	e8 07 e5 ff ff       	callq  1600 <_Unwind_Resume@plt>
    30f9:	e8 62 e4 ff ff       	callq  1560 <__stack_chk_fail@plt>
    30fe:	48 83 c4 38          	add    $0x38,%rsp
    3102:	5b                   	pop    %rbx
    3103:	5d                   	pop    %rbp
    3104:	c3                   	retq   

0000000000003105 <_ZSt7forwardIRA5_KcEOT_RNSt16remove_referenceIS3_E4typeE>:
    3105:	55                   	push   %rbp
    3106:	48 89 e5             	mov    %rsp,%rbp
    3109:	48 89 7d f8          	mov    %rdi,-0x8(%rbp)
    310d:	48 8b 45 f8          	mov    -0x8(%rbp),%rax
    3111:	5d                   	pop    %rbp
    3112:	c3                   	retq   
    3113:	90                   	nop

0000000000003114 <_ZNSt4pairIKiNSt7__cxx1112basic_stringIcSt11char_traitsIcESaIcEEEEC1IiRA5_KcLb1EEEOT_OT0_>:
    3114:	55                   	push   %rbp
    3115:	48 89 e5             	mov    %rsp,%rbp
    3118:	53                   	push   %rbx
    3119:	48 83 ec 38          	sub    $0x38,%rsp
    311d:	48 89 7d d8          	mov    %rdi,-0x28(%rbp)
    3121:	48 89 75 d0          	mov    %rsi,-0x30(%rbp)
    3125:	48 89 55 c8          	mov    %rdx,-0x38(%rbp)
    3129:	64 48 8b 04 25 28 00 	mov    %fs:0x28,%rax
    3130:	00 00 
    3132:	48 89 45 e8          	mov    %rax,-0x18(%rbp)
    3136:	31 c0                	xor    %eax,%eax
    3138:	48 8b 45 d0          	mov    -0x30(%rbp),%rax
    313c:	48 89 c7             	mov    %rax,%rdi
    313f:	e8 97 fe ff ff       	callq  2fdb <_ZSt7forwardIiEOT_RNSt16remove_referenceIS0_E4typeE>
    3144:	8b 10                	mov    (%rax),%edx
    3146:	48 8b 45 d8          	mov    -0x28(%rbp),%rax
    314a:	89 10                	mov    %edx,(%rax)
    314c:	48 8b 45 d8          	mov    -0x28(%rbp),%rax
    3150:	48 8d 58 08          	lea    0x8(%rax),%rbx
    3154:	48 8d 45 e7          	lea    -0x19(%rbp),%rax
    3158:	48 89 c7             	mov    %rax,%rdi
    315b:	e8 b0 e4 ff ff       	callq  1610 <_ZNSaIcEC1Ev@plt>
    3160:	48 8b 45 c8          	mov    -0x38(%rbp),%rax
    3164:	48 89 c7             	mov    %rax,%rdi
    3167:	e8 99 ff ff ff       	callq  3105 <_ZSt7forwardIRA5_KcEOT_RNSt16remove_referenceIS3_E4typeE>
    316c:	48 89 c1             	mov    %rax,%rcx
    316f:	48 8d 45 e7          	lea    -0x19(%rbp),%rax
    3173:	48 89 c2             	mov    %rax,%rdx
    3176:	48 89 ce             	mov    %rcx,%rsi
    3179:	48 89 df             	mov    %rbx,%rdi
    317c:	e8 1f e4 ff ff       	callq  15a0 <_ZNSt7__cxx1112basic_stringIcSt11char_traitsIcESaIcEEC1EPKcRKS3_@plt>
    3181:	48 8d 45 e7          	lea    -0x19(%rbp),%rax
    3185:	48 89 c7             	mov    %rax,%rdi
    3188:	e8 c3 e3 ff ff       	callq  1550 <_ZNSaIcED1Ev@plt>
    318d:	90                   	nop
    318e:	48 8b 45 e8          	mov    -0x18(%rbp),%rax
    3192:	64 48 33 04 25 28 00 	xor    %fs:0x28,%rax
    3199:	00 00 
    319b:	74 21                	je     31be <_ZNSt4pairIKiNSt7__cxx1112basic_stringIcSt11char_traitsIcESaIcEEEEC1IiRA5_KcLb1EEEOT_OT0_+0xaa>
    319d:	eb 1a                	jmp    31b9 <_ZNSt4pairIKiNSt7__cxx1112basic_stringIcSt11char_traitsIcESaIcEEEEC1IiRA5_KcLb1EEEOT_OT0_+0xa5>
    319f:	48 89 c3             	mov    %rax,%rbx
    31a2:	48 8d 45 e7          	lea    -0x19(%rbp),%rax
    31a6:	48 89 c7             	mov    %rax,%rdi
    31a9:	e8 a2 e3 ff ff       	callq  1550 <_ZNSaIcED1Ev@plt>
    31ae:	48 89 d8             	mov    %rbx,%rax
    31b1:	48 89 c7             	mov    %rax,%rdi
    31b4:	e8 47 e4 ff ff       	callq  1600 <_Unwind_Resume@plt>
    31b9:	e8 a2 e3 ff ff       	callq  1560 <__stack_chk_fail@plt>
    31be:	48 83 c4 38          	add    $0x38,%rsp
    31c2:	5b                   	pop    %rbx
    31c3:	5d                   	pop    %rbp
    31c4:	c3                   	retq   

00000000000031c5 <_ZSt7forwardIRA10_KcEOT_RNSt16remove_referenceIS3_E4typeE>:
    31c5:	55                   	push   %rbp
    31c6:	48 89 e5             	mov    %rsp,%rbp
    31c9:	48 89 7d f8          	mov    %rdi,-0x8(%rbp)
    31cd:	48 8b 45 f8          	mov    -0x8(%rbp),%rax
    31d1:	5d                   	pop    %rbp
    31d2:	c3                   	retq   
    31d3:	90                   	nop

00000000000031d4 <_ZNSt4pairIKiNSt7__cxx1112basic_stringIcSt11char_traitsIcESaIcEEEEC1IiRA10_KcLb1EEEOT_OT0_>:
    31d4:	55                   	push   %rbp
    31d5:	48 89 e5             	mov    %rsp,%rbp
    31d8:	53                   	push   %rbx
    31d9:	48 83 ec 38          	sub    $0x38,%rsp
    31dd:	48 89 7d d8          	mov    %rdi,-0x28(%rbp)
    31e1:	48 89 75 d0          	mov    %rsi,-0x30(%rbp)
    31e5:	48 89 55 c8          	mov    %rdx,-0x38(%rbp)
    31e9:	64 48 8b 04 25 28 00 	mov    %fs:0x28,%rax
    31f0:	00 00 
    31f2:	48 89 45 e8          	mov    %rax,-0x18(%rbp)
    31f6:	31 c0                	xor    %eax,%eax
    31f8:	48 8b 45 d0          	mov    -0x30(%rbp),%rax
    31fc:	48 89 c7             	mov    %rax,%rdi
    31ff:	e8 d7 fd ff ff       	callq  2fdb <_ZSt7forwardIiEOT_RNSt16remove_referenceIS0_E4typeE>
    3204:	8b 10                	mov    (%rax),%edx
    3206:	48 8b 45 d8          	mov    -0x28(%rbp),%rax
    320a:	89 10                	mov    %edx,(%rax)
    320c:	48 8b 45 d8          	mov    -0x28(%rbp),%rax
    3210:	48 8d 58 08          	lea    0x8(%rax),%rbx
    3214:	48 8d 45 e7          	lea    -0x19(%rbp),%rax
    3218:	48 89 c7             	mov    %rax,%rdi
    321b:	e8 f0 e3 ff ff       	callq  1610 <_ZNSaIcEC1Ev@plt>
    3220:	48 8b 45 c8          	mov    -0x38(%rbp),%rax
    3224:	48 89 c7             	mov    %rax,%rdi
    3227:	e8 99 ff ff ff       	callq  31c5 <_ZSt7forwardIRA10_KcEOT_RNSt16remove_referenceIS3_E4typeE>
    322c:	48 89 c1             	mov    %rax,%rcx
    322f:	48 8d 45 e7          	lea    -0x19(%rbp),%rax
    3233:	48 89 c2             	mov    %rax,%rdx
    3236:	48 89 ce             	mov    %rcx,%rsi
    3239:	48 89 df             	mov    %rbx,%rdi
    323c:	e8 5f e3 ff ff       	callq  15a0 <_ZNSt7__cxx1112basic_stringIcSt11char_traitsIcESaIcEEC1EPKcRKS3_@plt>
    3241:	48 8d 45 e7          	lea    -0x19(%rbp),%rax
    3245:	48 89 c7             	mov    %rax,%rdi
    3248:	e8 03 e3 ff ff       	callq  1550 <_ZNSaIcED1Ev@plt>
    324d:	90                   	nop
    324e:	48 8b 45 e8          	mov    -0x18(%rbp),%rax
    3252:	64 48 33 04 25 28 00 	xor    %fs:0x28,%rax
    3259:	00 00 
    325b:	74 21                	je     327e <_ZNSt4pairIKiNSt7__cxx1112basic_stringIcSt11char_traitsIcESaIcEEEEC1IiRA10_KcLb1EEEOT_OT0_+0xaa>
    325d:	eb 1a                	jmp    3279 <_ZNSt4pairIKiNSt7__cxx1112basic_stringIcSt11char_traitsIcESaIcEEEEC1IiRA10_KcLb1EEEOT_OT0_+0xa5>
    325f:	48 89 c3             	mov    %rax,%rbx
    3262:	48 8d 45 e7          	lea    -0x19(%rbp),%rax
    3266:	48 89 c7             	mov    %rax,%rdi
    3269:	e8 e2 e2 ff ff       	callq  1550 <_ZNSaIcED1Ev@plt>
    326e:	48 89 d8             	mov    %rbx,%rax
    3271:	48 89 c7             	mov    %rax,%rdi
    3274:	e8 87 e3 ff ff       	callq  1600 <_Unwind_Resume@plt>
    3279:	e8 e2 e2 ff ff       	callq  1560 <__stack_chk_fail@plt>
    327e:	48 83 c4 38          	add    $0x38,%rsp
    3282:	5b                   	pop    %rbx
    3283:	5d                   	pop    %rbp
    3284:	c3                   	retq   

0000000000003285 <_ZSt7forwardIRA6_KcEOT_RNSt16remove_referenceIS3_E4typeE>:
    3285:	55                   	push   %rbp
    3286:	48 89 e5             	mov    %rsp,%rbp
    3289:	48 89 7d f8          	mov    %rdi,-0x8(%rbp)
    328d:	48 8b 45 f8          	mov    -0x8(%rbp),%rax
    3291:	5d                   	pop    %rbp
    3292:	c3                   	retq   
    3293:	90                   	nop

0000000000003294 <_ZNSt4pairIKiNSt7__cxx1112basic_stringIcSt11char_traitsIcESaIcEEEEC1IiRA6_KcLb1EEEOT_OT0_>:
    3294:	55                   	push   %rbp
    3295:	48 89 e5             	mov    %rsp,%rbp
    3298:	53                   	push   %rbx
    3299:	48 83 ec 38          	sub    $0x38,%rsp
    329d:	48 89 7d d8          	mov    %rdi,-0x28(%rbp)
    32a1:	48 89 75 d0          	mov    %rsi,-0x30(%rbp)
    32a5:	48 89 55 c8          	mov    %rdx,-0x38(%rbp)
    32a9:	64 48 8b 04 25 28 00 	mov    %fs:0x28,%rax
    32b0:	00 00 
    32b2:	48 89 45 e8          	mov    %rax,-0x18(%rbp)
    32b6:	31 c0                	xor    %eax,%eax
    32b8:	48 8b 45 d0          	mov    -0x30(%rbp),%rax
    32bc:	48 89 c7             	mov    %rax,%rdi
    32bf:	e8 17 fd ff ff       	callq  2fdb <_ZSt7forwardIiEOT_RNSt16remove_referenceIS0_E4typeE>
    32c4:	8b 10                	mov    (%rax),%edx
    32c6:	48 8b 45 d8          	mov    -0x28(%rbp),%rax
    32ca:	89 10                	mov    %edx,(%rax)
    32cc:	48 8b 45 d8          	mov    -0x28(%rbp),%rax
    32d0:	48 8d 58 08          	lea    0x8(%rax),%rbx
    32d4:	48 8d 45 e7          	lea    -0x19(%rbp),%rax
    32d8:	48 89 c7             	mov    %rax,%rdi
    32db:	e8 30 e3 ff ff       	callq  1610 <_ZNSaIcEC1Ev@plt>
    32e0:	48 8b 45 c8          	mov    -0x38(%rbp),%rax
    32e4:	48 89 c7             	mov    %rax,%rdi
    32e7:	e8 99 ff ff ff       	callq  3285 <_ZSt7forwardIRA6_KcEOT_RNSt16remove_referenceIS3_E4typeE>
    32ec:	48 89 c1             	mov    %rax,%rcx
    32ef:	48 8d 45 e7          	lea    -0x19(%rbp),%rax
    32f3:	48 89 c2             	mov    %rax,%rdx
    32f6:	48 89 ce             	mov    %rcx,%rsi
    32f9:	48 89 df             	mov    %rbx,%rdi
    32fc:	e8 9f e2 ff ff       	callq  15a0 <_ZNSt7__cxx1112basic_stringIcSt11char_traitsIcESaIcEEC1EPKcRKS3_@plt>
    3301:	48 8d 45 e7          	lea    -0x19(%rbp),%rax
    3305:	48 89 c7             	mov    %rax,%rdi
    3308:	e8 43 e2 ff ff       	callq  1550 <_ZNSaIcED1Ev@plt>
    330d:	90                   	nop
    330e:	48 8b 45 e8          	mov    -0x18(%rbp),%rax
    3312:	64 48 33 04 25 28 00 	xor    %fs:0x28,%rax
    3319:	00 00 
    331b:	74 21                	je     333e <_ZNSt4pairIKiNSt7__cxx1112basic_stringIcSt11char_traitsIcESaIcEEEEC1IiRA6_KcLb1EEEOT_OT0_+0xaa>
    331d:	eb 1a                	jmp    3339 <_ZNSt4pairIKiNSt7__cxx1112basic_stringIcSt11char_traitsIcESaIcEEEEC1IiRA6_KcLb1EEEOT_OT0_+0xa5>
    331f:	48 89 c3             	mov    %rax,%rbx
    3322:	48 8d 45 e7          	lea    -0x19(%rbp),%rax
    3326:	48 89 c7             	mov    %rax,%rdi
    3329:	e8 22 e2 ff ff       	callq  1550 <_ZNSaIcED1Ev@plt>
    332e:	48 89 d8             	mov    %rbx,%rax
    3331:	48 89 c7             	mov    %rax,%rdi
    3334:	e8 c7 e2 ff ff       	callq  1600 <_Unwind_Resume@plt>
    3339:	e8 22 e2 ff ff       	callq  1560 <__stack_chk_fail@plt>
    333e:	48 83 c4 38          	add    $0x38,%rsp
    3342:	5b                   	pop    %rbx
    3343:	5d                   	pop    %rbp
    3344:	c3                   	retq   

0000000000003345 <_ZSt7forwardIRA7_KcEOT_RNSt16remove_referenceIS3_E4typeE>:
    3345:	55                   	push   %rbp
    3346:	48 89 e5             	mov    %rsp,%rbp
    3349:	48 89 7d f8          	mov    %rdi,-0x8(%rbp)
    334d:	48 8b 45 f8          	mov    -0x8(%rbp),%rax
    3351:	5d                   	pop    %rbp
    3352:	c3                   	retq   
    3353:	90                   	nop

0000000000003354 <_ZNSt4pairIKiNSt7__cxx1112basic_stringIcSt11char_traitsIcESaIcEEEEC1IiRA7_KcLb1EEEOT_OT0_>:
    3354:	55                   	push   %rbp
    3355:	48 89 e5             	mov    %rsp,%rbp
    3358:	53                   	push   %rbx
    3359:	48 83 ec 38          	sub    $0x38,%rsp
    335d:	48 89 7d d8          	mov    %rdi,-0x28(%rbp)
    3361:	48 89 75 d0          	mov    %rsi,-0x30(%rbp)
    3365:	48 89 55 c8          	mov    %rdx,-0x38(%rbp)
    3369:	64 48 8b 04 25 28 00 	mov    %fs:0x28,%rax
    3370:	00 00 
    3372:	48 89 45 e8          	mov    %rax,-0x18(%rbp)
    3376:	31 c0                	xor    %eax,%eax
    3378:	48 8b 45 d0          	mov    -0x30(%rbp),%rax
    337c:	48 89 c7             	mov    %rax,%rdi
    337f:	e8 57 fc ff ff       	callq  2fdb <_ZSt7forwardIiEOT_RNSt16remove_referenceIS0_E4typeE>
    3384:	8b 10                	mov    (%rax),%edx
    3386:	48 8b 45 d8          	mov    -0x28(%rbp),%rax
    338a:	89 10                	mov    %edx,(%rax)
    338c:	48 8b 45 d8          	mov    -0x28(%rbp),%rax
    3390:	48 8d 58 08          	lea    0x8(%rax),%rbx
    3394:	48 8d 45 e7          	lea    -0x19(%rbp),%rax
    3398:	48 89 c7             	mov    %rax,%rdi
    339b:	e8 70 e2 ff ff       	callq  1610 <_ZNSaIcEC1Ev@plt>
    33a0:	48 8b 45 c8          	mov    -0x38(%rbp),%rax
    33a4:	48 89 c7             	mov    %rax,%rdi
    33a7:	e8 99 ff ff ff       	callq  3345 <_ZSt7forwardIRA7_KcEOT_RNSt16remove_referenceIS3_E4typeE>
    33ac:	48 89 c1             	mov    %rax,%rcx
    33af:	48 8d 45 e7          	lea    -0x19(%rbp),%rax
    33b3:	48 89 c2             	mov    %rax,%rdx
    33b6:	48 89 ce             	mov    %rcx,%rsi
    33b9:	48 89 df             	mov    %rbx,%rdi
    33bc:	e8 df e1 ff ff       	callq  15a0 <_ZNSt7__cxx1112basic_stringIcSt11char_traitsIcESaIcEEC1EPKcRKS3_@plt>
    33c1:	48 8d 45 e7          	lea    -0x19(%rbp),%rax
    33c5:	48 89 c7             	mov    %rax,%rdi
    33c8:	e8 83 e1 ff ff       	callq  1550 <_ZNSaIcED1Ev@plt>
    33cd:	90                   	nop
    33ce:	48 8b 45 e8          	mov    -0x18(%rbp),%rax
    33d2:	64 48 33 04 25 28 00 	xor    %fs:0x28,%rax
    33d9:	00 00 
    33db:	74 21                	je     33fe <_ZNSt4pairIKiNSt7__cxx1112basic_stringIcSt11char_traitsIcESaIcEEEEC1IiRA7_KcLb1EEEOT_OT0_+0xaa>
    33dd:	eb 1a                	jmp    33f9 <_ZNSt4pairIKiNSt7__cxx1112basic_stringIcSt11char_traitsIcESaIcEEEEC1IiRA7_KcLb1EEEOT_OT0_+0xa5>
    33df:	48 89 c3             	mov    %rax,%rbx
    33e2:	48 8d 45 e7          	lea    -0x19(%rbp),%rax
    33e6:	48 89 c7             	mov    %rax,%rdi
    33e9:	e8 62 e1 ff ff       	callq  1550 <_ZNSaIcED1Ev@plt>
    33ee:	48 89 d8             	mov    %rbx,%rax
    33f1:	48 89 c7             	mov    %rax,%rdi
    33f4:	e8 07 e2 ff ff       	callq  1600 <_Unwind_Resume@plt>
    33f9:	e8 62 e1 ff ff       	callq  1560 <__stack_chk_fail@plt>
    33fe:	48 83 c4 38          	add    $0x38,%rsp
    3402:	5b                   	pop    %rbx
    3403:	5d                   	pop    %rbp
    3404:	c3                   	retq   

0000000000003405 <_ZSt7forwardIRA13_KcEOT_RNSt16remove_referenceIS3_E4typeE>:
    3405:	55                   	push   %rbp
    3406:	48 89 e5             	mov    %rsp,%rbp
    3409:	48 89 7d f8          	mov    %rdi,-0x8(%rbp)
    340d:	48 8b 45 f8          	mov    -0x8(%rbp),%rax
    3411:	5d                   	pop    %rbp
    3412:	c3                   	retq   
    3413:	90                   	nop

0000000000003414 <_ZNSt4pairIKiNSt7__cxx1112basic_stringIcSt11char_traitsIcESaIcEEEEC1IiRA13_KcLb1EEEOT_OT0_>:
    3414:	55                   	push   %rbp
    3415:	48 89 e5             	mov    %rsp,%rbp
    3418:	53                   	push   %rbx
    3419:	48 83 ec 38          	sub    $0x38,%rsp
    341d:	48 89 7d d8          	mov    %rdi,-0x28(%rbp)
    3421:	48 89 75 d0          	mov    %rsi,-0x30(%rbp)
    3425:	48 89 55 c8          	mov    %rdx,-0x38(%rbp)
    3429:	64 48 8b 04 25 28 00 	mov    %fs:0x28,%rax
    3430:	00 00 
    3432:	48 89 45 e8          	mov    %rax,-0x18(%rbp)
    3436:	31 c0                	xor    %eax,%eax
    3438:	48 8b 45 d0          	mov    -0x30(%rbp),%rax
    343c:	48 89 c7             	mov    %rax,%rdi
    343f:	e8 97 fb ff ff       	callq  2fdb <_ZSt7forwardIiEOT_RNSt16remove_referenceIS0_E4typeE>
    3444:	8b 10                	mov    (%rax),%edx
    3446:	48 8b 45 d8          	mov    -0x28(%rbp),%rax
    344a:	89 10                	mov    %edx,(%rax)
    344c:	48 8b 45 d8          	mov    -0x28(%rbp),%rax
    3450:	48 8d 58 08          	lea    0x8(%rax),%rbx
    3454:	48 8d 45 e7          	lea    -0x19(%rbp),%rax
    3458:	48 89 c7             	mov    %rax,%rdi
    345b:	e8 b0 e1 ff ff       	callq  1610 <_ZNSaIcEC1Ev@plt>
    3460:	48 8b 45 c8          	mov    -0x38(%rbp),%rax
    3464:	48 89 c7             	mov    %rax,%rdi
    3467:	e8 99 ff ff ff       	callq  3405 <_ZSt7forwardIRA13_KcEOT_RNSt16remove_referenceIS3_E4typeE>
    346c:	48 89 c1             	mov    %rax,%rcx
    346f:	48 8d 45 e7          	lea    -0x19(%rbp),%rax
    3473:	48 89 c2             	mov    %rax,%rdx
    3476:	48 89 ce             	mov    %rcx,%rsi
    3479:	48 89 df             	mov    %rbx,%rdi
    347c:	e8 1f e1 ff ff       	callq  15a0 <_ZNSt7__cxx1112basic_stringIcSt11char_traitsIcESaIcEEC1EPKcRKS3_@plt>
    3481:	48 8d 45 e7          	lea    -0x19(%rbp),%rax
    3485:	48 89 c7             	mov    %rax,%rdi
    3488:	e8 c3 e0 ff ff       	callq  1550 <_ZNSaIcED1Ev@plt>
    348d:	90                   	nop
    348e:	48 8b 45 e8          	mov    -0x18(%rbp),%rax
    3492:	64 48 33 04 25 28 00 	xor    %fs:0x28,%rax
    3499:	00 00 
    349b:	74 21                	je     34be <_ZNSt4pairIKiNSt7__cxx1112basic_stringIcSt11char_traitsIcESaIcEEEEC1IiRA13_KcLb1EEEOT_OT0_+0xaa>
    349d:	eb 1a                	jmp    34b9 <_ZNSt4pairIKiNSt7__cxx1112basic_stringIcSt11char_traitsIcESaIcEEEEC1IiRA13_KcLb1EEEOT_OT0_+0xa5>
    349f:	48 89 c3             	mov    %rax,%rbx
    34a2:	48 8d 45 e7          	lea    -0x19(%rbp),%rax
    34a6:	48 89 c7             	mov    %rax,%rdi
    34a9:	e8 a2 e0 ff ff       	callq  1550 <_ZNSaIcED1Ev@plt>
    34ae:	48 89 d8             	mov    %rbx,%rax
    34b1:	48 89 c7             	mov    %rax,%rdi
    34b4:	e8 47 e1 ff ff       	callq  1600 <_Unwind_Resume@plt>
    34b9:	e8 a2 e0 ff ff       	callq  1560 <__stack_chk_fail@plt>
    34be:	48 83 c4 38          	add    $0x38,%rsp
    34c2:	5b                   	pop    %rbx
    34c3:	5d                   	pop    %rbp
    34c4:	c3                   	retq   

00000000000034c5 <_ZSt7forwardIRA15_KcEOT_RNSt16remove_referenceIS3_E4typeE>:
    34c5:	55                   	push   %rbp
    34c6:	48 89 e5             	mov    %rsp,%rbp
    34c9:	48 89 7d f8          	mov    %rdi,-0x8(%rbp)
    34cd:	48 8b 45 f8          	mov    -0x8(%rbp),%rax
    34d1:	5d                   	pop    %rbp
    34d2:	c3                   	retq   
    34d3:	90                   	nop

00000000000034d4 <_ZNSt4pairIKiNSt7__cxx1112basic_stringIcSt11char_traitsIcESaIcEEEEC1IiRA15_KcLb1EEEOT_OT0_>:
    34d4:	55                   	push   %rbp
    34d5:	48 89 e5             	mov    %rsp,%rbp
    34d8:	53                   	push   %rbx
    34d9:	48 83 ec 38          	sub    $0x38,%rsp
    34dd:	48 89 7d d8          	mov    %rdi,-0x28(%rbp)
    34e1:	48 89 75 d0          	mov    %rsi,-0x30(%rbp)
    34e5:	48 89 55 c8          	mov    %rdx,-0x38(%rbp)
    34e9:	64 48 8b 04 25 28 00 	mov    %fs:0x28,%rax
    34f0:	00 00 
    34f2:	48 89 45 e8          	mov    %rax,-0x18(%rbp)
    34f6:	31 c0                	xor    %eax,%eax
    34f8:	48 8b 45 d0          	mov    -0x30(%rbp),%rax
    34fc:	48 89 c7             	mov    %rax,%rdi
    34ff:	e8 d7 fa ff ff       	callq  2fdb <_ZSt7forwardIiEOT_RNSt16remove_referenceIS0_E4typeE>
    3504:	8b 10                	mov    (%rax),%edx
    3506:	48 8b 45 d8          	mov    -0x28(%rbp),%rax
    350a:	89 10                	mov    %edx,(%rax)
    350c:	48 8b 45 d8          	mov    -0x28(%rbp),%rax
    3510:	48 8d 58 08          	lea    0x8(%rax),%rbx
    3514:	48 8d 45 e7          	lea    -0x19(%rbp),%rax
    3518:	48 89 c7             	mov    %rax,%rdi
    351b:	e8 f0 e0 ff ff       	callq  1610 <_ZNSaIcEC1Ev@plt>
    3520:	48 8b 45 c8          	mov    -0x38(%rbp),%rax
    3524:	48 89 c7             	mov    %rax,%rdi
    3527:	e8 99 ff ff ff       	callq  34c5 <_ZSt7forwardIRA15_KcEOT_RNSt16remove_referenceIS3_E4typeE>
    352c:	48 89 c1             	mov    %rax,%rcx
    352f:	48 8d 45 e7          	lea    -0x19(%rbp),%rax
    3533:	48 89 c2             	mov    %rax,%rdx
    3536:	48 89 ce             	mov    %rcx,%rsi
    3539:	48 89 df             	mov    %rbx,%rdi
    353c:	e8 5f e0 ff ff       	callq  15a0 <_ZNSt7__cxx1112basic_stringIcSt11char_traitsIcESaIcEEC1EPKcRKS3_@plt>
    3541:	48 8d 45 e7          	lea    -0x19(%rbp),%rax
    3545:	48 89 c7             	mov    %rax,%rdi
    3548:	e8 03 e0 ff ff       	callq  1550 <_ZNSaIcED1Ev@plt>
    354d:	90                   	nop
    354e:	48 8b 45 e8          	mov    -0x18(%rbp),%rax
    3552:	64 48 33 04 25 28 00 	xor    %fs:0x28,%rax
    3559:	00 00 
    355b:	74 21                	je     357e <_ZNSt4pairIKiNSt7__cxx1112basic_stringIcSt11char_traitsIcESaIcEEEEC1IiRA15_KcLb1EEEOT_OT0_+0xaa>
    355d:	eb 1a                	jmp    3579 <_ZNSt4pairIKiNSt7__cxx1112basic_stringIcSt11char_traitsIcESaIcEEEEC1IiRA15_KcLb1EEEOT_OT0_+0xa5>
    355f:	48 89 c3             	mov    %rax,%rbx
    3562:	48 8d 45 e7          	lea    -0x19(%rbp),%rax
    3566:	48 89 c7             	mov    %rax,%rdi
    3569:	e8 e2 df ff ff       	callq  1550 <_ZNSaIcED1Ev@plt>
    356e:	48 89 d8             	mov    %rbx,%rax
    3571:	48 89 c7             	mov    %rax,%rdi
    3574:	e8 87 e0 ff ff       	callq  1600 <_Unwind_Resume@plt>
    3579:	e8 e2 df ff ff       	callq  1560 <__stack_chk_fail@plt>
    357e:	48 83 c4 38          	add    $0x38,%rsp
    3582:	5b                   	pop    %rbx
    3583:	5d                   	pop    %rbp
    3584:	c3                   	retq   
    3585:	90                   	nop

0000000000003586 <_ZNSt13unordered_mapIiNSt7__cxx1112basic_stringIcSt11char_traitsIcESaIcEEESt4hashIiESt8equal_toIiESaISt4pairIKiS5_EEED1Ev>:
    3586:	55                   	push   %rbp
    3587:	48 89 e5             	mov    %rsp,%rbp
    358a:	48 83 ec 10          	sub    $0x10,%rsp
    358e:	48 89 7d f8          	mov    %rdi,-0x8(%rbp)
    3592:	48 8b 45 f8          	mov    -0x8(%rbp),%rax
    3596:	48 89 c7             	mov    %rax,%rdi
    3599:	e8 b6 0f 00 00       	callq  4554 <_ZNSt10_HashtableIiSt4pairIKiNSt7__cxx1112basic_stringIcSt11char_traitsIcESaIcEEEESaIS8_ENSt8__detail10_Select1stESt8equal_toIiESt4hashIiENSA_18_Mod_range_hashingENSA_20_Default_ranged_hashENSA_20_Prime_rehash_policyENSA_17_Hashtable_traitsILb0ELb0ELb1EEEED1Ev>
    359e:	90                   	nop
    359f:	c9                   	leaveq 
    35a0:	c3                   	retq   
    35a1:	90                   	nop

00000000000035a2 <_ZNSt4pairIKNSt7__cxx1112basic_stringIcSt11char_traitsIcESaIcEEEmED1Ev>:
    35a2:	55                   	push   %rbp
    35a3:	48 89 e5             	mov    %rsp,%rbp
    35a6:	48 83 ec 10          	sub    $0x10,%rsp
    35aa:	48 89 7d f8          	mov    %rdi,-0x8(%rbp)
    35ae:	48 8b 45 f8          	mov    -0x8(%rbp),%rax
    35b2:	48 89 c7             	mov    %rax,%rdi
    35b5:	e8 f6 de ff ff       	callq  14b0 <_ZNSt7__cxx1112basic_stringIcSt11char_traitsIcESaIcEED1Ev@plt>
    35ba:	90                   	nop
    35bb:	c9                   	leaveq 
    35bc:	c3                   	retq   
    35bd:	90                   	nop

00000000000035be <_ZNSt4pairIKNSt7__cxx1112basic_stringIcSt11char_traitsIcESaIcEEEmEC1IRA11_KcmLb1EEEOT_OT0_>:
    35be:	55                   	push   %rbp
    35bf:	48 89 e5             	mov    %rsp,%rbp
    35c2:	53                   	push   %rbx
    35c3:	48 83 ec 38          	sub    $0x38,%rsp
    35c7:	48 89 7d d8          	mov    %rdi,-0x28(%rbp)
    35cb:	48 89 75 d0          	mov    %rsi,-0x30(%rbp)
    35cf:	48 89 55 c8          	mov    %rdx,-0x38(%rbp)
    35d3:	64 48 8b 04 25 28 00 	mov    %fs:0x28,%rax
    35da:	00 00 
    35dc:	48 89 45 e8          	mov    %rax,-0x18(%rbp)
    35e0:	31 c0                	xor    %eax,%eax
    35e2:	48 8b 5d d8          	mov    -0x28(%rbp),%rbx
    35e6:	48 8d 45 e7          	lea    -0x19(%rbp),%rax
    35ea:	48 89 c7             	mov    %rax,%rdi
    35ed:	e8 1e e0 ff ff       	callq  1610 <_ZNSaIcEC1Ev@plt>
    35f2:	48 8b 45 d0          	mov    -0x30(%rbp),%rax
    35f6:	48 89 c7             	mov    %rax,%rdi
    35f9:	e8 47 fa ff ff       	callq  3045 <_ZSt7forwardIRA11_KcEOT_RNSt16remove_referenceIS3_E4typeE>
    35fe:	48 89 c1             	mov    %rax,%rcx
    3601:	48 8d 45 e7          	lea    -0x19(%rbp),%rax
    3605:	48 89 c2             	mov    %rax,%rdx
    3608:	48 89 ce             	mov    %rcx,%rsi
    360b:	48 89 df             	mov    %rbx,%rdi
    360e:	e8 8d df ff ff       	callq  15a0 <_ZNSt7__cxx1112basic_stringIcSt11char_traitsIcESaIcEEC1EPKcRKS3_@plt>
    3613:	48 8d 45 e7          	lea    -0x19(%rbp),%rax
    3617:	48 89 c7             	mov    %rax,%rdi
    361a:	e8 31 df ff ff       	callq  1550 <_ZNSaIcED1Ev@plt>
    361f:	48 8b 45 c8          	mov    -0x38(%rbp),%rax
    3623:	48 89 c7             	mov    %rax,%rdi
    3626:	e8 5f 08 00 00       	callq  3e8a <_ZSt7forwardImEOT_RNSt16remove_referenceIS0_E4typeE>
    362b:	48 8b 10             	mov    (%rax),%rdx
    362e:	48 8b 45 d8          	mov    -0x28(%rbp),%rax
    3632:	48 89 50 20          	mov    %rdx,0x20(%rax)
    3636:	90                   	nop
    3637:	48 8b 45 e8          	mov    -0x18(%rbp),%rax
    363b:	64 48 33 04 25 28 00 	xor    %fs:0x28,%rax
    3642:	00 00 
    3644:	74 21                	je     3667 <_ZNSt4pairIKNSt7__cxx1112basic_stringIcSt11char_traitsIcESaIcEEEmEC1IRA11_KcmLb1EEEOT_OT0_+0xa9>
    3646:	eb 1a                	jmp    3662 <_ZNSt4pairIKNSt7__cxx1112basic_stringIcSt11char_traitsIcESaIcEEEmEC1IRA11_KcmLb1EEEOT_OT0_+0xa4>
    3648:	48 89 c3             	mov    %rax,%rbx
    364b:	48 8d 45 e7          	lea    -0x19(%rbp),%rax
    364f:	48 89 c7             	mov    %rax,%rdi
    3652:	e8 f9 de ff ff       	callq  1550 <_ZNSaIcED1Ev@plt>
    3657:	48 89 d8             	mov    %rbx,%rax
    365a:	48 89 c7             	mov    %rax,%rdi
    365d:	e8 9e df ff ff       	callq  1600 <_Unwind_Resume@plt>
    3662:	e8 f9 de ff ff       	callq  1560 <__stack_chk_fail@plt>
    3667:	48 83 c4 38          	add    $0x38,%rsp
    366b:	5b                   	pop    %rbx
    366c:	5d                   	pop    %rbp
    366d:	c3                   	retq   

000000000000366e <_ZNSt4pairIKNSt7__cxx1112basic_stringIcSt11char_traitsIcESaIcEEEmEC1IRA5_KcmLb1EEEOT_OT0_>:
    366e:	55                   	push   %rbp
    366f:	48 89 e5             	mov    %rsp,%rbp
    3672:	53                   	push   %rbx
    3673:	48 83 ec 38          	sub    $0x38,%rsp
    3677:	48 89 7d d8          	mov    %rdi,-0x28(%rbp)
    367b:	48 89 75 d0          	mov    %rsi,-0x30(%rbp)
    367f:	48 89 55 c8          	mov    %rdx,-0x38(%rbp)
    3683:	64 48 8b 04 25 28 00 	mov    %fs:0x28,%rax
    368a:	00 00 
    368c:	48 89 45 e8          	mov    %rax,-0x18(%rbp)
    3690:	31 c0                	xor    %eax,%eax
    3692:	48 8b 5d d8          	mov    -0x28(%rbp),%rbx
    3696:	48 8d 45 e7          	lea    -0x19(%rbp),%rax
    369a:	48 89 c7             	mov    %rax,%rdi
    369d:	e8 6e df ff ff       	callq  1610 <_ZNSaIcEC1Ev@plt>
    36a2:	48 8b 45 d0          	mov    -0x30(%rbp),%rax
    36a6:	48 89 c7             	mov    %rax,%rdi
    36a9:	e8 57 fa ff ff       	callq  3105 <_ZSt7forwardIRA5_KcEOT_RNSt16remove_referenceIS3_E4typeE>
    36ae:	48 89 c1             	mov    %rax,%rcx
    36b1:	48 8d 45 e7          	lea    -0x19(%rbp),%rax
    36b5:	48 89 c2             	mov    %rax,%rdx
    36b8:	48 89 ce             	mov    %rcx,%rsi
    36bb:	48 89 df             	mov    %rbx,%rdi
    36be:	e8 dd de ff ff       	callq  15a0 <_ZNSt7__cxx1112basic_stringIcSt11char_traitsIcESaIcEEC1EPKcRKS3_@plt>
    36c3:	48 8d 45 e7          	lea    -0x19(%rbp),%rax
    36c7:	48 89 c7             	mov    %rax,%rdi
    36ca:	e8 81 de ff ff       	callq  1550 <_ZNSaIcED1Ev@plt>
    36cf:	48 8b 45 c8          	mov    -0x38(%rbp),%rax
    36d3:	48 89 c7             	mov    %rax,%rdi
    36d6:	e8 af 07 00 00       	callq  3e8a <_ZSt7forwardImEOT_RNSt16remove_referenceIS0_E4typeE>
    36db:	48 8b 10             	mov    (%rax),%rdx
    36de:	48 8b 45 d8          	mov    -0x28(%rbp),%rax
    36e2:	48 89 50 20          	mov    %rdx,0x20(%rax)
    36e6:	90                   	nop
    36e7:	48 8b 45 e8          	mov    -0x18(%rbp),%rax
    36eb:	64 48 33 04 25 28 00 	xor    %fs:0x28,%rax
    36f2:	00 00 
    36f4:	74 21                	je     3717 <_ZNSt4pairIKNSt7__cxx1112basic_stringIcSt11char_traitsIcESaIcEEEmEC1IRA5_KcmLb1EEEOT_OT0_+0xa9>
    36f6:	eb 1a                	jmp    3712 <_ZNSt4pairIKNSt7__cxx1112basic_stringIcSt11char_traitsIcESaIcEEEmEC1IRA5_KcmLb1EEEOT_OT0_+0xa4>
    36f8:	48 89 c3             	mov    %rax,%rbx
    36fb:	48 8d 45 e7          	lea    -0x19(%rbp),%rax
    36ff:	48 89 c7             	mov    %rax,%rdi
    3702:	e8 49 de ff ff       	callq  1550 <_ZNSaIcED1Ev@plt>
    3707:	48 89 d8             	mov    %rbx,%rax
    370a:	48 89 c7             	mov    %rax,%rdi
    370d:	e8 ee de ff ff       	callq  1600 <_Unwind_Resume@plt>
    3712:	e8 49 de ff ff       	callq  1560 <__stack_chk_fail@plt>
    3717:	48 83 c4 38          	add    $0x38,%rsp
    371b:	5b                   	pop    %rbx
    371c:	5d                   	pop    %rbp
    371d:	c3                   	retq   

000000000000371e <_ZNSt4pairIKNSt7__cxx1112basic_stringIcSt11char_traitsIcESaIcEEEmEC1IRA10_KcmLb1EEEOT_OT0_>:
    371e:	55                   	push   %rbp
    371f:	48 89 e5             	mov    %rsp,%rbp
    3722:	53                   	push   %rbx
    3723:	48 83 ec 38          	sub    $0x38,%rsp
    3727:	48 89 7d d8          	mov    %rdi,-0x28(%rbp)
    372b:	48 89 75 d0          	mov    %rsi,-0x30(%rbp)
    372f:	48 89 55 c8          	mov    %rdx,-0x38(%rbp)
    3733:	64 48 8b 04 25 28 00 	mov    %fs:0x28,%rax
    373a:	00 00 
    373c:	48 89 45 e8          	mov    %rax,-0x18(%rbp)
    3740:	31 c0                	xor    %eax,%eax
    3742:	48 8b 5d d8          	mov    -0x28(%rbp),%rbx
    3746:	48 8d 45 e7          	lea    -0x19(%rbp),%rax
    374a:	48 89 c7             	mov    %rax,%rdi
    374d:	e8 be de ff ff       	callq  1610 <_ZNSaIcEC1Ev@plt>
    3752:	48 8b 45 d0          	mov    -0x30(%rbp),%rax
    3756:	48 89 c7             	mov    %rax,%rdi
    3759:	e8 67 fa ff ff       	callq  31c5 <_ZSt7forwardIRA10_KcEOT_RNSt16remove_referenceIS3_E4typeE>
    375e:	48 89 c1             	mov    %rax,%rcx
    3761:	48 8d 45 e7          	lea    -0x19(%rbp),%rax
    3765:	48 89 c2             	mov    %rax,%rdx
    3768:	48 89 ce             	mov    %rcx,%rsi
    376b:	48 89 df             	mov    %rbx,%rdi
    376e:	e8 2d de ff ff       	callq  15a0 <_ZNSt7__cxx1112basic_stringIcSt11char_traitsIcESaIcEEC1EPKcRKS3_@plt>
    3773:	48 8d 45 e7          	lea    -0x19(%rbp),%rax
    3777:	48 89 c7             	mov    %rax,%rdi
    377a:	e8 d1 dd ff ff       	callq  1550 <_ZNSaIcED1Ev@plt>
    377f:	48 8b 45 c8          	mov    -0x38(%rbp),%rax
    3783:	48 89 c7             	mov    %rax,%rdi
    3786:	e8 ff 06 00 00       	callq  3e8a <_ZSt7forwardImEOT_RNSt16remove_referenceIS0_E4typeE>
    378b:	48 8b 10             	mov    (%rax),%rdx
    378e:	48 8b 45 d8          	mov    -0x28(%rbp),%rax
    3792:	48 89 50 20          	mov    %rdx,0x20(%rax)
    3796:	90                   	nop
    3797:	48 8b 45 e8          	mov    -0x18(%rbp),%rax
    379b:	64 48 33 04 25 28 00 	xor    %fs:0x28,%rax
    37a2:	00 00 
    37a4:	74 21                	je     37c7 <_ZNSt4pairIKNSt7__cxx1112basic_stringIcSt11char_traitsIcESaIcEEEmEC1IRA10_KcmLb1EEEOT_OT0_+0xa9>
    37a6:	eb 1a                	jmp    37c2 <_ZNSt4pairIKNSt7__cxx1112basic_stringIcSt11char_traitsIcESaIcEEEmEC1IRA10_KcmLb1EEEOT_OT0_+0xa4>
    37a8:	48 89 c3             	mov    %rax,%rbx
    37ab:	48 8d 45 e7          	lea    -0x19(%rbp),%rax
    37af:	48 89 c7             	mov    %rax,%rdi
    37b2:	e8 99 dd ff ff       	callq  1550 <_ZNSaIcED1Ev@plt>
    37b7:	48 89 d8             	mov    %rbx,%rax
    37ba:	48 89 c7             	mov    %rax,%rdi
    37bd:	e8 3e de ff ff       	callq  1600 <_Unwind_Resume@plt>
    37c2:	e8 99 dd ff ff       	callq  1560 <__stack_chk_fail@plt>
    37c7:	48 83 c4 38          	add    $0x38,%rsp
    37cb:	5b                   	pop    %rbx
    37cc:	5d                   	pop    %rbp
    37cd:	c3                   	retq   

00000000000037ce <_ZNSt4pairIKNSt7__cxx1112basic_stringIcSt11char_traitsIcESaIcEEEmEC1IRA6_KcmLb1EEEOT_OT0_>:
    37ce:	55                   	push   %rbp
    37cf:	48 89 e5             	mov    %rsp,%rbp
    37d2:	53                   	push   %rbx
    37d3:	48 83 ec 38          	sub    $0x38,%rsp
    37d7:	48 89 7d d8          	mov    %rdi,-0x28(%rbp)
    37db:	48 89 75 d0          	mov    %rsi,-0x30(%rbp)
    37df:	48 89 55 c8          	mov    %rdx,-0x38(%rbp)
    37e3:	64 48 8b 04 25 28 00 	mov    %fs:0x28,%rax
    37ea:	00 00 
    37ec:	48 89 45 e8          	mov    %rax,-0x18(%rbp)
    37f0:	31 c0                	xor    %eax,%eax
    37f2:	48 8b 5d d8          	mov    -0x28(%rbp),%rbx
    37f6:	48 8d 45 e7          	lea    -0x19(%rbp),%rax
    37fa:	48 89 c7             	mov    %rax,%rdi
    37fd:	e8 0e de ff ff       	callq  1610 <_ZNSaIcEC1Ev@plt>
    3802:	48 8b 45 d0          	mov    -0x30(%rbp),%rax
    3806:	48 89 c7             	mov    %rax,%rdi
    3809:	e8 77 fa ff ff       	callq  3285 <_ZSt7forwardIRA6_KcEOT_RNSt16remove_referenceIS3_E4typeE>
    380e:	48 89 c1             	mov    %rax,%rcx
    3811:	48 8d 45 e7          	lea    -0x19(%rbp),%rax
    3815:	48 89 c2             	mov    %rax,%rdx
    3818:	48 89 ce             	mov    %rcx,%rsi
    381b:	48 89 df             	mov    %rbx,%rdi
    381e:	e8 7d dd ff ff       	callq  15a0 <_ZNSt7__cxx1112basic_stringIcSt11char_traitsIcESaIcEEC1EPKcRKS3_@plt>
    3823:	48 8d 45 e7          	lea    -0x19(%rbp),%rax
    3827:	48 89 c7             	mov    %rax,%rdi
    382a:	e8 21 dd ff ff       	callq  1550 <_ZNSaIcED1Ev@plt>
    382f:	48 8b 45 c8          	mov    -0x38(%rbp),%rax
    3833:	48 89 c7             	mov    %rax,%rdi
    3836:	e8 4f 06 00 00       	callq  3e8a <_ZSt7forwardImEOT_RNSt16remove_referenceIS0_E4typeE>
    383b:	48 8b 10             	mov    (%rax),%rdx
    383e:	48 8b 45 d8          	mov    -0x28(%rbp),%rax
    3842:	48 89 50 20          	mov    %rdx,0x20(%rax)
    3846:	90                   	nop
    3847:	48 8b 45 e8          	mov    -0x18(%rbp),%rax
    384b:	64 48 33 04 25 28 00 	xor    %fs:0x28,%rax
    3852:	00 00 
    3854:	74 21                	je     3877 <_ZNSt4pairIKNSt7__cxx1112basic_stringIcSt11char_traitsIcESaIcEEEmEC1IRA6_KcmLb1EEEOT_OT0_+0xa9>
    3856:	eb 1a                	jmp    3872 <_ZNSt4pairIKNSt7__cxx1112basic_stringIcSt11char_traitsIcESaIcEEEmEC1IRA6_KcmLb1EEEOT_OT0_+0xa4>
    3858:	48 89 c3             	mov    %rax,%rbx
    385b:	48 8d 45 e7          	lea    -0x19(%rbp),%rax
    385f:	48 89 c7             	mov    %rax,%rdi
    3862:	e8 e9 dc ff ff       	callq  1550 <_ZNSaIcED1Ev@plt>
    3867:	48 89 d8             	mov    %rbx,%rax
    386a:	48 89 c7             	mov    %rax,%rdi
    386d:	e8 8e dd ff ff       	callq  1600 <_Unwind_Resume@plt>
    3872:	e8 e9 dc ff ff       	callq  1560 <__stack_chk_fail@plt>
    3877:	48 83 c4 38          	add    $0x38,%rsp
    387b:	5b                   	pop    %rbx
    387c:	5d                   	pop    %rbp
    387d:	c3                   	retq   

000000000000387e <_ZNSt4pairIKNSt7__cxx1112basic_stringIcSt11char_traitsIcESaIcEEEmEC1IRA15_KcmLb1EEEOT_OT0_>:
    387e:	55                   	push   %rbp
    387f:	48 89 e5             	mov    %rsp,%rbp
    3882:	53                   	push   %rbx
    3883:	48 83 ec 38          	sub    $0x38,%rsp
    3887:	48 89 7d d8          	mov    %rdi,-0x28(%rbp)
    388b:	48 89 75 d0          	mov    %rsi,-0x30(%rbp)
    388f:	48 89 55 c8          	mov    %rdx,-0x38(%rbp)
    3893:	64 48 8b 04 25 28 00 	mov    %fs:0x28,%rax
    389a:	00 00 
    389c:	48 89 45 e8          	mov    %rax,-0x18(%rbp)
    38a0:	31 c0                	xor    %eax,%eax
    38a2:	48 8b 5d d8          	mov    -0x28(%rbp),%rbx
    38a6:	48 8d 45 e7          	lea    -0x19(%rbp),%rax
    38aa:	48 89 c7             	mov    %rax,%rdi
    38ad:	e8 5e dd ff ff       	callq  1610 <_ZNSaIcEC1Ev@plt>
    38b2:	48 8b 45 d0          	mov    -0x30(%rbp),%rax
    38b6:	48 89 c7             	mov    %rax,%rdi
    38b9:	e8 07 fc ff ff       	callq  34c5 <_ZSt7forwardIRA15_KcEOT_RNSt16remove_referenceIS3_E4typeE>
    38be:	48 89 c1             	mov    %rax,%rcx
    38c1:	48 8d 45 e7          	lea    -0x19(%rbp),%rax
    38c5:	48 89 c2             	mov    %rax,%rdx
    38c8:	48 89 ce             	mov    %rcx,%rsi
    38cb:	48 89 df             	mov    %rbx,%rdi
    38ce:	e8 cd dc ff ff       	callq  15a0 <_ZNSt7__cxx1112basic_stringIcSt11char_traitsIcESaIcEEC1EPKcRKS3_@plt>
    38d3:	48 8d 45 e7          	lea    -0x19(%rbp),%rax
    38d7:	48 89 c7             	mov    %rax,%rdi
    38da:	e8 71 dc ff ff       	callq  1550 <_ZNSaIcED1Ev@plt>
    38df:	48 8b 45 c8          	mov    -0x38(%rbp),%rax
    38e3:	48 89 c7             	mov    %rax,%rdi
    38e6:	e8 9f 05 00 00       	callq  3e8a <_ZSt7forwardImEOT_RNSt16remove_referenceIS0_E4typeE>
    38eb:	48 8b 10             	mov    (%rax),%rdx
    38ee:	48 8b 45 d8          	mov    -0x28(%rbp),%rax
    38f2:	48 89 50 20          	mov    %rdx,0x20(%rax)
    38f6:	90                   	nop
    38f7:	48 8b 45 e8          	mov    -0x18(%rbp),%rax
    38fb:	64 48 33 04 25 28 00 	xor    %fs:0x28,%rax
    3902:	00 00 
    3904:	74 21                	je     3927 <_ZNSt4pairIKNSt7__cxx1112basic_stringIcSt11char_traitsIcESaIcEEEmEC1IRA15_KcmLb1EEEOT_OT0_+0xa9>
    3906:	eb 1a                	jmp    3922 <_ZNSt4pairIKNSt7__cxx1112basic_stringIcSt11char_traitsIcESaIcEEEmEC1IRA15_KcmLb1EEEOT_OT0_+0xa4>
    3908:	48 89 c3             	mov    %rax,%rbx
    390b:	48 8d 45 e7          	lea    -0x19(%rbp),%rax
    390f:	48 89 c7             	mov    %rax,%rdi
    3912:	e8 39 dc ff ff       	callq  1550 <_ZNSaIcED1Ev@plt>
    3917:	48 89 d8             	mov    %rbx,%rax
    391a:	48 89 c7             	mov    %rax,%rdi
    391d:	e8 de dc ff ff       	callq  1600 <_Unwind_Resume@plt>
    3922:	e8 39 dc ff ff       	callq  1560 <__stack_chk_fail@plt>
    3927:	48 83 c4 38          	add    $0x38,%rsp
    392b:	5b                   	pop    %rbx
    392c:	5d                   	pop    %rbp
    392d:	c3                   	retq   

000000000000392e <_ZNSt4pairIKNSt7__cxx1112basic_stringIcSt11char_traitsIcESaIcEEEmEC1IRA7_KcmLb1EEEOT_OT0_>:
    392e:	55                   	push   %rbp
    392f:	48 89 e5             	mov    %rsp,%rbp
    3932:	53                   	push   %rbx
    3933:	48 83 ec 38          	sub    $0x38,%rsp
    3937:	48 89 7d d8          	mov    %rdi,-0x28(%rbp)
    393b:	48 89 75 d0          	mov    %rsi,-0x30(%rbp)
    393f:	48 89 55 c8          	mov    %rdx,-0x38(%rbp)
    3943:	64 48 8b 04 25 28 00 	mov    %fs:0x28,%rax
    394a:	00 00 
    394c:	48 89 45 e8          	mov    %rax,-0x18(%rbp)
    3950:	31 c0                	xor    %eax,%eax
    3952:	48 8b 5d d8          	mov    -0x28(%rbp),%rbx
    3956:	48 8d 45 e7          	lea    -0x19(%rbp),%rax
    395a:	48 89 c7             	mov    %rax,%rdi
    395d:	e8 ae dc ff ff       	callq  1610 <_ZNSaIcEC1Ev@plt>
    3962:	48 8b 45 d0          	mov    -0x30(%rbp),%rax
    3966:	48 89 c7             	mov    %rax,%rdi
    3969:	e8 d7 f9 ff ff       	callq  3345 <_ZSt7forwardIRA7_KcEOT_RNSt16remove_referenceIS3_E4typeE>
    396e:	48 89 c1             	mov    %rax,%rcx
    3971:	48 8d 45 e7          	lea    -0x19(%rbp),%rax
    3975:	48 89 c2             	mov    %rax,%rdx
    3978:	48 89 ce             	mov    %rcx,%rsi
    397b:	48 89 df             	mov    %rbx,%rdi
    397e:	e8 1d dc ff ff       	callq  15a0 <_ZNSt7__cxx1112basic_stringIcSt11char_traitsIcESaIcEEC1EPKcRKS3_@plt>
    3983:	48 8d 45 e7          	lea    -0x19(%rbp),%rax
    3987:	48 89 c7             	mov    %rax,%rdi
    398a:	e8 c1 db ff ff       	callq  1550 <_ZNSaIcED1Ev@plt>
    398f:	48 8b 45 c8          	mov    -0x38(%rbp),%rax
    3993:	48 89 c7             	mov    %rax,%rdi
    3996:	e8 ef 04 00 00       	callq  3e8a <_ZSt7forwardImEOT_RNSt16remove_referenceIS0_E4typeE>
    399b:	48 8b 10             	mov    (%rax),%rdx
    399e:	48 8b 45 d8          	mov    -0x28(%rbp),%rax
    39a2:	48 89 50 20          	mov    %rdx,0x20(%rax)
    39a6:	90                   	nop
    39a7:	48 8b 45 e8          	mov    -0x18(%rbp),%rax
    39ab:	64 48 33 04 25 28 00 	xor    %fs:0x28,%rax
    39b2:	00 00 
    39b4:	74 21                	je     39d7 <_ZNSt4pairIKNSt7__cxx1112basic_stringIcSt11char_traitsIcESaIcEEEmEC1IRA7_KcmLb1EEEOT_OT0_+0xa9>
    39b6:	eb 1a                	jmp    39d2 <_ZNSt4pairIKNSt7__cxx1112basic_stringIcSt11char_traitsIcESaIcEEEmEC1IRA7_KcmLb1EEEOT_OT0_+0xa4>
    39b8:	48 89 c3             	mov    %rax,%rbx
    39bb:	48 8d 45 e7          	lea    -0x19(%rbp),%rax
    39bf:	48 89 c7             	mov    %rax,%rdi
    39c2:	e8 89 db ff ff       	callq  1550 <_ZNSaIcED1Ev@plt>
    39c7:	48 89 d8             	mov    %rbx,%rax
    39ca:	48 89 c7             	mov    %rax,%rdi
    39cd:	e8 2e dc ff ff       	callq  1600 <_Unwind_Resume@plt>
    39d2:	e8 89 db ff ff       	callq  1560 <__stack_chk_fail@plt>
    39d7:	48 83 c4 38          	add    $0x38,%rsp
    39db:	5b                   	pop    %rbx
    39dc:	5d                   	pop    %rbp
    39dd:	c3                   	retq   

00000000000039de <_ZSt7forwardIRA12_KcEOT_RNSt16remove_referenceIS3_E4typeE>:
    39de:	55                   	push   %rbp
    39df:	48 89 e5             	mov    %rsp,%rbp
    39e2:	48 89 7d f8          	mov    %rdi,-0x8(%rbp)
    39e6:	48 8b 45 f8          	mov    -0x8(%rbp),%rax
    39ea:	5d                   	pop    %rbp
    39eb:	c3                   	retq   

00000000000039ec <_ZNSt4pairIKNSt7__cxx1112basic_stringIcSt11char_traitsIcESaIcEEEmEC1IRA12_KcmLb1EEEOT_OT0_>:
    39ec:	55                   	push   %rbp
    39ed:	48 89 e5             	mov    %rsp,%rbp
    39f0:	53                   	push   %rbx
    39f1:	48 83 ec 38          	sub    $0x38,%rsp
    39f5:	48 89 7d d8          	mov    %rdi,-0x28(%rbp)
    39f9:	48 89 75 d0          	mov    %rsi,-0x30(%rbp)
    39fd:	48 89 55 c8          	mov    %rdx,-0x38(%rbp)
    3a01:	64 48 8b 04 25 28 00 	mov    %fs:0x28,%rax
    3a08:	00 00 
    3a0a:	48 89 45 e8          	mov    %rax,-0x18(%rbp)
    3a0e:	31 c0                	xor    %eax,%eax
    3a10:	48 8b 5d d8          	mov    -0x28(%rbp),%rbx
    3a14:	48 8d 45 e7          	lea    -0x19(%rbp),%rax
    3a18:	48 89 c7             	mov    %rax,%rdi
    3a1b:	e8 f0 db ff ff       	callq  1610 <_ZNSaIcEC1Ev@plt>
    3a20:	48 8b 45 d0          	mov    -0x30(%rbp),%rax
    3a24:	48 89 c7             	mov    %rax,%rdi
    3a27:	e8 b2 ff ff ff       	callq  39de <_ZSt7forwardIRA12_KcEOT_RNSt16remove_referenceIS3_E4typeE>
    3a2c:	48 89 c1             	mov    %rax,%rcx
    3a2f:	48 8d 45 e7          	lea    -0x19(%rbp),%rax
    3a33:	48 89 c2             	mov    %rax,%rdx
    3a36:	48 89 ce             	mov    %rcx,%rsi
    3a39:	48 89 df             	mov    %rbx,%rdi
    3a3c:	e8 5f db ff ff       	callq  15a0 <_ZNSt7__cxx1112basic_stringIcSt11char_traitsIcESaIcEEC1EPKcRKS3_@plt>
    3a41:	48 8d 45 e7          	lea    -0x19(%rbp),%rax
    3a45:	48 89 c7             	mov    %rax,%rdi
    3a48:	e8 03 db ff ff       	callq  1550 <_ZNSaIcED1Ev@plt>
    3a4d:	48 8b 45 c8          	mov    -0x38(%rbp),%rax
    3a51:	48 89 c7             	mov    %rax,%rdi
    3a54:	e8 31 04 00 00       	callq  3e8a <_ZSt7forwardImEOT_RNSt16remove_referenceIS0_E4typeE>
    3a59:	48 8b 10             	mov    (%rax),%rdx
    3a5c:	48 8b 45 d8          	mov    -0x28(%rbp),%rax
    3a60:	48 89 50 20          	mov    %rdx,0x20(%rax)
    3a64:	90                   	nop
    3a65:	48 8b 45 e8          	mov    -0x18(%rbp),%rax
    3a69:	64 48 33 04 25 28 00 	xor    %fs:0x28,%rax
    3a70:	00 00 
    3a72:	74 21                	je     3a95 <_ZNSt4pairIKNSt7__cxx1112basic_stringIcSt11char_traitsIcESaIcEEEmEC1IRA12_KcmLb1EEEOT_OT0_+0xa9>
    3a74:	eb 1a                	jmp    3a90 <_ZNSt4pairIKNSt7__cxx1112basic_stringIcSt11char_traitsIcESaIcEEEmEC1IRA12_KcmLb1EEEOT_OT0_+0xa4>
    3a76:	48 89 c3             	mov    %rax,%rbx
    3a79:	48 8d 45 e7          	lea    -0x19(%rbp),%rax
    3a7d:	48 89 c7             	mov    %rax,%rdi
    3a80:	e8 cb da ff ff       	callq  1550 <_ZNSaIcED1Ev@plt>
    3a85:	48 89 d8             	mov    %rbx,%rax
    3a88:	48 89 c7             	mov    %rax,%rdi
    3a8b:	e8 70 db ff ff       	callq  1600 <_Unwind_Resume@plt>
    3a90:	e8 cb da ff ff       	callq  1560 <__stack_chk_fail@plt>
    3a95:	48 83 c4 38          	add    $0x38,%rsp
    3a99:	5b                   	pop    %rbx
    3a9a:	5d                   	pop    %rbp
    3a9b:	c3                   	retq   

0000000000003a9c <_ZNSt4pairIKNSt7__cxx1112basic_stringIcSt11char_traitsIcESaIcEEEmEC1IRA13_KcmLb1EEEOT_OT0_>:
    3a9c:	55                   	push   %rbp
    3a9d:	48 89 e5             	mov    %rsp,%rbp
    3aa0:	53                   	push   %rbx
    3aa1:	48 83 ec 38          	sub    $0x38,%rsp
    3aa5:	48 89 7d d8          	mov    %rdi,-0x28(%rbp)
    3aa9:	48 89 75 d0          	mov    %rsi,-0x30(%rbp)
    3aad:	48 89 55 c8          	mov    %rdx,-0x38(%rbp)
    3ab1:	64 48 8b 04 25 28 00 	mov    %fs:0x28,%rax
    3ab8:	00 00 
    3aba:	48 89 45 e8          	mov    %rax,-0x18(%rbp)
    3abe:	31 c0                	xor    %eax,%eax
    3ac0:	48 8b 5d d8          	mov    -0x28(%rbp),%rbx
    3ac4:	48 8d 45 e7          	lea    -0x19(%rbp),%rax
    3ac8:	48 89 c7             	mov    %rax,%rdi
    3acb:	e8 40 db ff ff       	callq  1610 <_ZNSaIcEC1Ev@plt>
    3ad0:	48 8b 45 d0          	mov    -0x30(%rbp),%rax
    3ad4:	48 89 c7             	mov    %rax,%rdi
    3ad7:	e8 29 f9 ff ff       	callq  3405 <_ZSt7forwardIRA13_KcEOT_RNSt16remove_referenceIS3_E4typeE>
    3adc:	48 89 c1             	mov    %rax,%rcx
    3adf:	48 8d 45 e7          	lea    -0x19(%rbp),%rax
    3ae3:	48 89 c2             	mov    %rax,%rdx
    3ae6:	48 89 ce             	mov    %rcx,%rsi
    3ae9:	48 89 df             	mov    %rbx,%rdi
    3aec:	e8 af da ff ff       	callq  15a0 <_ZNSt7__cxx1112basic_stringIcSt11char_traitsIcESaIcEEC1EPKcRKS3_@plt>
    3af1:	48 8d 45 e7          	lea    -0x19(%rbp),%rax
    3af5:	48 89 c7             	mov    %rax,%rdi
    3af8:	e8 53 da ff ff       	callq  1550 <_ZNSaIcED1Ev@plt>
    3afd:	48 8b 45 c8          	mov    -0x38(%rbp),%rax
    3b01:	48 89 c7             	mov    %rax,%rdi
    3b04:	e8 81 03 00 00       	callq  3e8a <_ZSt7forwardImEOT_RNSt16remove_referenceIS0_E4typeE>
    3b09:	48 8b 10             	mov    (%rax),%rdx
    3b0c:	48 8b 45 d8          	mov    -0x28(%rbp),%rax
    3b10:	48 89 50 20          	mov    %rdx,0x20(%rax)
    3b14:	90                   	nop
    3b15:	48 8b 45 e8          	mov    -0x18(%rbp),%rax
    3b19:	64 48 33 04 25 28 00 	xor    %fs:0x28,%rax
    3b20:	00 00 
    3b22:	74 21                	je     3b45 <_ZNSt4pairIKNSt7__cxx1112basic_stringIcSt11char_traitsIcESaIcEEEmEC1IRA13_KcmLb1EEEOT_OT0_+0xa9>
    3b24:	eb 1a                	jmp    3b40 <_ZNSt4pairIKNSt7__cxx1112basic_stringIcSt11char_traitsIcESaIcEEEmEC1IRA13_KcmLb1EEEOT_OT0_+0xa4>
    3b26:	48 89 c3             	mov    %rax,%rbx
    3b29:	48 8d 45 e7          	lea    -0x19(%rbp),%rax
    3b2d:	48 89 c7             	mov    %rax,%rdi
    3b30:	e8 1b da ff ff       	callq  1550 <_ZNSaIcED1Ev@plt>
    3b35:	48 89 d8             	mov    %rbx,%rax
    3b38:	48 89 c7             	mov    %rax,%rdi
    3b3b:	e8 c0 da ff ff       	callq  1600 <_Unwind_Resume@plt>
    3b40:	e8 1b da ff ff       	callq  1560 <__stack_chk_fail@plt>
    3b45:	48 83 c4 38          	add    $0x38,%rsp
    3b49:	5b                   	pop    %rbx
    3b4a:	5d                   	pop    %rbp
    3b4b:	c3                   	retq   

0000000000003b4c <_ZSt7forwardIRA14_KcEOT_RNSt16remove_referenceIS3_E4typeE>:
    3b4c:	55                   	push   %rbp
    3b4d:	48 89 e5             	mov    %rsp,%rbp
    3b50:	48 89 7d f8          	mov    %rdi,-0x8(%rbp)
    3b54:	48 8b 45 f8          	mov    -0x8(%rbp),%rax
    3b58:	5d                   	pop    %rbp
    3b59:	c3                   	retq   

0000000000003b5a <_ZNSt4pairIKNSt7__cxx1112basic_stringIcSt11char_traitsIcESaIcEEEmEC1IRA14_KcmLb1EEEOT_OT0_>:
    3b5a:	55                   	push   %rbp
    3b5b:	48 89 e5             	mov    %rsp,%rbp
    3b5e:	53                   	push   %rbx
    3b5f:	48 83 ec 38          	sub    $0x38,%rsp
    3b63:	48 89 7d d8          	mov    %rdi,-0x28(%rbp)
    3b67:	48 89 75 d0          	mov    %rsi,-0x30(%rbp)
    3b6b:	48 89 55 c8          	mov    %rdx,-0x38(%rbp)
    3b6f:	64 48 8b 04 25 28 00 	mov    %fs:0x28,%rax
    3b76:	00 00 
    3b78:	48 89 45 e8          	mov    %rax,-0x18(%rbp)
    3b7c:	31 c0                	xor    %eax,%eax
    3b7e:	48 8b 5d d8          	mov    -0x28(%rbp),%rbx
    3b82:	48 8d 45 e7          	lea    -0x19(%rbp),%rax
    3b86:	48 89 c7             	mov    %rax,%rdi
    3b89:	e8 82 da ff ff       	callq  1610 <_ZNSaIcEC1Ev@plt>
    3b8e:	48 8b 45 d0          	mov    -0x30(%rbp),%rax
    3b92:	48 89 c7             	mov    %rax,%rdi
    3b95:	e8 b2 ff ff ff       	callq  3b4c <_ZSt7forwardIRA14_KcEOT_RNSt16remove_referenceIS3_E4typeE>
    3b9a:	48 89 c1             	mov    %rax,%rcx
    3b9d:	48 8d 45 e7          	lea    -0x19(%rbp),%rax
    3ba1:	48 89 c2             	mov    %rax,%rdx
    3ba4:	48 89 ce             	mov    %rcx,%rsi
    3ba7:	48 89 df             	mov    %rbx,%rdi
    3baa:	e8 f1 d9 ff ff       	callq  15a0 <_ZNSt7__cxx1112basic_stringIcSt11char_traitsIcESaIcEEC1EPKcRKS3_@plt>
    3baf:	48 8d 45 e7          	lea    -0x19(%rbp),%rax
    3bb3:	48 89 c7             	mov    %rax,%rdi
    3bb6:	e8 95 d9 ff ff       	callq  1550 <_ZNSaIcED1Ev@plt>
    3bbb:	48 8b 45 c8          	mov    -0x38(%rbp),%rax
    3bbf:	48 89 c7             	mov    %rax,%rdi
    3bc2:	e8 c3 02 00 00       	callq  3e8a <_ZSt7forwardImEOT_RNSt16remove_referenceIS0_E4typeE>
    3bc7:	48 8b 10             	mov    (%rax),%rdx
    3bca:	48 8b 45 d8          	mov    -0x28(%rbp),%rax
    3bce:	48 89 50 20          	mov    %rdx,0x20(%rax)
    3bd2:	90                   	nop
    3bd3:	48 8b 45 e8          	mov    -0x18(%rbp),%rax
    3bd7:	64 48 33 04 25 28 00 	xor    %fs:0x28,%rax
    3bde:	00 00 
    3be0:	74 21                	je     3c03 <_ZNSt4pairIKNSt7__cxx1112basic_stringIcSt11char_traitsIcESaIcEEEmEC1IRA14_KcmLb1EEEOT_OT0_+0xa9>
    3be2:	eb 1a                	jmp    3bfe <_ZNSt4pairIKNSt7__cxx1112basic_stringIcSt11char_traitsIcESaIcEEEmEC1IRA14_KcmLb1EEEOT_OT0_+0xa4>
    3be4:	48 89 c3             	mov    %rax,%rbx
    3be7:	48 8d 45 e7          	lea    -0x19(%rbp),%rax
    3beb:	48 89 c7             	mov    %rax,%rdi
    3bee:	e8 5d d9 ff ff       	callq  1550 <_ZNSaIcED1Ev@plt>
    3bf3:	48 89 d8             	mov    %rbx,%rax
    3bf6:	48 89 c7             	mov    %rax,%rdi
    3bf9:	e8 02 da ff ff       	callq  1600 <_Unwind_Resume@plt>
    3bfe:	e8 5d d9 ff ff       	callq  1560 <__stack_chk_fail@plt>
    3c03:	48 83 c4 38          	add    $0x38,%rsp
    3c07:	5b                   	pop    %rbx
    3c08:	5d                   	pop    %rbp
    3c09:	c3                   	retq   

0000000000003c0a <_ZSt7forwardIRA19_KcEOT_RNSt16remove_referenceIS3_E4typeE>:
    3c0a:	55                   	push   %rbp
    3c0b:	48 89 e5             	mov    %rsp,%rbp
    3c0e:	48 89 7d f8          	mov    %rdi,-0x8(%rbp)
    3c12:	48 8b 45 f8          	mov    -0x8(%rbp),%rax
    3c16:	5d                   	pop    %rbp
    3c17:	c3                   	retq   

0000000000003c18 <_ZNSt4pairIKNSt7__cxx1112basic_stringIcSt11char_traitsIcESaIcEEEmEC1IRA19_KcmLb1EEEOT_OT0_>:
    3c18:	55                   	push   %rbp
    3c19:	48 89 e5             	mov    %rsp,%rbp
    3c1c:	53                   	push   %rbx
    3c1d:	48 83 ec 38          	sub    $0x38,%rsp
    3c21:	48 89 7d d8          	mov    %rdi,-0x28(%rbp)
    3c25:	48 89 75 d0          	mov    %rsi,-0x30(%rbp)
    3c29:	48 89 55 c8          	mov    %rdx,-0x38(%rbp)
    3c2d:	64 48 8b 04 25 28 00 	mov    %fs:0x28,%rax
    3c34:	00 00 
    3c36:	48 89 45 e8          	mov    %rax,-0x18(%rbp)
    3c3a:	31 c0                	xor    %eax,%eax
    3c3c:	48 8b 5d d8          	mov    -0x28(%rbp),%rbx
    3c40:	48 8d 45 e7          	lea    -0x19(%rbp),%rax
    3c44:	48 89 c7             	mov    %rax,%rdi
    3c47:	e8 c4 d9 ff ff       	callq  1610 <_ZNSaIcEC1Ev@plt>
    3c4c:	48 8b 45 d0          	mov    -0x30(%rbp),%rax
    3c50:	48 89 c7             	mov    %rax,%rdi
    3c53:	e8 b2 ff ff ff       	callq  3c0a <_ZSt7forwardIRA19_KcEOT_RNSt16remove_referenceIS3_E4typeE>
    3c58:	48 89 c1             	mov    %rax,%rcx
    3c5b:	48 8d 45 e7          	lea    -0x19(%rbp),%rax
    3c5f:	48 89 c2             	mov    %rax,%rdx
    3c62:	48 89 ce             	mov    %rcx,%rsi
    3c65:	48 89 df             	mov    %rbx,%rdi
    3c68:	e8 33 d9 ff ff       	callq  15a0 <_ZNSt7__cxx1112basic_stringIcSt11char_traitsIcESaIcEEC1EPKcRKS3_@plt>
    3c6d:	48 8d 45 e7          	lea    -0x19(%rbp),%rax
    3c71:	48 89 c7             	mov    %rax,%rdi
    3c74:	e8 d7 d8 ff ff       	callq  1550 <_ZNSaIcED1Ev@plt>
    3c79:	48 8b 45 c8          	mov    -0x38(%rbp),%rax
    3c7d:	48 89 c7             	mov    %rax,%rdi
    3c80:	e8 05 02 00 00       	callq  3e8a <_ZSt7forwardImEOT_RNSt16remove_referenceIS0_E4typeE>
    3c85:	48 8b 10             	mov    (%rax),%rdx
    3c88:	48 8b 45 d8          	mov    -0x28(%rbp),%rax
    3c8c:	48 89 50 20          	mov    %rdx,0x20(%rax)
    3c90:	90                   	nop
    3c91:	48 8b 45 e8          	mov    -0x18(%rbp),%rax
    3c95:	64 48 33 04 25 28 00 	xor    %fs:0x28,%rax
    3c9c:	00 00 
    3c9e:	74 21                	je     3cc1 <_ZNSt4pairIKNSt7__cxx1112basic_stringIcSt11char_traitsIcESaIcEEEmEC1IRA19_KcmLb1EEEOT_OT0_+0xa9>
    3ca0:	eb 1a                	jmp    3cbc <_ZNSt4pairIKNSt7__cxx1112basic_stringIcSt11char_traitsIcESaIcEEEmEC1IRA19_KcmLb1EEEOT_OT0_+0xa4>
    3ca2:	48 89 c3             	mov    %rax,%rbx
    3ca5:	48 8d 45 e7          	lea    -0x19(%rbp),%rax
    3ca9:	48 89 c7             	mov    %rax,%rdi
    3cac:	e8 9f d8 ff ff       	callq  1550 <_ZNSaIcED1Ev@plt>
    3cb1:	48 89 d8             	mov    %rbx,%rax
    3cb4:	48 89 c7             	mov    %rax,%rdi
    3cb7:	e8 44 d9 ff ff       	callq  1600 <_Unwind_Resume@plt>
    3cbc:	e8 9f d8 ff ff       	callq  1560 <__stack_chk_fail@plt>
    3cc1:	48 83 c4 38          	add    $0x38,%rsp
    3cc5:	5b                   	pop    %rbx
    3cc6:	5d                   	pop    %rbp
    3cc7:	c3                   	retq   

0000000000003cc8 <_ZSt7forwardIRA8_KcEOT_RNSt16remove_referenceIS3_E4typeE>:
    3cc8:	55                   	push   %rbp
    3cc9:	48 89 e5             	mov    %rsp,%rbp
    3ccc:	48 89 7d f8          	mov    %rdi,-0x8(%rbp)
    3cd0:	48 8b 45 f8          	mov    -0x8(%rbp),%rax
    3cd4:	5d                   	pop    %rbp
    3cd5:	c3                   	retq   

0000000000003cd6 <_ZNSt4pairIKNSt7__cxx1112basic_stringIcSt11char_traitsIcESaIcEEEmEC1IRA8_KcmLb1EEEOT_OT0_>:
    3cd6:	55                   	push   %rbp
    3cd7:	48 89 e5             	mov    %rsp,%rbp
    3cda:	53                   	push   %rbx
    3cdb:	48 83 ec 38          	sub    $0x38,%rsp
    3cdf:	48 89 7d d8          	mov    %rdi,-0x28(%rbp)
    3ce3:	48 89 75 d0          	mov    %rsi,-0x30(%rbp)
    3ce7:	48 89 55 c8          	mov    %rdx,-0x38(%rbp)
    3ceb:	64 48 8b 04 25 28 00 	mov    %fs:0x28,%rax
    3cf2:	00 00 
    3cf4:	48 89 45 e8          	mov    %rax,-0x18(%rbp)
    3cf8:	31 c0                	xor    %eax,%eax
    3cfa:	48 8b 5d d8          	mov    -0x28(%rbp),%rbx
    3cfe:	48 8d 45 e7          	lea    -0x19(%rbp),%rax
    3d02:	48 89 c7             	mov    %rax,%rdi
    3d05:	e8 06 d9 ff ff       	callq  1610 <_ZNSaIcEC1Ev@plt>
    3d0a:	48 8b 45 d0          	mov    -0x30(%rbp),%rax
    3d0e:	48 89 c7             	mov    %rax,%rdi
    3d11:	e8 b2 ff ff ff       	callq  3cc8 <_ZSt7forwardIRA8_KcEOT_RNSt16remove_referenceIS3_E4typeE>
    3d16:	48 89 c1             	mov    %rax,%rcx
    3d19:	48 8d 45 e7          	lea    -0x19(%rbp),%rax
    3d1d:	48 89 c2             	mov    %rax,%rdx
    3d20:	48 89 ce             	mov    %rcx,%rsi
    3d23:	48 89 df             	mov    %rbx,%rdi
    3d26:	e8 75 d8 ff ff       	callq  15a0 <_ZNSt7__cxx1112basic_stringIcSt11char_traitsIcESaIcEEC1EPKcRKS3_@plt>
    3d2b:	48 8d 45 e7          	lea    -0x19(%rbp),%rax
    3d2f:	48 89 c7             	mov    %rax,%rdi
    3d32:	e8 19 d8 ff ff       	callq  1550 <_ZNSaIcED1Ev@plt>
    3d37:	48 8b 45 c8          	mov    -0x38(%rbp),%rax
    3d3b:	48 89 c7             	mov    %rax,%rdi
    3d3e:	e8 47 01 00 00       	callq  3e8a <_ZSt7forwardImEOT_RNSt16remove_referenceIS0_E4typeE>
    3d43:	48 8b 10             	mov    (%rax),%rdx
    3d46:	48 8b 45 d8          	mov    -0x28(%rbp),%rax
    3d4a:	48 89 50 20          	mov    %rdx,0x20(%rax)
    3d4e:	90                   	nop
    3d4f:	48 8b 45 e8          	mov    -0x18(%rbp),%rax
    3d53:	64 48 33 04 25 28 00 	xor    %fs:0x28,%rax
    3d5a:	00 00 
    3d5c:	74 21                	je     3d7f <_ZNSt4pairIKNSt7__cxx1112basic_stringIcSt11char_traitsIcESaIcEEEmEC1IRA8_KcmLb1EEEOT_OT0_+0xa9>
    3d5e:	eb 1a                	jmp    3d7a <_ZNSt4pairIKNSt7__cxx1112basic_stringIcSt11char_traitsIcESaIcEEEmEC1IRA8_KcmLb1EEEOT_OT0_+0xa4>
    3d60:	48 89 c3             	mov    %rax,%rbx
    3d63:	48 8d 45 e7          	lea    -0x19(%rbp),%rax
    3d67:	48 89 c7             	mov    %rax,%rdi
    3d6a:	e8 e1 d7 ff ff       	callq  1550 <_ZNSaIcED1Ev@plt>
    3d6f:	48 89 d8             	mov    %rbx,%rax
    3d72:	48 89 c7             	mov    %rax,%rdi
    3d75:	e8 86 d8 ff ff       	callq  1600 <_Unwind_Resume@plt>
    3d7a:	e8 e1 d7 ff ff       	callq  1560 <__stack_chk_fail@plt>
    3d7f:	48 83 c4 38          	add    $0x38,%rsp
    3d83:	5b                   	pop    %rbx
    3d84:	5d                   	pop    %rbp
    3d85:	c3                   	retq   

0000000000003d86 <_ZSt7forwardIRA9_KcEOT_RNSt16remove_referenceIS3_E4typeE>:
    3d86:	55                   	push   %rbp
    3d87:	48 89 e5             	mov    %rsp,%rbp
    3d8a:	48 89 7d f8          	mov    %rdi,-0x8(%rbp)
    3d8e:	48 8b 45 f8          	mov    -0x8(%rbp),%rax
    3d92:	5d                   	pop    %rbp
    3d93:	c3                   	retq   

0000000000003d94 <_ZNSt4pairIKNSt7__cxx1112basic_stringIcSt11char_traitsIcESaIcEEEmEC1IRA9_KcmLb1EEEOT_OT0_>:
    3d94:	55                   	push   %rbp
    3d95:	48 89 e5             	mov    %rsp,%rbp
    3d98:	53                   	push   %rbx
    3d99:	48 83 ec 38          	sub    $0x38,%rsp
    3d9d:	48 89 7d d8          	mov    %rdi,-0x28(%rbp)
    3da1:	48 89 75 d0          	mov    %rsi,-0x30(%rbp)
    3da5:	48 89 55 c8          	mov    %rdx,-0x38(%rbp)
    3da9:	64 48 8b 04 25 28 00 	mov    %fs:0x28,%rax
    3db0:	00 00 
    3db2:	48 89 45 e8          	mov    %rax,-0x18(%rbp)
    3db6:	31 c0                	xor    %eax,%eax
    3db8:	48 8b 5d d8          	mov    -0x28(%rbp),%rbx
    3dbc:	48 8d 45 e7          	lea    -0x19(%rbp),%rax
    3dc0:	48 89 c7             	mov    %rax,%rdi
    3dc3:	e8 48 d8 ff ff       	callq  1610 <_ZNSaIcEC1Ev@plt>
    3dc8:	48 8b 45 d0          	mov    -0x30(%rbp),%rax
    3dcc:	48 89 c7             	mov    %rax,%rdi
    3dcf:	e8 b2 ff ff ff       	callq  3d86 <_ZSt7forwardIRA9_KcEOT_RNSt16remove_referenceIS3_E4typeE>
    3dd4:	48 89 c1             	mov    %rax,%rcx
    3dd7:	48 8d 45 e7          	lea    -0x19(%rbp),%rax
    3ddb:	48 89 c2             	mov    %rax,%rdx
    3dde:	48 89 ce             	mov    %rcx,%rsi
    3de1:	48 89 df             	mov    %rbx,%rdi
    3de4:	e8 b7 d7 ff ff       	callq  15a0 <_ZNSt7__cxx1112basic_stringIcSt11char_traitsIcESaIcEEC1EPKcRKS3_@plt>
    3de9:	48 8d 45 e7          	lea    -0x19(%rbp),%rax
    3ded:	48 89 c7             	mov    %rax,%rdi
    3df0:	e8 5b d7 ff ff       	callq  1550 <_ZNSaIcED1Ev@plt>
    3df5:	48 8b 45 c8          	mov    -0x38(%rbp),%rax
    3df9:	48 89 c7             	mov    %rax,%rdi
    3dfc:	e8 89 00 00 00       	callq  3e8a <_ZSt7forwardImEOT_RNSt16remove_referenceIS0_E4typeE>
    3e01:	48 8b 10             	mov    (%rax),%rdx
    3e04:	48 8b 45 d8          	mov    -0x28(%rbp),%rax
    3e08:	48 89 50 20          	mov    %rdx,0x20(%rax)
    3e0c:	90                   	nop
    3e0d:	48 8b 45 e8          	mov    -0x18(%rbp),%rax
    3e11:	64 48 33 04 25 28 00 	xor    %fs:0x28,%rax
    3e18:	00 00 
    3e1a:	74 21                	je     3e3d <_ZNSt4pairIKNSt7__cxx1112basic_stringIcSt11char_traitsIcESaIcEEEmEC1IRA9_KcmLb1EEEOT_OT0_+0xa9>
    3e1c:	eb 1a                	jmp    3e38 <_ZNSt4pairIKNSt7__cxx1112basic_stringIcSt11char_traitsIcESaIcEEEmEC1IRA9_KcmLb1EEEOT_OT0_+0xa4>
    3e1e:	48 89 c3             	mov    %rax,%rbx
    3e21:	48 8d 45 e7          	lea    -0x19(%rbp),%rax
    3e25:	48 89 c7             	mov    %rax,%rdi
    3e28:	e8 23 d7 ff ff       	callq  1550 <_ZNSaIcED1Ev@plt>
    3e2d:	48 89 d8             	mov    %rbx,%rax
    3e30:	48 89 c7             	mov    %rax,%rdi
    3e33:	e8 c8 d7 ff ff       	callq  1600 <_Unwind_Resume@plt>
    3e38:	e8 23 d7 ff ff       	callq  1560 <__stack_chk_fail@plt>
    3e3d:	48 83 c4 38          	add    $0x38,%rsp
    3e41:	5b                   	pop    %rbx
    3e42:	5d                   	pop    %rbp
    3e43:	c3                   	retq   

0000000000003e44 <_ZNSt13unordered_mapINSt7__cxx1112basic_stringIcSt11char_traitsIcESaIcEEEmSt4hashIS5_ESt8equal_toIS5_ESaISt4pairIKS5_mEEED1Ev>:
    3e44:	55                   	push   %rbp
    3e45:	48 89 e5             	mov    %rsp,%rbp
    3e48:	48 83 ec 10          	sub    $0x10,%rsp
    3e4c:	48 89 7d f8          	mov    %rdi,-0x8(%rbp)
    3e50:	48 8b 45 f8          	mov    -0x8(%rbp),%rax
    3e54:	48 89 c7             	mov    %rax,%rdi
    3e57:	e8 fa 07 00 00       	callq  4656 <_ZNSt10_HashtableINSt7__cxx1112basic_stringIcSt11char_traitsIcESaIcEEESt4pairIKS5_mESaIS8_ENSt8__detail10_Select1stESt8equal_toIS5_ESt4hashIS5_ENSA_18_Mod_range_hashingENSA_20_Default_ranged_hashENSA_20_Prime_rehash_policyENSA_17_Hashtable_traitsILb1ELb0ELb1EEEED1Ev>
    3e5c:	90                   	nop
    3e5d:	c9                   	leaveq 
    3e5e:	c3                   	retq   

0000000000003e5f <_ZSt3maxImERKT_S2_S2_>:
    3e5f:	55                   	push   %rbp
    3e60:	48 89 e5             	mov    %rsp,%rbp
    3e63:	48 89 7d f8          	mov    %rdi,-0x8(%rbp)
    3e67:	48 89 75 f0          	mov    %rsi,-0x10(%rbp)
    3e6b:	48 8b 45 f8          	mov    -0x8(%rbp),%rax
    3e6f:	48 8b 10             	mov    (%rax),%rdx
    3e72:	48 8b 45 f0          	mov    -0x10(%rbp),%rax
    3e76:	48 8b 00             	mov    (%rax),%rax
    3e79:	48 39 c2             	cmp    %rax,%rdx
    3e7c:	73 06                	jae    3e84 <_ZSt3maxImERKT_S2_S2_+0x25>
    3e7e:	48 8b 45 f0          	mov    -0x10(%rbp),%rax
    3e82:	eb 04                	jmp    3e88 <_ZSt3maxImERKT_S2_S2_+0x29>
    3e84:	48 8b 45 f8          	mov    -0x8(%rbp),%rax
    3e88:	5d                   	pop    %rbp
    3e89:	c3                   	retq   

0000000000003e8a <_ZSt7forwardImEOT_RNSt16remove_referenceIS0_E4typeE>:
    3e8a:	55                   	push   %rbp
    3e8b:	48 89 e5             	mov    %rsp,%rbp
    3e8e:	48 89 7d f8          	mov    %rdi,-0x8(%rbp)
    3e92:	48 8b 45 f8          	mov    -0x8(%rbp),%rax
    3e96:	5d                   	pop    %rbp
    3e97:	c3                   	retq   

0000000000003e98 <_ZNSt4pairIKPKcNSt7__cxx1112basic_stringIcSt11char_traitsIcESaIcEEEEC1IS1_RA11_S0_Lb1EEEOT_OT0_>:
    3e98:	55                   	push   %rbp
    3e99:	48 89 e5             	mov    %rsp,%rbp
    3e9c:	53                   	push   %rbx
    3e9d:	48 83 ec 38          	sub    $0x38,%rsp
    3ea1:	48 89 7d d8          	mov    %rdi,-0x28(%rbp)
    3ea5:	48 89 75 d0          	mov    %rsi,-0x30(%rbp)
    3ea9:	48 89 55 c8          	mov    %rdx,-0x38(%rbp)
    3ead:	64 48 8b 04 25 28 00 	mov    %fs:0x28,%rax
    3eb4:	00 00 
    3eb6:	48 89 45 e8          	mov    %rax,-0x18(%rbp)
    3eba:	31 c0                	xor    %eax,%eax
    3ebc:	48 8b 45 d0          	mov    -0x30(%rbp),%rax
    3ec0:	48 89 c7             	mov    %rax,%rdi
    3ec3:	e8 f3 08 00 00       	callq  47bb <_ZSt7forwardIPKcEOT_RNSt16remove_referenceIS2_E4typeE>
    3ec8:	48 8b 10             	mov    (%rax),%rdx
    3ecb:	48 8b 45 d8          	mov    -0x28(%rbp),%rax
    3ecf:	48 89 10             	mov    %rdx,(%rax)
    3ed2:	48 8b 45 d8          	mov    -0x28(%rbp),%rax
    3ed6:	48 8d 58 08          	lea    0x8(%rax),%rbx
    3eda:	48 8d 45 e7          	lea    -0x19(%rbp),%rax
    3ede:	48 89 c7             	mov    %rax,%rdi
    3ee1:	e8 2a d7 ff ff       	callq  1610 <_ZNSaIcEC1Ev@plt>
    3ee6:	48 8b 45 c8          	mov    -0x38(%rbp),%rax
    3eea:	48 89 c7             	mov    %rax,%rdi
    3eed:	e8 53 f1 ff ff       	callq  3045 <_ZSt7forwardIRA11_KcEOT_RNSt16remove_referenceIS3_E4typeE>
    3ef2:	48 89 c1             	mov    %rax,%rcx
    3ef5:	48 8d 45 e7          	lea    -0x19(%rbp),%rax
    3ef9:	48 89 c2             	mov    %rax,%rdx
    3efc:	48 89 ce             	mov    %rcx,%rsi
    3eff:	48 89 df             	mov    %rbx,%rdi
    3f02:	e8 99 d6 ff ff       	callq  15a0 <_ZNSt7__cxx1112basic_stringIcSt11char_traitsIcESaIcEEC1EPKcRKS3_@plt>
    3f07:	48 8d 45 e7          	lea    -0x19(%rbp),%rax
    3f0b:	48 89 c7             	mov    %rax,%rdi
    3f0e:	e8 3d d6 ff ff       	callq  1550 <_ZNSaIcED1Ev@plt>
    3f13:	90                   	nop
    3f14:	48 8b 45 e8          	mov    -0x18(%rbp),%rax
    3f18:	64 48 33 04 25 28 00 	xor    %fs:0x28,%rax
    3f1f:	00 00 
    3f21:	74 21                	je     3f44 <_ZNSt4pairIKPKcNSt7__cxx1112basic_stringIcSt11char_traitsIcESaIcEEEEC1IS1_RA11_S0_Lb1EEEOT_OT0_+0xac>
    3f23:	eb 1a                	jmp    3f3f <_ZNSt4pairIKPKcNSt7__cxx1112basic_stringIcSt11char_traitsIcESaIcEEEEC1IS1_RA11_S0_Lb1EEEOT_OT0_+0xa7>
    3f25:	48 89 c3             	mov    %rax,%rbx
    3f28:	48 8d 45 e7          	lea    -0x19(%rbp),%rax
    3f2c:	48 89 c7             	mov    %rax,%rdi
    3f2f:	e8 1c d6 ff ff       	callq  1550 <_ZNSaIcED1Ev@plt>
    3f34:	48 89 d8             	mov    %rbx,%rax
    3f37:	48 89 c7             	mov    %rax,%rdi
    3f3a:	e8 c1 d6 ff ff       	callq  1600 <_Unwind_Resume@plt>
    3f3f:	e8 1c d6 ff ff       	callq  1560 <__stack_chk_fail@plt>
    3f44:	48 83 c4 38          	add    $0x38,%rsp
    3f48:	5b                   	pop    %rbx
    3f49:	5d                   	pop    %rbp
    3f4a:	c3                   	retq   
    3f4b:	90                   	nop

0000000000003f4c <_ZNSt4pairIKPKcNSt7__cxx1112basic_stringIcSt11char_traitsIcESaIcEEEEC1IS1_RA5_S0_Lb1EEEOT_OT0_>:
    3f4c:	55                   	push   %rbp
    3f4d:	48 89 e5             	mov    %rsp,%rbp
    3f50:	53                   	push   %rbx
    3f51:	48 83 ec 38          	sub    $0x38,%rsp
    3f55:	48 89 7d d8          	mov    %rdi,-0x28(%rbp)
    3f59:	48 89 75 d0          	mov    %rsi,-0x30(%rbp)
    3f5d:	48 89 55 c8          	mov    %rdx,-0x38(%rbp)
    3f61:	64 48 8b 04 25 28 00 	mov    %fs:0x28,%rax
    3f68:	00 00 
    3f6a:	48 89 45 e8          	mov    %rax,-0x18(%rbp)
    3f6e:	31 c0                	xor    %eax,%eax
    3f70:	48 8b 45 d0          	mov    -0x30(%rbp),%rax
    3f74:	48 89 c7             	mov    %rax,%rdi
    3f77:	e8 3f 08 00 00       	callq  47bb <_ZSt7forwardIPKcEOT_RNSt16remove_referenceIS2_E4typeE>
    3f7c:	48 8b 10             	mov    (%rax),%rdx
    3f7f:	48 8b 45 d8          	mov    -0x28(%rbp),%rax
    3f83:	48 89 10             	mov    %rdx,(%rax)
    3f86:	48 8b 45 d8          	mov    -0x28(%rbp),%rax
    3f8a:	48 8d 58 08          	lea    0x8(%rax),%rbx
    3f8e:	48 8d 45 e7          	lea    -0x19(%rbp),%rax
    3f92:	48 89 c7             	mov    %rax,%rdi
    3f95:	e8 76 d6 ff ff       	callq  1610 <_ZNSaIcEC1Ev@plt>
    3f9a:	48 8b 45 c8          	mov    -0x38(%rbp),%rax
    3f9e:	48 89 c7             	mov    %rax,%rdi
    3fa1:	e8 5f f1 ff ff       	callq  3105 <_ZSt7forwardIRA5_KcEOT_RNSt16remove_referenceIS3_E4typeE>
    3fa6:	48 89 c1             	mov    %rax,%rcx
    3fa9:	48 8d 45 e7          	lea    -0x19(%rbp),%rax
    3fad:	48 89 c2             	mov    %rax,%rdx
    3fb0:	48 89 ce             	mov    %rcx,%rsi
    3fb3:	48 89 df             	mov    %rbx,%rdi
    3fb6:	e8 e5 d5 ff ff       	callq  15a0 <_ZNSt7__cxx1112basic_stringIcSt11char_traitsIcESaIcEEC1EPKcRKS3_@plt>
    3fbb:	48 8d 45 e7          	lea    -0x19(%rbp),%rax
    3fbf:	48 89 c7             	mov    %rax,%rdi
    3fc2:	e8 89 d5 ff ff       	callq  1550 <_ZNSaIcED1Ev@plt>
    3fc7:	90                   	nop
    3fc8:	48 8b 45 e8          	mov    -0x18(%rbp),%rax
    3fcc:	64 48 33 04 25 28 00 	xor    %fs:0x28,%rax
    3fd3:	00 00 
    3fd5:	74 21                	je     3ff8 <_ZNSt4pairIKPKcNSt7__cxx1112basic_stringIcSt11char_traitsIcESaIcEEEEC1IS1_RA5_S0_Lb1EEEOT_OT0_+0xac>
    3fd7:	eb 1a                	jmp    3ff3 <_ZNSt4pairIKPKcNSt7__cxx1112basic_stringIcSt11char_traitsIcESaIcEEEEC1IS1_RA5_S0_Lb1EEEOT_OT0_+0xa7>
    3fd9:	48 89 c3             	mov    %rax,%rbx
    3fdc:	48 8d 45 e7          	lea    -0x19(%rbp),%rax
    3fe0:	48 89 c7             	mov    %rax,%rdi
    3fe3:	e8 68 d5 ff ff       	callq  1550 <_ZNSaIcED1Ev@plt>
    3fe8:	48 89 d8             	mov    %rbx,%rax
    3feb:	48 89 c7             	mov    %rax,%rdi
    3fee:	e8 0d d6 ff ff       	callq  1600 <_Unwind_Resume@plt>
    3ff3:	e8 68 d5 ff ff       	callq  1560 <__stack_chk_fail@plt>
    3ff8:	48 83 c4 38          	add    $0x38,%rsp
    3ffc:	5b                   	pop    %rbx
    3ffd:	5d                   	pop    %rbp
    3ffe:	c3                   	retq   
    3fff:	90                   	nop

0000000000004000 <_ZNSt4pairIKPKcNSt7__cxx1112basic_stringIcSt11char_traitsIcESaIcEEEEC1IS1_RA10_S0_Lb1EEEOT_OT0_>:
    4000:	55                   	push   %rbp
    4001:	48 89 e5             	mov    %rsp,%rbp
    4004:	53                   	push   %rbx
    4005:	48 83 ec 38          	sub    $0x38,%rsp
    4009:	48 89 7d d8          	mov    %rdi,-0x28(%rbp)
    400d:	48 89 75 d0          	mov    %rsi,-0x30(%rbp)
    4011:	48 89 55 c8          	mov    %rdx,-0x38(%rbp)
    4015:	64 48 8b 04 25 28 00 	mov    %fs:0x28,%rax
    401c:	00 00 
    401e:	48 89 45 e8          	mov    %rax,-0x18(%rbp)
    4022:	31 c0                	xor    %eax,%eax
    4024:	48 8b 45 d0          	mov    -0x30(%rbp),%rax
    4028:	48 89 c7             	mov    %rax,%rdi
    402b:	e8 8b 07 00 00       	callq  47bb <_ZSt7forwardIPKcEOT_RNSt16remove_referenceIS2_E4typeE>
    4030:	48 8b 10             	mov    (%rax),%rdx
    4033:	48 8b 45 d8          	mov    -0x28(%rbp),%rax
    4037:	48 89 10             	mov    %rdx,(%rax)
    403a:	48 8b 45 d8          	mov    -0x28(%rbp),%rax
    403e:	48 8d 58 08          	lea    0x8(%rax),%rbx
    4042:	48 8d 45 e7          	lea    -0x19(%rbp),%rax
    4046:	48 89 c7             	mov    %rax,%rdi
    4049:	e8 c2 d5 ff ff       	callq  1610 <_ZNSaIcEC1Ev@plt>
    404e:	48 8b 45 c8          	mov    -0x38(%rbp),%rax
    4052:	48 89 c7             	mov    %rax,%rdi
    4055:	e8 6b f1 ff ff       	callq  31c5 <_ZSt7forwardIRA10_KcEOT_RNSt16remove_referenceIS3_E4typeE>
    405a:	48 89 c1             	mov    %rax,%rcx
    405d:	48 8d 45 e7          	lea    -0x19(%rbp),%rax
    4061:	48 89 c2             	mov    %rax,%rdx
    4064:	48 89 ce             	mov    %rcx,%rsi
    4067:	48 89 df             	mov    %rbx,%rdi
    406a:	e8 31 d5 ff ff       	callq  15a0 <_ZNSt7__cxx1112basic_stringIcSt11char_traitsIcESaIcEEC1EPKcRKS3_@plt>
    406f:	48 8d 45 e7          	lea    -0x19(%rbp),%rax
    4073:	48 89 c7             	mov    %rax,%rdi
    4076:	e8 d5 d4 ff ff       	callq  1550 <_ZNSaIcED1Ev@plt>
    407b:	90                   	nop
    407c:	48 8b 45 e8          	mov    -0x18(%rbp),%rax
    4080:	64 48 33 04 25 28 00 	xor    %fs:0x28,%rax
    4087:	00 00 
    4089:	74 21                	je     40ac <_ZNSt4pairIKPKcNSt7__cxx1112basic_stringIcSt11char_traitsIcESaIcEEEEC1IS1_RA10_S0_Lb1EEEOT_OT0_+0xac>
    408b:	eb 1a                	jmp    40a7 <_ZNSt4pairIKPKcNSt7__cxx1112basic_stringIcSt11char_traitsIcESaIcEEEEC1IS1_RA10_S0_Lb1EEEOT_OT0_+0xa7>
    408d:	48 89 c3             	mov    %rax,%rbx
    4090:	48 8d 45 e7          	lea    -0x19(%rbp),%rax
    4094:	48 89 c7             	mov    %rax,%rdi
    4097:	e8 b4 d4 ff ff       	callq  1550 <_ZNSaIcED1Ev@plt>
    409c:	48 89 d8             	mov    %rbx,%rax
    409f:	48 89 c7             	mov    %rax,%rdi
    40a2:	e8 59 d5 ff ff       	callq  1600 <_Unwind_Resume@plt>
    40a7:	e8 b4 d4 ff ff       	callq  1560 <__stack_chk_fail@plt>
    40ac:	48 83 c4 38          	add    $0x38,%rsp
    40b0:	5b                   	pop    %rbx
    40b1:	5d                   	pop    %rbp
    40b2:	c3                   	retq   
    40b3:	90                   	nop

00000000000040b4 <_ZNSt4pairIKPKcNSt7__cxx1112basic_stringIcSt11char_traitsIcESaIcEEEEC1IS1_RA6_S0_Lb1EEEOT_OT0_>:
    40b4:	55                   	push   %rbp
    40b5:	48 89 e5             	mov    %rsp,%rbp
    40b8:	53                   	push   %rbx
    40b9:	48 83 ec 38          	sub    $0x38,%rsp
    40bd:	48 89 7d d8          	mov    %rdi,-0x28(%rbp)
    40c1:	48 89 75 d0          	mov    %rsi,-0x30(%rbp)
    40c5:	48 89 55 c8          	mov    %rdx,-0x38(%rbp)
    40c9:	64 48 8b 04 25 28 00 	mov    %fs:0x28,%rax
    40d0:	00 00 
    40d2:	48 89 45 e8          	mov    %rax,-0x18(%rbp)
    40d6:	31 c0                	xor    %eax,%eax
    40d8:	48 8b 45 d0          	mov    -0x30(%rbp),%rax
    40dc:	48 89 c7             	mov    %rax,%rdi
    40df:	e8 d7 06 00 00       	callq  47bb <_ZSt7forwardIPKcEOT_RNSt16remove_referenceIS2_E4typeE>
    40e4:	48 8b 10             	mov    (%rax),%rdx
    40e7:	48 8b 45 d8          	mov    -0x28(%rbp),%rax
    40eb:	48 89 10             	mov    %rdx,(%rax)
    40ee:	48 8b 45 d8          	mov    -0x28(%rbp),%rax
    40f2:	48 8d 58 08          	lea    0x8(%rax),%rbx
    40f6:	48 8d 45 e7          	lea    -0x19(%rbp),%rax
    40fa:	48 89 c7             	mov    %rax,%rdi
    40fd:	e8 0e d5 ff ff       	callq  1610 <_ZNSaIcEC1Ev@plt>
    4102:	48 8b 45 c8          	mov    -0x38(%rbp),%rax
    4106:	48 89 c7             	mov    %rax,%rdi
    4109:	e8 77 f1 ff ff       	callq  3285 <_ZSt7forwardIRA6_KcEOT_RNSt16remove_referenceIS3_E4typeE>
    410e:	48 89 c1             	mov    %rax,%rcx
    4111:	48 8d 45 e7          	lea    -0x19(%rbp),%rax
    4115:	48 89 c2             	mov    %rax,%rdx
    4118:	48 89 ce             	mov    %rcx,%rsi
    411b:	48 89 df             	mov    %rbx,%rdi
    411e:	e8 7d d4 ff ff       	callq  15a0 <_ZNSt7__cxx1112basic_stringIcSt11char_traitsIcESaIcEEC1EPKcRKS3_@plt>
    4123:	48 8d 45 e7          	lea    -0x19(%rbp),%rax
    4127:	48 89 c7             	mov    %rax,%rdi
    412a:	e8 21 d4 ff ff       	callq  1550 <_ZNSaIcED1Ev@plt>
    412f:	90                   	nop
    4130:	48 8b 45 e8          	mov    -0x18(%rbp),%rax
    4134:	64 48 33 04 25 28 00 	xor    %fs:0x28,%rax
    413b:	00 00 
    413d:	74 21                	je     4160 <_ZNSt4pairIKPKcNSt7__cxx1112basic_stringIcSt11char_traitsIcESaIcEEEEC1IS1_RA6_S0_Lb1EEEOT_OT0_+0xac>
    413f:	eb 1a                	jmp    415b <_ZNSt4pairIKPKcNSt7__cxx1112basic_stringIcSt11char_traitsIcESaIcEEEEC1IS1_RA6_S0_Lb1EEEOT_OT0_+0xa7>
    4141:	48 89 c3             	mov    %rax,%rbx
    4144:	48 8d 45 e7          	lea    -0x19(%rbp),%rax
    4148:	48 89 c7             	mov    %rax,%rdi
    414b:	e8 00 d4 ff ff       	callq  1550 <_ZNSaIcED1Ev@plt>
    4150:	48 89 d8             	mov    %rbx,%rax
    4153:	48 89 c7             	mov    %rax,%rdi
    4156:	e8 a5 d4 ff ff       	callq  1600 <_Unwind_Resume@plt>
    415b:	e8 00 d4 ff ff       	callq  1560 <__stack_chk_fail@plt>
    4160:	48 83 c4 38          	add    $0x38,%rsp
    4164:	5b                   	pop    %rbx
    4165:	5d                   	pop    %rbp
    4166:	c3                   	retq   
    4167:	90                   	nop

0000000000004168 <_ZNSt4pairIKPKcNSt7__cxx1112basic_stringIcSt11char_traitsIcESaIcEEEEC1IS1_RA7_S0_Lb1EEEOT_OT0_>:
    4168:	55                   	push   %rbp
    4169:	48 89 e5             	mov    %rsp,%rbp
    416c:	53                   	push   %rbx
    416d:	48 83 ec 38          	sub    $0x38,%rsp
    4171:	48 89 7d d8          	mov    %rdi,-0x28(%rbp)
    4175:	48 89 75 d0          	mov    %rsi,-0x30(%rbp)
    4179:	48 89 55 c8          	mov    %rdx,-0x38(%rbp)
    417d:	64 48 8b 04 25 28 00 	mov    %fs:0x28,%rax
    4184:	00 00 
    4186:	48 89 45 e8          	mov    %rax,-0x18(%rbp)
    418a:	31 c0                	xor    %eax,%eax
    418c:	48 8b 45 d0          	mov    -0x30(%rbp),%rax
    4190:	48 89 c7             	mov    %rax,%rdi
    4193:	e8 23 06 00 00       	callq  47bb <_ZSt7forwardIPKcEOT_RNSt16remove_referenceIS2_E4typeE>
    4198:	48 8b 10             	mov    (%rax),%rdx
    419b:	48 8b 45 d8          	mov    -0x28(%rbp),%rax
    419f:	48 89 10             	mov    %rdx,(%rax)
    41a2:	48 8b 45 d8          	mov    -0x28(%rbp),%rax
    41a6:	48 8d 58 08          	lea    0x8(%rax),%rbx
    41aa:	48 8d 45 e7          	lea    -0x19(%rbp),%rax
    41ae:	48 89 c7             	mov    %rax,%rdi
    41b1:	e8 5a d4 ff ff       	callq  1610 <_ZNSaIcEC1Ev@plt>
    41b6:	48 8b 45 c8          	mov    -0x38(%rbp),%rax
    41ba:	48 89 c7             	mov    %rax,%rdi
    41bd:	e8 83 f1 ff ff       	callq  3345 <_ZSt7forwardIRA7_KcEOT_RNSt16remove_referenceIS3_E4typeE>
    41c2:	48 89 c1             	mov    %rax,%rcx
    41c5:	48 8d 45 e7          	lea    -0x19(%rbp),%rax
    41c9:	48 89 c2             	mov    %rax,%rdx
    41cc:	48 89 ce             	mov    %rcx,%rsi
    41cf:	48 89 df             	mov    %rbx,%rdi
    41d2:	e8 c9 d3 ff ff       	callq  15a0 <_ZNSt7__cxx1112basic_stringIcSt11char_traitsIcESaIcEEC1EPKcRKS3_@plt>
    41d7:	48 8d 45 e7          	lea    -0x19(%rbp),%rax
    41db:	48 89 c7             	mov    %rax,%rdi
    41de:	e8 6d d3 ff ff       	callq  1550 <_ZNSaIcED1Ev@plt>
    41e3:	90                   	nop
    41e4:	48 8b 45 e8          	mov    -0x18(%rbp),%rax
    41e8:	64 48 33 04 25 28 00 	xor    %fs:0x28,%rax
    41ef:	00 00 
    41f1:	74 21                	je     4214 <_ZNSt4pairIKPKcNSt7__cxx1112basic_stringIcSt11char_traitsIcESaIcEEEEC1IS1_RA7_S0_Lb1EEEOT_OT0_+0xac>
    41f3:	eb 1a                	jmp    420f <_ZNSt4pairIKPKcNSt7__cxx1112basic_stringIcSt11char_traitsIcESaIcEEEEC1IS1_RA7_S0_Lb1EEEOT_OT0_+0xa7>
    41f5:	48 89 c3             	mov    %rax,%rbx
    41f8:	48 8d 45 e7          	lea    -0x19(%rbp),%rax
    41fc:	48 89 c7             	mov    %rax,%rdi
    41ff:	e8 4c d3 ff ff       	callq  1550 <_ZNSaIcED1Ev@plt>
    4204:	48 89 d8             	mov    %rbx,%rax
    4207:	48 89 c7             	mov    %rax,%rdi
    420a:	e8 f1 d3 ff ff       	callq  1600 <_Unwind_Resume@plt>
    420f:	e8 4c d3 ff ff       	callq  1560 <__stack_chk_fail@plt>
    4214:	48 83 c4 38          	add    $0x38,%rsp
    4218:	5b                   	pop    %rbx
    4219:	5d                   	pop    %rbp
    421a:	c3                   	retq   
    421b:	90                   	nop

000000000000421c <_ZNSt4pairIKPKcNSt7__cxx1112basic_stringIcSt11char_traitsIcESaIcEEEEC1IS1_RA13_S0_Lb1EEEOT_OT0_>:
    421c:	55                   	push   %rbp
    421d:	48 89 e5             	mov    %rsp,%rbp
    4220:	53                   	push   %rbx
    4221:	48 83 ec 38          	sub    $0x38,%rsp
    4225:	48 89 7d d8          	mov    %rdi,-0x28(%rbp)
    4229:	48 89 75 d0          	mov    %rsi,-0x30(%rbp)
    422d:	48 89 55 c8          	mov    %rdx,-0x38(%rbp)
    4231:	64 48 8b 04 25 28 00 	mov    %fs:0x28,%rax
    4238:	00 00 
    423a:	48 89 45 e8          	mov    %rax,-0x18(%rbp)
    423e:	31 c0                	xor    %eax,%eax
    4240:	48 8b 45 d0          	mov    -0x30(%rbp),%rax
    4244:	48 89 c7             	mov    %rax,%rdi
    4247:	e8 6f 05 00 00       	callq  47bb <_ZSt7forwardIPKcEOT_RNSt16remove_referenceIS2_E4typeE>
    424c:	48 8b 10             	mov    (%rax),%rdx
    424f:	48 8b 45 d8          	mov    -0x28(%rbp),%rax
    4253:	48 89 10             	mov    %rdx,(%rax)
    4256:	48 8b 45 d8          	mov    -0x28(%rbp),%rax
    425a:	48 8d 58 08          	lea    0x8(%rax),%rbx
    425e:	48 8d 45 e7          	lea    -0x19(%rbp),%rax
    4262:	48 89 c7             	mov    %rax,%rdi
    4265:	e8 a6 d3 ff ff       	callq  1610 <_ZNSaIcEC1Ev@plt>
    426a:	48 8b 45 c8          	mov    -0x38(%rbp),%rax
    426e:	48 89 c7             	mov    %rax,%rdi
    4271:	e8 8f f1 ff ff       	callq  3405 <_ZSt7forwardIRA13_KcEOT_RNSt16remove_referenceIS3_E4typeE>
    4276:	48 89 c1             	mov    %rax,%rcx
    4279:	48 8d 45 e7          	lea    -0x19(%rbp),%rax
    427d:	48 89 c2             	mov    %rax,%rdx
    4280:	48 89 ce             	mov    %rcx,%rsi
    4283:	48 89 df             	mov    %rbx,%rdi
    4286:	e8 15 d3 ff ff       	callq  15a0 <_ZNSt7__cxx1112basic_stringIcSt11char_traitsIcESaIcEEC1EPKcRKS3_@plt>
    428b:	48 8d 45 e7          	lea    -0x19(%rbp),%rax
    428f:	48 89 c7             	mov    %rax,%rdi
    4292:	e8 b9 d2 ff ff       	callq  1550 <_ZNSaIcED1Ev@plt>
    4297:	90                   	nop
    4298:	48 8b 45 e8          	mov    -0x18(%rbp),%rax
    429c:	64 48 33 04 25 28 00 	xor    %fs:0x28,%rax
    42a3:	00 00 
    42a5:	74 21                	je     42c8 <_ZNSt4pairIKPKcNSt7__cxx1112basic_stringIcSt11char_traitsIcESaIcEEEEC1IS1_RA13_S0_Lb1EEEOT_OT0_+0xac>
    42a7:	eb 1a                	jmp    42c3 <_ZNSt4pairIKPKcNSt7__cxx1112basic_stringIcSt11char_traitsIcESaIcEEEEC1IS1_RA13_S0_Lb1EEEOT_OT0_+0xa7>
    42a9:	48 89 c3             	mov    %rax,%rbx
    42ac:	48 8d 45 e7          	lea    -0x19(%rbp),%rax
    42b0:	48 89 c7             	mov    %rax,%rdi
    42b3:	e8 98 d2 ff ff       	callq  1550 <_ZNSaIcED1Ev@plt>
    42b8:	48 89 d8             	mov    %rbx,%rax
    42bb:	48 89 c7             	mov    %rax,%rdi
    42be:	e8 3d d3 ff ff       	callq  1600 <_Unwind_Resume@plt>
    42c3:	e8 98 d2 ff ff       	callq  1560 <__stack_chk_fail@plt>
    42c8:	48 83 c4 38          	add    $0x38,%rsp
    42cc:	5b                   	pop    %rbx
    42cd:	5d                   	pop    %rbp
    42ce:	c3                   	retq   
    42cf:	90                   	nop

00000000000042d0 <_ZNSt4pairIKPKcNSt7__cxx1112basic_stringIcSt11char_traitsIcESaIcEEEEC1IS1_RA15_S0_Lb1EEEOT_OT0_>:
    42d0:	55                   	push   %rbp
    42d1:	48 89 e5             	mov    %rsp,%rbp
    42d4:	53                   	push   %rbx
    42d5:	48 83 ec 38          	sub    $0x38,%rsp
    42d9:	48 89 7d d8          	mov    %rdi,-0x28(%rbp)
    42dd:	48 89 75 d0          	mov    %rsi,-0x30(%rbp)
    42e1:	48 89 55 c8          	mov    %rdx,-0x38(%rbp)
    42e5:	64 48 8b 04 25 28 00 	mov    %fs:0x28,%rax
    42ec:	00 00 
    42ee:	48 89 45 e8          	mov    %rax,-0x18(%rbp)
    42f2:	31 c0                	xor    %eax,%eax
    42f4:	48 8b 45 d0          	mov    -0x30(%rbp),%rax
    42f8:	48 89 c7             	mov    %rax,%rdi
    42fb:	e8 bb 04 00 00       	callq  47bb <_ZSt7forwardIPKcEOT_RNSt16remove_referenceIS2_E4typeE>
    4300:	48 8b 10             	mov    (%rax),%rdx
    4303:	48 8b 45 d8          	mov    -0x28(%rbp),%rax
    4307:	48 89 10             	mov    %rdx,(%rax)
    430a:	48 8b 45 d8          	mov    -0x28(%rbp),%rax
    430e:	48 8d 58 08          	lea    0x8(%rax),%rbx
    4312:	48 8d 45 e7          	lea    -0x19(%rbp),%rax
    4316:	48 89 c7             	mov    %rax,%rdi
    4319:	e8 f2 d2 ff ff       	callq  1610 <_ZNSaIcEC1Ev@plt>
    431e:	48 8b 45 c8          	mov    -0x38(%rbp),%rax
    4322:	48 89 c7             	mov    %rax,%rdi
    4325:	e8 9b f1 ff ff       	callq  34c5 <_ZSt7forwardIRA15_KcEOT_RNSt16remove_referenceIS3_E4typeE>
    432a:	48 89 c1             	mov    %rax,%rcx
    432d:	48 8d 45 e7          	lea    -0x19(%rbp),%rax
    4331:	48 89 c2             	mov    %rax,%rdx
    4334:	48 89 ce             	mov    %rcx,%rsi
    4337:	48 89 df             	mov    %rbx,%rdi
    433a:	e8 61 d2 ff ff       	callq  15a0 <_ZNSt7__cxx1112basic_stringIcSt11char_traitsIcESaIcEEC1EPKcRKS3_@plt>
    433f:	48 8d 45 e7          	lea    -0x19(%rbp),%rax
    4343:	48 89 c7             	mov    %rax,%rdi
    4346:	e8 05 d2 ff ff       	callq  1550 <_ZNSaIcED1Ev@plt>
    434b:	90                   	nop
    434c:	48 8b 45 e8          	mov    -0x18(%rbp),%rax
    4350:	64 48 33 04 25 28 00 	xor    %fs:0x28,%rax
    4357:	00 00 
    4359:	74 21                	je     437c <_ZNSt4pairIKPKcNSt7__cxx1112basic_stringIcSt11char_traitsIcESaIcEEEEC1IS1_RA15_S0_Lb1EEEOT_OT0_+0xac>
    435b:	eb 1a                	jmp    4377 <_ZNSt4pairIKPKcNSt7__cxx1112basic_stringIcSt11char_traitsIcESaIcEEEEC1IS1_RA15_S0_Lb1EEEOT_OT0_+0xa7>
    435d:	48 89 c3             	mov    %rax,%rbx
    4360:	48 8d 45 e7          	lea    -0x19(%rbp),%rax
    4364:	48 89 c7             	mov    %rax,%rdi
    4367:	e8 e4 d1 ff ff       	callq  1550 <_ZNSaIcED1Ev@plt>
    436c:	48 89 d8             	mov    %rbx,%rax
    436f:	48 89 c7             	mov    %rax,%rdi
    4372:	e8 89 d2 ff ff       	callq  1600 <_Unwind_Resume@plt>
    4377:	e8 e4 d1 ff ff       	callq  1560 <__stack_chk_fail@plt>
    437c:	48 83 c4 38          	add    $0x38,%rsp
    4380:	5b                   	pop    %rbx
    4381:	5d                   	pop    %rbp
    4382:	c3                   	retq   
    4383:	90                   	nop

0000000000004384 <_ZNSaISt4pairIKPKcNSt7__cxx1112basic_stringIcSt11char_traitsIcESaIcEEEEEC1Ev>:
    4384:	55                   	push   %rbp
    4385:	48 89 e5             	mov    %rsp,%rbp
    4388:	48 83 ec 10          	sub    $0x10,%rsp
    438c:	48 89 7d f8          	mov    %rdi,-0x8(%rbp)
    4390:	48 8b 45 f8          	mov    -0x8(%rbp),%rax
    4394:	48 89 c7             	mov    %rax,%rdi
    4397:	e8 2e 04 00 00       	callq  47ca <_ZN9__gnu_cxx13new_allocatorISt4pairIKPKcNSt7__cxx1112basic_stringIcSt11char_traitsIcESaIcEEEEEC1Ev>
    439c:	90                   	nop
    439d:	c9                   	leaveq 
    439e:	c3                   	retq   
    439f:	90                   	nop

00000000000043a0 <_ZNSaISt4pairIKPKcNSt7__cxx1112basic_stringIcSt11char_traitsIcESaIcEEEEED1Ev>:
    43a0:	55                   	push   %rbp
    43a1:	48 89 e5             	mov    %rsp,%rbp
    43a4:	48 83 ec 10          	sub    $0x10,%rsp
    43a8:	48 89 7d f8          	mov    %rdi,-0x8(%rbp)
    43ac:	48 8b 45 f8          	mov    -0x8(%rbp),%rax
    43b0:	48 89 c7             	mov    %rax,%rdi
    43b3:	e8 1e 04 00 00       	callq  47d6 <_ZN9__gnu_cxx13new_allocatorISt4pairIKPKcNSt7__cxx1112basic_stringIcSt11char_traitsIcESaIcEEEEED1Ev>
    43b8:	90                   	nop
    43b9:	c9                   	leaveq 
    43ba:	c3                   	retq   
    43bb:	90                   	nop

00000000000043bc <_ZNSt13unordered_mapIPKcNSt7__cxx1112basic_stringIcSt11char_traitsIcESaIcEEESt4hashIS1_ESt8equal_toIS1_ESaISt4pairIKS1_S7_EEEC1ESt16initializer_listISE_EmRKS9_RKSB_RKSF_>:
    43bc:	55                   	push   %rbp
    43bd:	48 89 e5             	mov    %rsp,%rbp
    43c0:	48 83 ec 30          	sub    $0x30,%rsp
    43c4:	48 89 7d f8          	mov    %rdi,-0x8(%rbp)
    43c8:	48 89 f0             	mov    %rsi,%rax
    43cb:	48 89 d6             	mov    %rdx,%rsi
    43ce:	48 89 f2             	mov    %rsi,%rdx
    43d1:	48 89 45 e0          	mov    %rax,-0x20(%rbp)
    43d5:	48 89 55 e8          	mov    %rdx,-0x18(%rbp)
    43d9:	48 89 4d f0          	mov    %rcx,-0x10(%rbp)
    43dd:	4c 89 45 d8          	mov    %r8,-0x28(%rbp)
    43e1:	4c 89 4d d0          	mov    %r9,-0x30(%rbp)
    43e5:	48 8b 45 f8          	mov    -0x8(%rbp),%rax
    43e9:	4c 8b 45 d0          	mov    -0x30(%rbp),%r8
    43ed:	48 8b 7d d8          	mov    -0x28(%rbp),%rdi
    43f1:	48 8b 4d f0          	mov    -0x10(%rbp),%rcx
    43f5:	48 8b 75 e0          	mov    -0x20(%rbp),%rsi
    43f9:	48 8b 55 e8          	mov    -0x18(%rbp),%rdx
    43fd:	48 83 ec 08          	sub    $0x8,%rsp
    4401:	ff 75 10             	pushq  0x10(%rbp)
    4404:	4d 89 c1             	mov    %r8,%r9
    4407:	49 89 f8             	mov    %rdi,%r8
    440a:	48 89 c7             	mov    %rax,%rdi
    440d:	e8 26 04 00 00       	callq  4838 <_ZNSt10_HashtableIPKcSt4pairIKS1_NSt7__cxx1112basic_stringIcSt11char_traitsIcESaIcEEEESaISA_ENSt8__detail10_Select1stESt8equal_toIS1_ESt4hashIS1_ENSC_18_Mod_range_hashingENSC_20_Default_ranged_hashENSC_20_Prime_rehash_policyENSC_17_Hashtable_traitsILb0ELb0ELb1EEEEC1ESt16initializer_listISA_EmRKSH_RKSF_RKSB_>
    4412:	48 83 c4 10          	add    $0x10,%rsp
    4416:	90                   	nop
    4417:	c9                   	leaveq 
    4418:	c3                   	retq   
    4419:	90                   	nop

000000000000441a <_ZNSt8__detail21_Hashtable_ebo_helperILi0ESaINS_10_Hash_nodeISt4pairIKPKcNSt7__cxx1112basic_stringIcSt11char_traitsIcESaIcEEEELb0EEEELb1EED1Ev>:
    441a:	55                   	push   %rbp
    441b:	48 89 e5             	mov    %rsp,%rbp
    441e:	48 83 ec 10          	sub    $0x10,%rsp
    4422:	48 89 7d f8          	mov    %rdi,-0x8(%rbp)
    4426:	48 8b 45 f8          	mov    -0x8(%rbp),%rax
    442a:	48 89 c7             	mov    %rax,%rdi
    442d:	e8 bc 04 00 00       	callq  48ee <_ZNSaINSt8__detail10_Hash_nodeISt4pairIKPKcNSt7__cxx1112basic_stringIcSt11char_traitsIcESaIcEEEELb0EEEED1Ev>
    4432:	90                   	nop
    4433:	c9                   	leaveq 
    4434:	c3                   	retq   
    4435:	90                   	nop

0000000000004436 <_ZNSt8__detail16_Hashtable_allocISaINS_10_Hash_nodeISt4pairIKPKcNSt7__cxx1112basic_stringIcSt11char_traitsIcESaIcEEEELb0EEEEED1Ev>:
    4436:	55                   	push   %rbp
    4437:	48 89 e5             	mov    %rsp,%rbp
    443a:	48 83 ec 10          	sub    $0x10,%rsp
    443e:	48 89 7d f8          	mov    %rdi,-0x8(%rbp)
    4442:	48 8b 45 f8          	mov    -0x8(%rbp),%rax
    4446:	48 89 c7             	mov    %rax,%rdi
    4449:	e8 cc ff ff ff       	callq  441a <_ZNSt8__detail21_Hashtable_ebo_helperILi0ESaINS_10_Hash_nodeISt4pairIKPKcNSt7__cxx1112basic_stringIcSt11char_traitsIcESaIcEEEELb0EEEELb1EED1Ev>
    444e:	90                   	nop
    444f:	c9                   	leaveq 
    4450:	c3                   	retq   
    4451:	90                   	nop

0000000000004452 <_ZNSt10_HashtableIPKcSt4pairIKS1_NSt7__cxx1112basic_stringIcSt11char_traitsIcESaIcEEEESaISA_ENSt8__detail10_Select1stESt8equal_toIS1_ESt4hashIS1_ENSC_18_Mod_range_hashingENSC_20_Default_ranged_hashENSC_20_Prime_rehash_policyENSC_17_Hashtable_traitsILb0ELb0ELb1EEEED1Ev>:
    4452:	55                   	push   %rbp
    4453:	48 89 e5             	mov    %rsp,%rbp
    4456:	48 83 ec 10          	sub    $0x10,%rsp
    445a:	48 89 7d f8          	mov    %rdi,-0x8(%rbp)
    445e:	48 8b 45 f8          	mov    -0x8(%rbp),%rax
    4462:	48 89 c7             	mov    %rax,%rdi
    4465:	e8 a0 04 00 00       	callq  490a <_ZNSt10_HashtableIPKcSt4pairIKS1_NSt7__cxx1112basic_stringIcSt11char_traitsIcESaIcEEEESaISA_ENSt8__detail10_Select1stESt8equal_toIS1_ESt4hashIS1_ENSC_18_Mod_range_hashingENSC_20_Default_ranged_hashENSC_20_Prime_rehash_policyENSC_17_Hashtable_traitsILb0ELb0ELb1EEEE5clearEv>
    446a:	48 8b 45 f8          	mov    -0x8(%rbp),%rax
    446e:	48 89 c7             	mov    %rax,%rdi
    4471:	e8 fe 04 00 00       	callq  4974 <_ZNSt10_HashtableIPKcSt4pairIKS1_NSt7__cxx1112basic_stringIcSt11char_traitsIcESaIcEEEESaISA_ENSt8__detail10_Select1stESt8equal_toIS1_ESt4hashIS1_ENSC_18_Mod_range_hashingENSC_20_Default_ranged_hashENSC_20_Prime_rehash_policyENSC_17_Hashtable_traitsILb0ELb0ELb1EEEE21_M_deallocate_bucketsEv>
    4476:	48 8b 45 f8          	mov    -0x8(%rbp),%rax
    447a:	48 89 c7             	mov    %rax,%rdi
    447d:	e8 b4 ff ff ff       	callq  4436 <_ZNSt8__detail16_Hashtable_allocISaINS_10_Hash_nodeISt4pairIKPKcNSt7__cxx1112basic_stringIcSt11char_traitsIcESaIcEEEELb0EEEEED1Ev>
    4482:	90                   	nop
    4483:	c9                   	leaveq 
    4484:	c3                   	retq   
    4485:	90                   	nop

0000000000004486 <_ZNSaISt4pairIKiNSt7__cxx1112basic_stringIcSt11char_traitsIcESaIcEEEEEC1Ev>:
    4486:	55                   	push   %rbp
    4487:	48 89 e5             	mov    %rsp,%rbp
    448a:	48 83 ec 10          	sub    $0x10,%rsp
    448e:	48 89 7d f8          	mov    %rdi,-0x8(%rbp)
    4492:	48 8b 45 f8          	mov    -0x8(%rbp),%rax
    4496:	48 89 c7             	mov    %rax,%rdi
    4499:	e8 04 05 00 00       	callq  49a2 <_ZN9__gnu_cxx13new_allocatorISt4pairIKiNSt7__cxx1112basic_stringIcSt11char_traitsIcESaIcEEEEEC1Ev>
    449e:	90                   	nop
    449f:	c9                   	leaveq 
    44a0:	c3                   	retq   
    44a1:	90                   	nop

00000000000044a2 <_ZNSaISt4pairIKiNSt7__cxx1112basic_stringIcSt11char_traitsIcESaIcEEEEED1Ev>:
    44a2:	55                   	push   %rbp
    44a3:	48 89 e5             	mov    %rsp,%rbp
    44a6:	48 83 ec 10          	sub    $0x10,%rsp
    44aa:	48 89 7d f8          	mov    %rdi,-0x8(%rbp)
    44ae:	48 8b 45 f8          	mov    -0x8(%rbp),%rax
    44b2:	48 89 c7             	mov    %rax,%rdi
    44b5:	e8 f4 04 00 00       	callq  49ae <_ZN9__gnu_cxx13new_allocatorISt4pairIKiNSt7__cxx1112basic_stringIcSt11char_traitsIcESaIcEEEEED1Ev>
    44ba:	90                   	nop
    44bb:	c9                   	leaveq 
    44bc:	c3                   	retq   
    44bd:	90                   	nop

00000000000044be <_ZNSt13unordered_mapIiNSt7__cxx1112basic_stringIcSt11char_traitsIcESaIcEEESt4hashIiESt8equal_toIiESaISt4pairIKiS5_EEEC1ESt16initializer_listISC_EmRKS7_RKS9_RKSD_>:
    44be:	55                   	push   %rbp
    44bf:	48 89 e5             	mov    %rsp,%rbp
    44c2:	48 83 ec 30          	sub    $0x30,%rsp
    44c6:	48 89 7d f8          	mov    %rdi,-0x8(%rbp)
    44ca:	48 89 f0             	mov    %rsi,%rax
    44cd:	48 89 d6             	mov    %rdx,%rsi
    44d0:	48 89 f2             	mov    %rsi,%rdx
    44d3:	48 89 45 e0          	mov    %rax,-0x20(%rbp)
    44d7:	48 89 55 e8          	mov    %rdx,-0x18(%rbp)
    44db:	48 89 4d f0          	mov    %rcx,-0x10(%rbp)
    44df:	4c 89 45 d8          	mov    %r8,-0x28(%rbp)
    44e3:	4c 89 4d d0          	mov    %r9,-0x30(%rbp)
    44e7:	48 8b 45 f8          	mov    -0x8(%rbp),%rax
    44eb:	4c 8b 45 d0          	mov    -0x30(%rbp),%r8
    44ef:	48 8b 7d d8          	mov    -0x28(%rbp),%rdi
    44f3:	48 8b 4d f0          	mov    -0x10(%rbp),%rcx
    44f7:	48 8b 75 e0          	mov    -0x20(%rbp),%rsi
    44fb:	48 8b 55 e8          	mov    -0x18(%rbp),%rdx
    44ff:	48 83 ec 08          	sub    $0x8,%rsp
    4503:	ff 75 10             	pushq  0x10(%rbp)
    4506:	4d 89 c1             	mov    %r8,%r9
    4509:	49 89 f8             	mov    %rdi,%r8
    450c:	48 89 c7             	mov    %rax,%rdi
    450f:	e8 fc 04 00 00       	callq  4a10 <_ZNSt10_HashtableIiSt4pairIKiNSt7__cxx1112basic_stringIcSt11char_traitsIcESaIcEEEESaIS8_ENSt8__detail10_Select1stESt8equal_toIiESt4hashIiENSA_18_Mod_range_hashingENSA_20_Default_ranged_hashENSA_20_Prime_rehash_policyENSA_17_Hashtable_traitsILb0ELb0ELb1EEEEC1ESt16initializer_listIS8_EmRKSF_RKSD_RKS9_>
    4514:	48 83 c4 10          	add    $0x10,%rsp
    4518:	90                   	nop
    4519:	c9                   	leaveq 
    451a:	c3                   	retq   
    451b:	90                   	nop

000000000000451c <_ZNSt8__detail21_Hashtable_ebo_helperILi0ESaINS_10_Hash_nodeISt4pairIKiNSt7__cxx1112basic_stringIcSt11char_traitsIcESaIcEEEELb0EEEELb1EED1Ev>:
    451c:	55                   	push   %rbp
    451d:	48 89 e5             	mov    %rsp,%rbp
    4520:	48 83 ec 10          	sub    $0x10,%rsp
    4524:	48 89 7d f8          	mov    %rdi,-0x8(%rbp)
    4528:	48 8b 45 f8          	mov    -0x8(%rbp),%rax
    452c:	48 89 c7             	mov    %rax,%rdi
    452f:	e8 92 05 00 00       	callq  4ac6 <_ZNSaINSt8__detail10_Hash_nodeISt4pairIKiNSt7__cxx1112basic_stringIcSt11char_traitsIcESaIcEEEELb0EEEED1Ev>
    4534:	90                   	nop
    4535:	c9                   	leaveq 
    4536:	c3                   	retq   
    4537:	90                   	nop

0000000000004538 <_ZNSt8__detail16_Hashtable_allocISaINS_10_Hash_nodeISt4pairIKiNSt7__cxx1112basic_stringIcSt11char_traitsIcESaIcEEEELb0EEEEED1Ev>:
    4538:	55                   	push   %rbp
    4539:	48 89 e5             	mov    %rsp,%rbp
    453c:	48 83 ec 10          	sub    $0x10,%rsp
    4540:	48 89 7d f8          	mov    %rdi,-0x8(%rbp)
    4544:	48 8b 45 f8          	mov    -0x8(%rbp),%rax
    4548:	48 89 c7             	mov    %rax,%rdi
    454b:	e8 cc ff ff ff       	callq  451c <_ZNSt8__detail21_Hashtable_ebo_helperILi0ESaINS_10_Hash_nodeISt4pairIKiNSt7__cxx1112basic_stringIcSt11char_traitsIcESaIcEEEELb0EEEELb1EED1Ev>
    4550:	90                   	nop
    4551:	c9                   	leaveq 
    4552:	c3                   	retq   
    4553:	90                   	nop

0000000000004554 <_ZNSt10_HashtableIiSt4pairIKiNSt7__cxx1112basic_stringIcSt11char_traitsIcESaIcEEEESaIS8_ENSt8__detail10_Select1stESt8equal_toIiESt4hashIiENSA_18_Mod_range_hashingENSA_20_Default_ranged_hashENSA_20_Prime_rehash_policyENSA_17_Hashtable_traitsILb0ELb0ELb1EEEED1Ev>:
    4554:	55                   	push   %rbp
    4555:	48 89 e5             	mov    %rsp,%rbp
    4558:	48 83 ec 10          	sub    $0x10,%rsp
    455c:	48 89 7d f8          	mov    %rdi,-0x8(%rbp)
    4560:	48 8b 45 f8          	mov    -0x8(%rbp),%rax
    4564:	48 89 c7             	mov    %rax,%rdi
    4567:	e8 76 05 00 00       	callq  4ae2 <_ZNSt10_HashtableIiSt4pairIKiNSt7__cxx1112basic_stringIcSt11char_traitsIcESaIcEEEESaIS8_ENSt8__detail10_Select1stESt8equal_toIiESt4hashIiENSA_18_Mod_range_hashingENSA_20_Default_ranged_hashENSA_20_Prime_rehash_policyENSA_17_Hashtable_traitsILb0ELb0ELb1EEEE5clearEv>
    456c:	48 8b 45 f8          	mov    -0x8(%rbp),%rax
    4570:	48 89 c7             	mov    %rax,%rdi
    4573:	e8 d4 05 00 00       	callq  4b4c <_ZNSt10_HashtableIiSt4pairIKiNSt7__cxx1112basic_stringIcSt11char_traitsIcESaIcEEEESaIS8_ENSt8__detail10_Select1stESt8equal_toIiESt4hashIiENSA_18_Mod_range_hashingENSA_20_Default_ranged_hashENSA_20_Prime_rehash_policyENSA_17_Hashtable_traitsILb0ELb0ELb1EEEE21_M_deallocate_bucketsEv>
    4578:	48 8b 45 f8          	mov    -0x8(%rbp),%rax
    457c:	48 89 c7             	mov    %rax,%rdi
    457f:	e8 b4 ff ff ff       	callq  4538 <_ZNSt8__detail16_Hashtable_allocISaINS_10_Hash_nodeISt4pairIKiNSt7__cxx1112basic_stringIcSt11char_traitsIcESaIcEEEELb0EEEEED1Ev>
    4584:	90                   	nop
    4585:	c9                   	leaveq 
    4586:	c3                   	retq   
    4587:	90                   	nop

0000000000004588 <_ZNSaISt4pairIKNSt7__cxx1112basic_stringIcSt11char_traitsIcESaIcEEEmEEC1Ev>:
    4588:	55                   	push   %rbp
    4589:	48 89 e5             	mov    %rsp,%rbp
    458c:	48 83 ec 10          	sub    $0x10,%rsp
    4590:	48 89 7d f8          	mov    %rdi,-0x8(%rbp)
    4594:	48 8b 45 f8          	mov    -0x8(%rbp),%rax
    4598:	48 89 c7             	mov    %rax,%rdi
    459b:	e8 da 05 00 00       	callq  4b7a <_ZN9__gnu_cxx13new_allocatorISt4pairIKNSt7__cxx1112basic_stringIcSt11char_traitsIcESaIcEEEmEEC1Ev>
    45a0:	90                   	nop
    45a1:	c9                   	leaveq 
    45a2:	c3                   	retq   
    45a3:	90                   	nop

00000000000045a4 <_ZNSaISt4pairIKNSt7__cxx1112basic_stringIcSt11char_traitsIcESaIcEEEmEED1Ev>:
    45a4:	55                   	push   %rbp
    45a5:	48 89 e5             	mov    %rsp,%rbp
    45a8:	48 83 ec 10          	sub    $0x10,%rsp
    45ac:	48 89 7d f8          	mov    %rdi,-0x8(%rbp)
    45b0:	48 8b 45 f8          	mov    -0x8(%rbp),%rax
    45b4:	48 89 c7             	mov    %rax,%rdi
    45b7:	e8 ca 05 00 00       	callq  4b86 <_ZN9__gnu_cxx13new_allocatorISt4pairIKNSt7__cxx1112basic_stringIcSt11char_traitsIcESaIcEEEmEED1Ev>
    45bc:	90                   	nop
    45bd:	c9                   	leaveq 
    45be:	c3                   	retq   
    45bf:	90                   	nop

00000000000045c0 <_ZNSt13unordered_mapINSt7__cxx1112basic_stringIcSt11char_traitsIcESaIcEEEmSt4hashIS5_ESt8equal_toIS5_ESaISt4pairIKS5_mEEEC1ESt16initializer_listISC_EmRKS7_RKS9_RKSD_>:
    45c0:	55                   	push   %rbp
    45c1:	48 89 e5             	mov    %rsp,%rbp
    45c4:	48 83 ec 30          	sub    $0x30,%rsp
    45c8:	48 89 7d f8          	mov    %rdi,-0x8(%rbp)
    45cc:	48 89 f0             	mov    %rsi,%rax
    45cf:	48 89 d6             	mov    %rdx,%rsi
    45d2:	48 89 f2             	mov    %rsi,%rdx
    45d5:	48 89 45 e0          	mov    %rax,-0x20(%rbp)
    45d9:	48 89 55 e8          	mov    %rdx,-0x18(%rbp)
    45dd:	48 89 4d f0          	mov    %rcx,-0x10(%rbp)
    45e1:	4c 89 45 d8          	mov    %r8,-0x28(%rbp)
    45e5:	4c 89 4d d0          	mov    %r9,-0x30(%rbp)
    45e9:	48 8b 45 f8          	mov    -0x8(%rbp),%rax
    45ed:	4c 8b 45 d0          	mov    -0x30(%rbp),%r8
    45f1:	48 8b 7d d8          	mov    -0x28(%rbp),%rdi
    45f5:	48 8b 4d f0          	mov    -0x10(%rbp),%rcx
    45f9:	48 8b 75 e0          	mov    -0x20(%rbp),%rsi
    45fd:	48 8b 55 e8          	mov    -0x18(%rbp),%rdx
    4601:	48 83 ec 08          	sub    $0x8,%rsp
    4605:	ff 75 10             	pushq  0x10(%rbp)
    4608:	4d 89 c1             	mov    %r8,%r9
    460b:	49 89 f8             	mov    %rdi,%r8
    460e:	48 89 c7             	mov    %rax,%rdi
    4611:	e8 d2 05 00 00       	callq  4be8 <_ZNSt10_HashtableINSt7__cxx1112basic_stringIcSt11char_traitsIcESaIcEEESt4pairIKS5_mESaIS8_ENSt8__detail10_Select1stESt8equal_toIS5_ESt4hashIS5_ENSA_18_Mod_range_hashingENSA_20_Default_ranged_hashENSA_20_Prime_rehash_policyENSA_17_Hashtable_traitsILb1ELb0ELb1EEEEC1ESt16initializer_listIS8_EmRKSF_RKSD_RKS9_>
    4616:	48 83 c4 10          	add    $0x10,%rsp
    461a:	90                   	nop
    461b:	c9                   	leaveq 
    461c:	c3                   	retq   
    461d:	90                   	nop

000000000000461e <_ZNSt8__detail21_Hashtable_ebo_helperILi0ESaINS_10_Hash_nodeISt4pairIKNSt7__cxx1112basic_stringIcSt11char_traitsIcESaIcEEEmELb1EEEELb1EED1Ev>:
    461e:	55                   	push   %rbp
    461f:	48 89 e5             	mov    %rsp,%rbp
    4622:	48 83 ec 10          	sub    $0x10,%rsp
    4626:	48 89 7d f8          	mov    %rdi,-0x8(%rbp)
    462a:	48 8b 45 f8          	mov    -0x8(%rbp),%rax
    462e:	48 89 c7             	mov    %rax,%rdi
    4631:	e8 68 06 00 00       	callq  4c9e <_ZNSaINSt8__detail10_Hash_nodeISt4pairIKNSt7__cxx1112basic_stringIcSt11char_traitsIcESaIcEEEmELb1EEEED1Ev>
    4636:	90                   	nop
    4637:	c9                   	leaveq 
    4638:	c3                   	retq   
    4639:	90                   	nop

000000000000463a <_ZNSt8__detail16_Hashtable_allocISaINS_10_Hash_nodeISt4pairIKNSt7__cxx1112basic_stringIcSt11char_traitsIcESaIcEEEmELb1EEEEED1Ev>:
    463a:	55                   	push   %rbp
    463b:	48 89 e5             	mov    %rsp,%rbp
    463e:	48 83 ec 10          	sub    $0x10,%rsp
    4642:	48 89 7d f8          	mov    %rdi,-0x8(%rbp)
    4646:	48 8b 45 f8          	mov    -0x8(%rbp),%rax
    464a:	48 89 c7             	mov    %rax,%rdi
    464d:	e8 cc ff ff ff       	callq  461e <_ZNSt8__detail21_Hashtable_ebo_helperILi0ESaINS_10_Hash_nodeISt4pairIKNSt7__cxx1112basic_stringIcSt11char_traitsIcESaIcEEEmELb1EEEELb1EED1Ev>
    4652:	90                   	nop
    4653:	c9                   	leaveq 
    4654:	c3                   	retq   
    4655:	90                   	nop

0000000000004656 <_ZNSt10_HashtableINSt7__cxx1112basic_stringIcSt11char_traitsIcESaIcEEESt4pairIKS5_mESaIS8_ENSt8__detail10_Select1stESt8equal_toIS5_ESt4hashIS5_ENSA_18_Mod_range_hashingENSA_20_Default_ranged_hashENSA_20_Prime_rehash_policyENSA_17_Hashtable_traitsILb1ELb0ELb1EEEED1Ev>:
    4656:	55                   	push   %rbp
    4657:	48 89 e5             	mov    %rsp,%rbp
    465a:	48 83 ec 10          	sub    $0x10,%rsp
    465e:	48 89 7d f8          	mov    %rdi,-0x8(%rbp)
    4662:	48 8b 45 f8          	mov    -0x8(%rbp),%rax
    4666:	48 89 c7             	mov    %rax,%rdi
    4669:	e8 4c 06 00 00       	callq  4cba <_ZNSt10_HashtableINSt7__cxx1112basic_stringIcSt11char_traitsIcESaIcEEESt4pairIKS5_mESaIS8_ENSt8__detail10_Select1stESt8equal_toIS5_ESt4hashIS5_ENSA_18_Mod_range_hashingENSA_20_Default_ranged_hashENSA_20_Prime_rehash_policyENSA_17_Hashtable_traitsILb1ELb0ELb1EEEE5clearEv>
    466e:	48 8b 45 f8          	mov    -0x8(%rbp),%rax
    4672:	48 89 c7             	mov    %rax,%rdi
    4675:	e8 aa 06 00 00       	callq  4d24 <_ZNSt10_HashtableINSt7__cxx1112basic_stringIcSt11char_traitsIcESaIcEEESt4pairIKS5_mESaIS8_ENSt8__detail10_Select1stESt8equal_toIS5_ESt4hashIS5_ENSA_18_Mod_range_hashingENSA_20_Default_ranged_hashENSA_20_Prime_rehash_policyENSA_17_Hashtable_traitsILb1ELb0ELb1EEEE21_M_deallocate_bucketsEv>
    467a:	48 8b 45 f8          	mov    -0x8(%rbp),%rax
    467e:	48 89 c7             	mov    %rax,%rdi
    4681:	e8 b4 ff ff ff       	callq  463a <_ZNSt8__detail16_Hashtable_allocISaINS_10_Hash_nodeISt4pairIKNSt7__cxx1112basic_stringIcSt11char_traitsIcESaIcEEEmELb1EEEEED1Ev>
    4686:	90                   	nop
    4687:	c9                   	leaveq 
    4688:	c3                   	retq   

0000000000004689 <_Z7getKey1IPKcENSt7__cxx1112basic_stringIcSt11char_traitsIcESaIcEEET_>:
    4689:	55                   	push   %rbp
    468a:	48 89 e5             	mov    %rsp,%rbp
    468d:	48 83 ec 20          	sub    $0x20,%rsp
    4691:	48 89 7d e8          	mov    %rdi,-0x18(%rbp)
    4695:	48 89 75 e0          	mov    %rsi,-0x20(%rbp)
    4699:	64 48 8b 04 25 28 00 	mov    %fs:0x28,%rax
    46a0:	00 00 
    46a2:	48 89 45 f8          	mov    %rax,-0x8(%rbp)
    46a6:	31 c0                	xor    %eax,%eax
    46a8:	48 8d 45 e0          	lea    -0x20(%rbp),%rax
    46ac:	48 89 c6             	mov    %rax,%rsi
    46af:	48 8d 3d aa ba 20 00 	lea    0x20baaa(%rip),%rdi        # 210160 <_Z5type1B5cxx11>
    46b6:	e8 97 06 00 00       	callq  4d52 <_ZNSt13unordered_mapIPKcNSt7__cxx1112basic_stringIcSt11char_traitsIcESaIcEEESt4hashIS1_ESt8equal_toIS1_ESaISt4pairIKS1_S7_EEE4findERSD_>
    46bb:	48 89 45 f0          	mov    %rax,-0x10(%rbp)
    46bf:	48 8d 45 f0          	lea    -0x10(%rbp),%rax
    46c3:	48 89 c7             	mov    %rax,%rdi
    46c6:	e8 ad 06 00 00       	callq  4d78 <_ZNKSt8__detail14_Node_iteratorISt4pairIKPKcNSt7__cxx1112basic_stringIcSt11char_traitsIcESaIcEEEELb0ELb0EEptEv>
    46cb:	48 8d 50 08          	lea    0x8(%rax),%rdx
    46cf:	48 8b 45 e8          	mov    -0x18(%rbp),%rax
    46d3:	48 89 d6             	mov    %rdx,%rsi
    46d6:	48 89 c7             	mov    %rax,%rdi
    46d9:	e8 a2 cd ff ff       	callq  1480 <_ZNSt7__cxx1112basic_stringIcSt11char_traitsIcESaIcEEC1ERKS4_@plt>
    46de:	48 8b 45 e8          	mov    -0x18(%rbp),%rax
    46e2:	48 8b 4d f8          	mov    -0x8(%rbp),%rcx
    46e6:	64 48 33 0c 25 28 00 	xor    %fs:0x28,%rcx
    46ed:	00 00 
    46ef:	74 05                	je     46f6 <_Z7getKey1IPKcENSt7__cxx1112basic_stringIcSt11char_traitsIcESaIcEEET_+0x6d>
    46f1:	e8 6a ce ff ff       	callq  1560 <__stack_chk_fail@plt>
    46f6:	c9                   	leaveq 
    46f7:	c3                   	retq   

00000000000046f8 <_ZNSt13unordered_mapINSt7__cxx1112basic_stringIcSt11char_traitsIcESaIcEEEmSt4hashIS5_ESt8equal_toIS5_ESaISt4pairIKS5_mEEE5beginEv>:
    46f8:	55                   	push   %rbp
    46f9:	48 89 e5             	mov    %rsp,%rbp
    46fc:	48 83 ec 10          	sub    $0x10,%rsp
    4700:	48 89 7d f8          	mov    %rdi,-0x8(%rbp)
    4704:	48 8b 45 f8          	mov    -0x8(%rbp),%rax
    4708:	48 89 c7             	mov    %rax,%rdi
    470b:	e8 86 06 00 00       	callq  4d96 <_ZNSt10_HashtableINSt7__cxx1112basic_stringIcSt11char_traitsIcESaIcEEESt4pairIKS5_mESaIS8_ENSt8__detail10_Select1stESt8equal_toIS5_ESt4hashIS5_ENSA_18_Mod_range_hashingENSA_20_Default_ranged_hashENSA_20_Prime_rehash_policyENSA_17_Hashtable_traitsILb1ELb0ELb1EEEE5beginEv>
    4710:	c9                   	leaveq 
    4711:	c3                   	retq   

0000000000004712 <_ZNSt13unordered_mapINSt7__cxx1112basic_stringIcSt11char_traitsIcESaIcEEEmSt4hashIS5_ESt8equal_toIS5_ESaISt4pairIKS5_mEEE3endEv>:
    4712:	55                   	push   %rbp
    4713:	48 89 e5             	mov    %rsp,%rbp
    4716:	48 83 ec 10          	sub    $0x10,%rsp
    471a:	48 89 7d f8          	mov    %rdi,-0x8(%rbp)
    471e:	48 8b 45 f8          	mov    -0x8(%rbp),%rax
    4722:	48 89 c7             	mov    %rax,%rdi
    4725:	e8 c0 06 00 00       	callq  4dea <_ZNSt10_HashtableINSt7__cxx1112basic_stringIcSt11char_traitsIcESaIcEEESt4pairIKS5_mESaIS8_ENSt8__detail10_Select1stESt8equal_toIS5_ESt4hashIS5_ENSA_18_Mod_range_hashingENSA_20_Default_ranged_hashENSA_20_Prime_rehash_policyENSA_17_Hashtable_traitsILb1ELb0ELb1EEEE3endEv>
    472a:	c9                   	leaveq 
    472b:	c3                   	retq   

000000000000472c <_ZNSt8__detailneISt4pairIKNSt7__cxx1112basic_stringIcSt11char_traitsIcESaIcEEEmELb1EEEbRKNS_19_Node_iterator_baseIT_XT0_EEESE_>:
    472c:	55                   	push   %rbp
    472d:	48 89 e5             	mov    %rsp,%rbp
    4730:	48 89 7d f8          	mov    %rdi,-0x8(%rbp)
    4734:	48 89 75 f0          	mov    %rsi,-0x10(%rbp)
    4738:	48 8b 45 f8          	mov    -0x8(%rbp),%rax
    473c:	48 8b 10             	mov    (%rax),%rdx
    473f:	48 8b 45 f0          	mov    -0x10(%rbp),%rax
    4743:	48 8b 00             	mov    (%rax),%rax
    4746:	48 39 c2             	cmp    %rax,%rdx
    4749:	0f 95 c0             	setne  %al
    474c:	5d                   	pop    %rbp
    474d:	c3                   	retq   

000000000000474e <_ZNSt8__detail14_Node_iteratorISt4pairIKNSt7__cxx1112basic_stringIcSt11char_traitsIcESaIcEEEmELb0ELb1EEppEi>:
    474e:	55                   	push   %rbp
    474f:	48 89 e5             	mov    %rsp,%rbp
    4752:	48 83 ec 20          	sub    $0x20,%rsp
    4756:	48 89 7d e8          	mov    %rdi,-0x18(%rbp)
    475a:	89 75 e4             	mov    %esi,-0x1c(%rbp)
    475d:	64 48 8b 04 25 28 00 	mov    %fs:0x28,%rax
    4764:	00 00 
    4766:	48 89 45 f8          	mov    %rax,-0x8(%rbp)
    476a:	31 c0                	xor    %eax,%eax
    476c:	48 8b 45 e8          	mov    -0x18(%rbp),%rax
    4770:	48 8b 00             	mov    (%rax),%rax
    4773:	48 89 45 f0          	mov    %rax,-0x10(%rbp)
    4777:	48 8b 45 e8          	mov    -0x18(%rbp),%rax
    477b:	48 89 c7             	mov    %rax,%rdi
    477e:	e8 ad 06 00 00       	callq  4e30 <_ZNSt8__detail19_Node_iterator_baseISt4pairIKNSt7__cxx1112basic_stringIcSt11char_traitsIcESaIcEEEmELb1EE7_M_incrEv>
    4783:	48 8b 45 f0          	mov    -0x10(%rbp),%rax
    4787:	48 8b 55 f8          	mov    -0x8(%rbp),%rdx
    478b:	64 48 33 14 25 28 00 	xor    %fs:0x28,%rdx
    4792:	00 00 
    4794:	74 05                	je     479b <_ZNSt8__detail14_Node_iteratorISt4pairIKNSt7__cxx1112basic_stringIcSt11char_traitsIcESaIcEEEmELb0ELb1EEppEi+0x4d>
    4796:	e8 c5 cd ff ff       	callq  1560 <__stack_chk_fail@plt>
    479b:	c9                   	leaveq 
    479c:	c3                   	retq   
    479d:	90                   	nop

000000000000479e <_ZNKSt8__detail14_Node_iteratorISt4pairIKNSt7__cxx1112basic_stringIcSt11char_traitsIcESaIcEEEmELb0ELb1EEptEv>:
    479e:	55                   	push   %rbp
    479f:	48 89 e5             	mov    %rsp,%rbp
    47a2:	48 83 ec 10          	sub    $0x10,%rsp
    47a6:	48 89 7d f8          	mov    %rdi,-0x8(%rbp)
    47aa:	48 8b 45 f8          	mov    -0x8(%rbp),%rax
    47ae:	48 8b 00             	mov    (%rax),%rax
    47b1:	48 89 c7             	mov    %rax,%rdi
    47b4:	e8 9f 06 00 00       	callq  4e58 <_ZNSt8__detail21_Hash_node_value_baseISt4pairIKNSt7__cxx1112basic_stringIcSt11char_traitsIcESaIcEEEmEE9_M_valptrEv>
    47b9:	c9                   	leaveq 
    47ba:	c3                   	retq   

00000000000047bb <_ZSt7forwardIPKcEOT_RNSt16remove_referenceIS2_E4typeE>:
    47bb:	55                   	push   %rbp
    47bc:	48 89 e5             	mov    %rsp,%rbp
    47bf:	48 89 7d f8          	mov    %rdi,-0x8(%rbp)
    47c3:	48 8b 45 f8          	mov    -0x8(%rbp),%rax
    47c7:	5d                   	pop    %rbp
    47c8:	c3                   	retq   
    47c9:	90                   	nop

00000000000047ca <_ZN9__gnu_cxx13new_allocatorISt4pairIKPKcNSt7__cxx1112basic_stringIcSt11char_traitsIcESaIcEEEEEC1Ev>:
    47ca:	55                   	push   %rbp
    47cb:	48 89 e5             	mov    %rsp,%rbp
    47ce:	48 89 7d f8          	mov    %rdi,-0x8(%rbp)
    47d2:	90                   	nop
    47d3:	5d                   	pop    %rbp
    47d4:	c3                   	retq   
    47d5:	90                   	nop

00000000000047d6 <_ZN9__gnu_cxx13new_allocatorISt4pairIKPKcNSt7__cxx1112basic_stringIcSt11char_traitsIcESaIcEEEEED1Ev>:
    47d6:	55                   	push   %rbp
    47d7:	48 89 e5             	mov    %rsp,%rbp
    47da:	48 89 7d f8          	mov    %rdi,-0x8(%rbp)
    47de:	90                   	nop
    47df:	5d                   	pop    %rbp
    47e0:	c3                   	retq   
    47e1:	90                   	nop

00000000000047e2 <_ZNKSt16initializer_listISt4pairIKPKcNSt7__cxx1112basic_stringIcSt11char_traitsIcESaIcEEEEE5beginEv>:
    47e2:	55                   	push   %rbp
    47e3:	48 89 e5             	mov    %rsp,%rbp
    47e6:	48 89 7d f8          	mov    %rdi,-0x8(%rbp)
    47ea:	48 8b 45 f8          	mov    -0x8(%rbp),%rax
    47ee:	48 8b 00             	mov    (%rax),%rax
    47f1:	5d                   	pop    %rbp
    47f2:	c3                   	retq   
    47f3:	90                   	nop

00000000000047f4 <_ZNKSt16initializer_listISt4pairIKPKcNSt7__cxx1112basic_stringIcSt11char_traitsIcESaIcEEEEE3endEv>:
    47f4:	55                   	push   %rbp
    47f5:	48 89 e5             	mov    %rsp,%rbp
    47f8:	53                   	push   %rbx
    47f9:	48 83 ec 18          	sub    $0x18,%rsp
    47fd:	48 89 7d e8          	mov    %rdi,-0x18(%rbp)
    4801:	48 8b 45 e8          	mov    -0x18(%rbp),%rax
    4805:	48 89 c7             	mov    %rax,%rdi
    4808:	e8 d5 ff ff ff       	callq  47e2 <_ZNKSt16initializer_listISt4pairIKPKcNSt7__cxx1112basic_stringIcSt11char_traitsIcESaIcEEEEE5beginEv>
    480d:	48 89 c3             	mov    %rax,%rbx
    4810:	48 8b 45 e8          	mov    -0x18(%rbp),%rax
    4814:	48 89 c7             	mov    %rax,%rdi
    4817:	e8 5a 06 00 00       	callq  4e76 <_ZNKSt16initializer_listISt4pairIKPKcNSt7__cxx1112basic_stringIcSt11char_traitsIcESaIcEEEEE4sizeEv>
    481c:	48 89 c2             	mov    %rax,%rdx
    481f:	48 89 d0             	mov    %rdx,%rax
    4822:	48 c1 e0 02          	shl    $0x2,%rax
    4826:	48 01 d0             	add    %rdx,%rax
    4829:	48 c1 e0 03          	shl    $0x3,%rax
    482d:	48 01 d8             	add    %rbx,%rax
    4830:	48 83 c4 18          	add    $0x18,%rsp
    4834:	5b                   	pop    %rbx
    4835:	5d                   	pop    %rbp
    4836:	c3                   	retq   
    4837:	90                   	nop

0000000000004838 <_ZNSt10_HashtableIPKcSt4pairIKS1_NSt7__cxx1112basic_stringIcSt11char_traitsIcESaIcEEEESaISA_ENSt8__detail10_Select1stESt8equal_toIS1_ESt4hashIS1_ENSC_18_Mod_range_hashingENSC_20_Default_ranged_hashENSC_20_Prime_rehash_policyENSC_17_Hashtable_traitsILb0ELb0ELb1EEEEC1ESt16initializer_listISA_EmRKSH_RKSF_RKSB_>:
    4838:	55                   	push   %rbp
    4839:	48 89 e5             	mov    %rsp,%rbp
    483c:	53                   	push   %rbx
    483d:	48 83 ec 58          	sub    $0x58,%rsp
    4841:	48 89 7d d8          	mov    %rdi,-0x28(%rbp)
    4845:	48 89 f0             	mov    %rsi,%rax
    4848:	48 89 d6             	mov    %rdx,%rsi
    484b:	48 89 f2             	mov    %rsi,%rdx
    484e:	48 89 45 c0          	mov    %rax,-0x40(%rbp)
    4852:	48 89 55 c8          	mov    %rdx,-0x38(%rbp)
    4856:	48 89 4d d0          	mov    %rcx,-0x30(%rbp)
    485a:	4c 89 45 b8          	mov    %r8,-0x48(%rbp)
    485e:	4c 89 4d b0          	mov    %r9,-0x50(%rbp)
    4862:	48 8b 45 10          	mov    0x10(%rbp),%rax
    4866:	48 89 45 a8          	mov    %rax,-0x58(%rbp)
    486a:	64 48 8b 04 25 28 00 	mov    %fs:0x28,%rax
    4871:	00 00 
    4873:	48 89 45 e8          	mov    %rax,-0x18(%rbp)
    4877:	31 c0                	xor    %eax,%eax
    4879:	48 8d 45 c0          	lea    -0x40(%rbp),%rax
    487d:	48 89 c7             	mov    %rax,%rdi
    4880:	e8 6f ff ff ff       	callq  47f4 <_ZNKSt16initializer_listISt4pairIKPKcNSt7__cxx1112basic_stringIcSt11char_traitsIcESaIcEEEEE3endEv>
    4885:	48 89 c3             	mov    %rax,%rbx
    4888:	48 8d 45 c0          	lea    -0x40(%rbp),%rax
    488c:	48 89 c7             	mov    %rax,%rdi
    488f:	e8 4e ff ff ff       	callq  47e2 <_ZNKSt16initializer_listISt4pairIKPKcNSt7__cxx1112basic_stringIcSt11char_traitsIcESaIcEEEEE5beginEv>
    4894:	49 89 c2             	mov    %rax,%r10
    4897:	48 8d 7d e5          	lea    -0x1b(%rbp),%rdi
    489b:	48 8b 75 b8          	mov    -0x48(%rbp),%rsi
    489f:	48 8b 55 d0          	mov    -0x30(%rbp),%rdx
    48a3:	48 8b 45 d8          	mov    -0x28(%rbp),%rax
    48a7:	ff 75 a8             	pushq  -0x58(%rbp)
    48aa:	48 8d 4d e7          	lea    -0x19(%rbp),%rcx
    48ae:	51                   	push   %rcx
    48af:	ff 75 b0             	pushq  -0x50(%rbp)
    48b2:	48 8d 4d e6          	lea    -0x1a(%rbp),%rcx
    48b6:	51                   	push   %rcx
    48b7:	49 89 f9             	mov    %rdi,%r9
    48ba:	49 89 f0             	mov    %rsi,%r8
    48bd:	48 89 d1             	mov    %rdx,%rcx
    48c0:	48 89 da             	mov    %rbx,%rdx
    48c3:	4c 89 d6             	mov    %r10,%rsi
    48c6:	48 89 c7             	mov    %rax,%rdi
    48c9:	e8 ba 05 00 00       	callq  4e88 <_ZNSt10_HashtableIPKcSt4pairIKS1_NSt7__cxx1112basic_stringIcSt11char_traitsIcESaIcEEEESaISA_ENSt8__detail10_Select1stESt8equal_toIS1_ESt4hashIS1_ENSC_18_Mod_range_hashingENSC_20_Default_ranged_hashENSC_20_Prime_rehash_policyENSC_17_Hashtable_traitsILb0ELb0ELb1EEEEC1IPKSA_EET_SR_mRKSH_RKSI_RKSJ_RKSF_RKSD_RKSB_>
    48ce:	48 83 c4 20          	add    $0x20,%rsp
    48d2:	90                   	nop
    48d3:	48 8b 45 e8          	mov    -0x18(%rbp),%rax
    48d7:	64 48 33 04 25 28 00 	xor    %fs:0x28,%rax
    48de:	00 00 
    48e0:	74 05                	je     48e7 <_ZNSt10_HashtableIPKcSt4pairIKS1_NSt7__cxx1112basic_stringIcSt11char_traitsIcESaIcEEEESaISA_ENSt8__detail10_Select1stESt8equal_toIS1_ESt4hashIS1_ENSC_18_Mod_range_hashingENSC_20_Default_ranged_hashENSC_20_Prime_rehash_policyENSC_17_Hashtable_traitsILb0ELb0ELb1EEEEC1ESt16initializer_listISA_EmRKSH_RKSF_RKSB_+0xaf>
    48e2:	e8 79 cc ff ff       	callq  1560 <__stack_chk_fail@plt>
    48e7:	48 8b 5d f8          	mov    -0x8(%rbp),%rbx
    48eb:	c9                   	leaveq 
    48ec:	c3                   	retq   
    48ed:	90                   	nop

00000000000048ee <_ZNSaINSt8__detail10_Hash_nodeISt4pairIKPKcNSt7__cxx1112basic_stringIcSt11char_traitsIcESaIcEEEELb0EEEED1Ev>:
    48ee:	55                   	push   %rbp
    48ef:	48 89 e5             	mov    %rsp,%rbp
    48f2:	48 83 ec 10          	sub    $0x10,%rsp
    48f6:	48 89 7d f8          	mov    %rdi,-0x8(%rbp)
    48fa:	48 8b 45 f8          	mov    -0x8(%rbp),%rax
    48fe:	48 89 c7             	mov    %rax,%rdi
    4901:	e8 f2 06 00 00       	callq  4ff8 <_ZN9__gnu_cxx13new_allocatorINSt8__detail10_Hash_nodeISt4pairIKPKcNSt7__cxx1112basic_stringIcSt11char_traitsIcESaIcEEEELb0EEEED1Ev>
    4906:	90                   	nop
    4907:	c9                   	leaveq 
    4908:	c3                   	retq   
    4909:	90                   	nop

000000000000490a <_ZNSt10_HashtableIPKcSt4pairIKS1_NSt7__cxx1112basic_stringIcSt11char_traitsIcESaIcEEEESaISA_ENSt8__detail10_Select1stESt8equal_toIS1_ESt4hashIS1_ENSC_18_Mod_range_hashingENSC_20_Default_ranged_hashENSC_20_Prime_rehash_policyENSC_17_Hashtable_traitsILb0ELb0ELb1EEEE5clearEv>:
    490a:	55                   	push   %rbp
    490b:	48 89 e5             	mov    %rsp,%rbp
    490e:	48 83 ec 10          	sub    $0x10,%rsp
    4912:	48 89 7d f8          	mov    %rdi,-0x8(%rbp)
    4916:	48 8b 45 f8          	mov    -0x8(%rbp),%rax
    491a:	48 89 c7             	mov    %rax,%rdi
    491d:	e8 e2 06 00 00       	callq  5004 <_ZNKSt10_HashtableIPKcSt4pairIKS1_NSt7__cxx1112basic_stringIcSt11char_traitsIcESaIcEEEESaISA_ENSt8__detail10_Select1stESt8equal_toIS1_ESt4hashIS1_ENSC_18_Mod_range_hashingENSC_20_Default_ranged_hashENSC_20_Prime_rehash_policyENSC_17_Hashtable_traitsILb0ELb0ELb1EEEE8_M_beginEv>
    4922:	48 89 c2             	mov    %rax,%rdx
    4925:	48 8b 45 f8          	mov    -0x8(%rbp),%rax
    4929:	48 89 d6             	mov    %rdx,%rsi
    492c:	48 89 c7             	mov    %rax,%rdi
    492f:	e8 e2 06 00 00       	callq  5016 <_ZNSt8__detail16_Hashtable_allocISaINS_10_Hash_nodeISt4pairIKPKcNSt7__cxx1112basic_stringIcSt11char_traitsIcESaIcEEEELb0EEEEE19_M_deallocate_nodesEPSD_>
    4934:	48 8b 45 f8          	mov    -0x8(%rbp),%rax
    4938:	48 8b 40 08          	mov    0x8(%rax),%rax
    493c:	48 8d 14 c5 00 00 00 	lea    0x0(,%rax,8),%rdx
    4943:	00 
    4944:	48 8b 45 f8          	mov    -0x8(%rbp),%rax
    4948:	48 8b 00             	mov    (%rax),%rax
    494b:	be 00 00 00 00       	mov    $0x0,%esi
    4950:	48 89 c7             	mov    %rax,%rdi
    4953:	e8 48 cb ff ff       	callq  14a0 <memset@plt>
    4958:	48 8b 45 f8          	mov    -0x8(%rbp),%rax
    495c:	48 c7 40 18 00 00 00 	movq   $0x0,0x18(%rax)
    4963:	00 
    4964:	48 8b 45 f8          	mov    -0x8(%rbp),%rax
    4968:	48 c7 40 10 00 00 00 	movq   $0x0,0x10(%rax)
    496f:	00 
    4970:	90                   	nop
    4971:	c9                   	leaveq 
    4972:	c3                   	retq   
    4973:	90                   	nop

0000000000004974 <_ZNSt10_HashtableIPKcSt4pairIKS1_NSt7__cxx1112basic_stringIcSt11char_traitsIcESaIcEEEESaISA_ENSt8__detail10_Select1stESt8equal_toIS1_ESt4hashIS1_ENSC_18_Mod_range_hashingENSC_20_Default_ranged_hashENSC_20_Prime_rehash_policyENSC_17_Hashtable_traitsILb0ELb0ELb1EEEE21_M_deallocate_bucketsEv>:
    4974:	55                   	push   %rbp
    4975:	48 89 e5             	mov    %rsp,%rbp
    4978:	48 83 ec 10          	sub    $0x10,%rsp
    497c:	48 89 7d f8          	mov    %rdi,-0x8(%rbp)
    4980:	48 8b 45 f8          	mov    -0x8(%rbp),%rax
    4984:	48 8b 50 08          	mov    0x8(%rax),%rdx
    4988:	48 8b 45 f8          	mov    -0x8(%rbp),%rax
    498c:	48 8b 08             	mov    (%rax),%rcx
    498f:	48 8b 45 f8          	mov    -0x8(%rbp),%rax
    4993:	48 89 ce             	mov    %rcx,%rsi
    4996:	48 89 c7             	mov    %rax,%rdi
    4999:	e8 c0 06 00 00       	callq  505e <_ZNSt10_HashtableIPKcSt4pairIKS1_NSt7__cxx1112basic_stringIcSt11char_traitsIcESaIcEEEESaISA_ENSt8__detail10_Select1stESt8equal_toIS1_ESt4hashIS1_ENSC_18_Mod_range_hashingENSC_20_Default_ranged_hashENSC_20_Prime_rehash_policyENSC_17_Hashtable_traitsILb0ELb0ELb1EEEE21_M_deallocate_bucketsEPPNSC_15_Hash_node_baseEm>
    499e:	90                   	nop
    499f:	c9                   	leaveq 
    49a0:	c3                   	retq   
    49a1:	90                   	nop

00000000000049a2 <_ZN9__gnu_cxx13new_allocatorISt4pairIKiNSt7__cxx1112basic_stringIcSt11char_traitsIcESaIcEEEEEC1Ev>:
    49a2:	55                   	push   %rbp
    49a3:	48 89 e5             	mov    %rsp,%rbp
    49a6:	48 89 7d f8          	mov    %rdi,-0x8(%rbp)
    49aa:	90                   	nop
    49ab:	5d                   	pop    %rbp
    49ac:	c3                   	retq   
    49ad:	90                   	nop

00000000000049ae <_ZN9__gnu_cxx13new_allocatorISt4pairIKiNSt7__cxx1112basic_stringIcSt11char_traitsIcESaIcEEEEED1Ev>:
    49ae:	55                   	push   %rbp
    49af:	48 89 e5             	mov    %rsp,%rbp
    49b2:	48 89 7d f8          	mov    %rdi,-0x8(%rbp)
    49b6:	90                   	nop
    49b7:	5d                   	pop    %rbp
    49b8:	c3                   	retq   
    49b9:	90                   	nop

00000000000049ba <_ZNKSt16initializer_listISt4pairIKiNSt7__cxx1112basic_stringIcSt11char_traitsIcESaIcEEEEE5beginEv>:
    49ba:	55                   	push   %rbp
    49bb:	48 89 e5             	mov    %rsp,%rbp
    49be:	48 89 7d f8          	mov    %rdi,-0x8(%rbp)
    49c2:	48 8b 45 f8          	mov    -0x8(%rbp),%rax
    49c6:	48 8b 00             	mov    (%rax),%rax
    49c9:	5d                   	pop    %rbp
    49ca:	c3                   	retq   
    49cb:	90                   	nop

00000000000049cc <_ZNKSt16initializer_listISt4pairIKiNSt7__cxx1112basic_stringIcSt11char_traitsIcESaIcEEEEE3endEv>:
    49cc:	55                   	push   %rbp
    49cd:	48 89 e5             	mov    %rsp,%rbp
    49d0:	53                   	push   %rbx
    49d1:	48 83 ec 18          	sub    $0x18,%rsp
    49d5:	48 89 7d e8          	mov    %rdi,-0x18(%rbp)
    49d9:	48 8b 45 e8          	mov    -0x18(%rbp),%rax
    49dd:	48 89 c7             	mov    %rax,%rdi
    49e0:	e8 d5 ff ff ff       	callq  49ba <_ZNKSt16initializer_listISt4pairIKiNSt7__cxx1112basic_stringIcSt11char_traitsIcESaIcEEEEE5beginEv>
    49e5:	48 89 c3             	mov    %rax,%rbx
    49e8:	48 8b 45 e8          	mov    -0x18(%rbp),%rax
    49ec:	48 89 c7             	mov    %rax,%rdi
    49ef:	e8 b2 06 00 00       	callq  50a6 <_ZNKSt16initializer_listISt4pairIKiNSt7__cxx1112basic_stringIcSt11char_traitsIcESaIcEEEEE4sizeEv>
    49f4:	48 89 c2             	mov    %rax,%rdx
    49f7:	48 89 d0             	mov    %rdx,%rax
    49fa:	48 c1 e0 02          	shl    $0x2,%rax
    49fe:	48 01 d0             	add    %rdx,%rax
    4a01:	48 c1 e0 03          	shl    $0x3,%rax
    4a05:	48 01 d8             	add    %rbx,%rax
    4a08:	48 83 c4 18          	add    $0x18,%rsp
    4a0c:	5b                   	pop    %rbx
    4a0d:	5d                   	pop    %rbp
    4a0e:	c3                   	retq   
    4a0f:	90                   	nop

0000000000004a10 <_ZNSt10_HashtableIiSt4pairIKiNSt7__cxx1112basic_stringIcSt11char_traitsIcESaIcEEEESaIS8_ENSt8__detail10_Select1stESt8equal_toIiESt4hashIiENSA_18_Mod_range_hashingENSA_20_Default_ranged_hashENSA_20_Prime_rehash_policyENSA_17_Hashtable_traitsILb0ELb0ELb1EEEEC1ESt16initializer_listIS8_EmRKSF_RKSD_RKS9_>:
    4a10:	55                   	push   %rbp
    4a11:	48 89 e5             	mov    %rsp,%rbp
    4a14:	53                   	push   %rbx
    4a15:	48 83 ec 58          	sub    $0x58,%rsp
    4a19:	48 89 7d d8          	mov    %rdi,-0x28(%rbp)
    4a1d:	48 89 f0             	mov    %rsi,%rax
    4a20:	48 89 d6             	mov    %rdx,%rsi
    4a23:	48 89 f2             	mov    %rsi,%rdx
    4a26:	48 89 45 c0          	mov    %rax,-0x40(%rbp)
    4a2a:	48 89 55 c8          	mov    %rdx,-0x38(%rbp)
    4a2e:	48 89 4d d0          	mov    %rcx,-0x30(%rbp)
    4a32:	4c 89 45 b8          	mov    %r8,-0x48(%rbp)
    4a36:	4c 89 4d b0          	mov    %r9,-0x50(%rbp)
    4a3a:	48 8b 45 10          	mov    0x10(%rbp),%rax
    4a3e:	48 89 45 a8          	mov    %rax,-0x58(%rbp)
    4a42:	64 48 8b 04 25 28 00 	mov    %fs:0x28,%rax
    4a49:	00 00 
    4a4b:	48 89 45 e8          	mov    %rax,-0x18(%rbp)
    4a4f:	31 c0                	xor    %eax,%eax
    4a51:	48 8d 45 c0          	lea    -0x40(%rbp),%rax
    4a55:	48 89 c7             	mov    %rax,%rdi
    4a58:	e8 6f ff ff ff       	callq  49cc <_ZNKSt16initializer_listISt4pairIKiNSt7__cxx1112basic_stringIcSt11char_traitsIcESaIcEEEEE3endEv>
    4a5d:	48 89 c3             	mov    %rax,%rbx
    4a60:	48 8d 45 c0          	lea    -0x40(%rbp),%rax
    4a64:	48 89 c7             	mov    %rax,%rdi
    4a67:	e8 4e ff ff ff       	callq  49ba <_ZNKSt16initializer_listISt4pairIKiNSt7__cxx1112basic_stringIcSt11char_traitsIcESaIcEEEEE5beginEv>
    4a6c:	49 89 c2             	mov    %rax,%r10
    4a6f:	48 8d 7d e5          	lea    -0x1b(%rbp),%rdi
    4a73:	48 8b 75 b8          	mov    -0x48(%rbp),%rsi
    4a77:	48 8b 55 d0          	mov    -0x30(%rbp),%rdx
    4a7b:	48 8b 45 d8          	mov    -0x28(%rbp),%rax
    4a7f:	ff 75 a8             	pushq  -0x58(%rbp)
    4a82:	48 8d 4d e7          	lea    -0x19(%rbp),%rcx
    4a86:	51                   	push   %rcx
    4a87:	ff 75 b0             	pushq  -0x50(%rbp)
    4a8a:	48 8d 4d e6          	lea    -0x1a(%rbp),%rcx
    4a8e:	51                   	push   %rcx
    4a8f:	49 89 f9             	mov    %rdi,%r9
    4a92:	49 89 f0             	mov    %rsi,%r8
    4a95:	48 89 d1             	mov    %rdx,%rcx
    4a98:	48 89 da             	mov    %rbx,%rdx
    4a9b:	4c 89 d6             	mov    %r10,%rsi
    4a9e:	48 89 c7             	mov    %rax,%rdi
    4aa1:	e8 12 06 00 00       	callq  50b8 <_ZNSt10_HashtableIiSt4pairIKiNSt7__cxx1112basic_stringIcSt11char_traitsIcESaIcEEEESaIS8_ENSt8__detail10_Select1stESt8equal_toIiESt4hashIiENSA_18_Mod_range_hashingENSA_20_Default_ranged_hashENSA_20_Prime_rehash_policyENSA_17_Hashtable_traitsILb0ELb0ELb1EEEEC1IPKS8_EET_SP_mRKSF_RKSG_RKSH_RKSD_RKSB_RKS9_>
    4aa6:	48 83 c4 20          	add    $0x20,%rsp
    4aaa:	90                   	nop
    4aab:	48 8b 45 e8          	mov    -0x18(%rbp),%rax
    4aaf:	64 48 33 04 25 28 00 	xor    %fs:0x28,%rax
    4ab6:	00 00 
    4ab8:	74 05                	je     4abf <_ZNSt10_HashtableIiSt4pairIKiNSt7__cxx1112basic_stringIcSt11char_traitsIcESaIcEEEESaIS8_ENSt8__detail10_Select1stESt8equal_toIiESt4hashIiENSA_18_Mod_range_hashingENSA_20_Default_ranged_hashENSA_20_Prime_rehash_policyENSA_17_Hashtable_traitsILb0ELb0ELb1EEEEC1ESt16initializer_listIS8_EmRKSF_RKSD_RKS9_+0xaf>
    4aba:	e8 a1 ca ff ff       	callq  1560 <__stack_chk_fail@plt>
    4abf:	48 8b 5d f8          	mov    -0x8(%rbp),%rbx
    4ac3:	c9                   	leaveq 
    4ac4:	c3                   	retq   
    4ac5:	90                   	nop

0000000000004ac6 <_ZNSaINSt8__detail10_Hash_nodeISt4pairIKiNSt7__cxx1112basic_stringIcSt11char_traitsIcESaIcEEEELb0EEEED1Ev>:
    4ac6:	55                   	push   %rbp
    4ac7:	48 89 e5             	mov    %rsp,%rbp
    4aca:	48 83 ec 10          	sub    $0x10,%rsp
    4ace:	48 89 7d f8          	mov    %rdi,-0x8(%rbp)
    4ad2:	48 8b 45 f8          	mov    -0x8(%rbp),%rax
    4ad6:	48 89 c7             	mov    %rax,%rdi
    4ad9:	e8 4a 07 00 00       	callq  5228 <_ZN9__gnu_cxx13new_allocatorINSt8__detail10_Hash_nodeISt4pairIKiNSt7__cxx1112basic_stringIcSt11char_traitsIcESaIcEEEELb0EEEED1Ev>
    4ade:	90                   	nop
    4adf:	c9                   	leaveq 
    4ae0:	c3                   	retq   
    4ae1:	90                   	nop

0000000000004ae2 <_ZNSt10_HashtableIiSt4pairIKiNSt7__cxx1112basic_stringIcSt11char_traitsIcESaIcEEEESaIS8_ENSt8__detail10_Select1stESt8equal_toIiESt4hashIiENSA_18_Mod_range_hashingENSA_20_Default_ranged_hashENSA_20_Prime_rehash_policyENSA_17_Hashtable_traitsILb0ELb0ELb1EEEE5clearEv>:
    4ae2:	55                   	push   %rbp
    4ae3:	48 89 e5             	mov    %rsp,%rbp
    4ae6:	48 83 ec 10          	sub    $0x10,%rsp
    4aea:	48 89 7d f8          	mov    %rdi,-0x8(%rbp)
    4aee:	48 8b 45 f8          	mov    -0x8(%rbp),%rax
    4af2:	48 89 c7             	mov    %rax,%rdi
    4af5:	e8 3a 07 00 00       	callq  5234 <_ZNKSt10_HashtableIiSt4pairIKiNSt7__cxx1112basic_stringIcSt11char_traitsIcESaIcEEEESaIS8_ENSt8__detail10_Select1stESt8equal_toIiESt4hashIiENSA_18_Mod_range_hashingENSA_20_Default_ranged_hashENSA_20_Prime_rehash_policyENSA_17_Hashtable_traitsILb0ELb0ELb1EEEE8_M_beginEv>
    4afa:	48 89 c2             	mov    %rax,%rdx
    4afd:	48 8b 45 f8          	mov    -0x8(%rbp),%rax
    4b01:	48 89 d6             	mov    %rdx,%rsi
    4b04:	48 89 c7             	mov    %rax,%rdi
    4b07:	e8 3a 07 00 00       	callq  5246 <_ZNSt8__detail16_Hashtable_allocISaINS_10_Hash_nodeISt4pairIKiNSt7__cxx1112basic_stringIcSt11char_traitsIcESaIcEEEELb0EEEEE19_M_deallocate_nodesEPSB_>
    4b0c:	48 8b 45 f8          	mov    -0x8(%rbp),%rax
    4b10:	48 8b 40 08          	mov    0x8(%rax),%rax
    4b14:	48 8d 14 c5 00 00 00 	lea    0x0(,%rax,8),%rdx
    4b1b:	00 
    4b1c:	48 8b 45 f8          	mov    -0x8(%rbp),%rax
    4b20:	48 8b 00             	mov    (%rax),%rax
    4b23:	be 00 00 00 00       	mov    $0x0,%esi
    4b28:	48 89 c7             	mov    %rax,%rdi
    4b2b:	e8 70 c9 ff ff       	callq  14a0 <memset@plt>
    4b30:	48 8b 45 f8          	mov    -0x8(%rbp),%rax
    4b34:	48 c7 40 18 00 00 00 	movq   $0x0,0x18(%rax)
    4b3b:	00 
    4b3c:	48 8b 45 f8          	mov    -0x8(%rbp),%rax
    4b40:	48 c7 40 10 00 00 00 	movq   $0x0,0x10(%rax)
    4b47:	00 
    4b48:	90                   	nop
    4b49:	c9                   	leaveq 
    4b4a:	c3                   	retq   
    4b4b:	90                   	nop

0000000000004b4c <_ZNSt10_HashtableIiSt4pairIKiNSt7__cxx1112basic_stringIcSt11char_traitsIcESaIcEEEESaIS8_ENSt8__detail10_Select1stESt8equal_toIiESt4hashIiENSA_18_Mod_range_hashingENSA_20_Default_ranged_hashENSA_20_Prime_rehash_policyENSA_17_Hashtable_traitsILb0ELb0ELb1EEEE21_M_deallocate_bucketsEv>:
    4b4c:	55                   	push   %rbp
    4b4d:	48 89 e5             	mov    %rsp,%rbp
    4b50:	48 83 ec 10          	sub    $0x10,%rsp
    4b54:	48 89 7d f8          	mov    %rdi,-0x8(%rbp)
    4b58:	48 8b 45 f8          	mov    -0x8(%rbp),%rax
    4b5c:	48 8b 50 08          	mov    0x8(%rax),%rdx
    4b60:	48 8b 45 f8          	mov    -0x8(%rbp),%rax
    4b64:	48 8b 08             	mov    (%rax),%rcx
    4b67:	48 8b 45 f8          	mov    -0x8(%rbp),%rax
    4b6b:	48 89 ce             	mov    %rcx,%rsi
    4b6e:	48 89 c7             	mov    %rax,%rdi
    4b71:	e8 18 07 00 00       	callq  528e <_ZNSt10_HashtableIiSt4pairIKiNSt7__cxx1112basic_stringIcSt11char_traitsIcESaIcEEEESaIS8_ENSt8__detail10_Select1stESt8equal_toIiESt4hashIiENSA_18_Mod_range_hashingENSA_20_Default_ranged_hashENSA_20_Prime_rehash_policyENSA_17_Hashtable_traitsILb0ELb0ELb1EEEE21_M_deallocate_bucketsEPPNSA_15_Hash_node_baseEm>
    4b76:	90                   	nop
    4b77:	c9                   	leaveq 
    4b78:	c3                   	retq   
    4b79:	90                   	nop

0000000000004b7a <_ZN9__gnu_cxx13new_allocatorISt4pairIKNSt7__cxx1112basic_stringIcSt11char_traitsIcESaIcEEEmEEC1Ev>:
    4b7a:	55                   	push   %rbp
    4b7b:	48 89 e5             	mov    %rsp,%rbp
    4b7e:	48 89 7d f8          	mov    %rdi,-0x8(%rbp)
    4b82:	90                   	nop
    4b83:	5d                   	pop    %rbp
    4b84:	c3                   	retq   
    4b85:	90                   	nop

0000000000004b86 <_ZN9__gnu_cxx13new_allocatorISt4pairIKNSt7__cxx1112basic_stringIcSt11char_traitsIcESaIcEEEmEED1Ev>:
    4b86:	55                   	push   %rbp
    4b87:	48 89 e5             	mov    %rsp,%rbp
    4b8a:	48 89 7d f8          	mov    %rdi,-0x8(%rbp)
    4b8e:	90                   	nop
    4b8f:	5d                   	pop    %rbp
    4b90:	c3                   	retq   
    4b91:	90                   	nop

0000000000004b92 <_ZNKSt16initializer_listISt4pairIKNSt7__cxx1112basic_stringIcSt11char_traitsIcESaIcEEEmEE5beginEv>:
    4b92:	55                   	push   %rbp
    4b93:	48 89 e5             	mov    %rsp,%rbp
    4b96:	48 89 7d f8          	mov    %rdi,-0x8(%rbp)
    4b9a:	48 8b 45 f8          	mov    -0x8(%rbp),%rax
    4b9e:	48 8b 00             	mov    (%rax),%rax
    4ba1:	5d                   	pop    %rbp
    4ba2:	c3                   	retq   
    4ba3:	90                   	nop

0000000000004ba4 <_ZNKSt16initializer_listISt4pairIKNSt7__cxx1112basic_stringIcSt11char_traitsIcESaIcEEEmEE3endEv>:
    4ba4:	55                   	push   %rbp
    4ba5:	48 89 e5             	mov    %rsp,%rbp
    4ba8:	53                   	push   %rbx
    4ba9:	48 83 ec 18          	sub    $0x18,%rsp
    4bad:	48 89 7d e8          	mov    %rdi,-0x18(%rbp)
    4bb1:	48 8b 45 e8          	mov    -0x18(%rbp),%rax
    4bb5:	48 89 c7             	mov    %rax,%rdi
    4bb8:	e8 d5 ff ff ff       	callq  4b92 <_ZNKSt16initializer_listISt4pairIKNSt7__cxx1112basic_stringIcSt11char_traitsIcESaIcEEEmEE5beginEv>
    4bbd:	48 89 c3             	mov    %rax,%rbx
    4bc0:	48 8b 45 e8          	mov    -0x18(%rbp),%rax
    4bc4:	48 89 c7             	mov    %rax,%rdi
    4bc7:	e8 0a 07 00 00       	callq  52d6 <_ZNKSt16initializer_listISt4pairIKNSt7__cxx1112basic_stringIcSt11char_traitsIcESaIcEEEmEE4sizeEv>
    4bcc:	48 89 c2             	mov    %rax,%rdx
    4bcf:	48 89 d0             	mov    %rdx,%rax
    4bd2:	48 c1 e0 02          	shl    $0x2,%rax
    4bd6:	48 01 d0             	add    %rdx,%rax
    4bd9:	48 c1 e0 03          	shl    $0x3,%rax
    4bdd:	48 01 d8             	add    %rbx,%rax
    4be0:	48 83 c4 18          	add    $0x18,%rsp
    4be4:	5b                   	pop    %rbx
    4be5:	5d                   	pop    %rbp
    4be6:	c3                   	retq   
    4be7:	90                   	nop

0000000000004be8 <_ZNSt10_HashtableINSt7__cxx1112basic_stringIcSt11char_traitsIcESaIcEEESt4pairIKS5_mESaIS8_ENSt8__detail10_Select1stESt8equal_toIS5_ESt4hashIS5_ENSA_18_Mod_range_hashingENSA_20_Default_ranged_hashENSA_20_Prime_rehash_policyENSA_17_Hashtable_traitsILb1ELb0ELb1EEEEC1ESt16initializer_listIS8_EmRKSF_RKSD_RKS9_>:
    4be8:	55                   	push   %rbp
    4be9:	48 89 e5             	mov    %rsp,%rbp
    4bec:	53                   	push   %rbx
    4bed:	48 83 ec 58          	sub    $0x58,%rsp
    4bf1:	48 89 7d d8          	mov    %rdi,-0x28(%rbp)
    4bf5:	48 89 f0             	mov    %rsi,%rax
    4bf8:	48 89 d6             	mov    %rdx,%rsi
    4bfb:	48 89 f2             	mov    %rsi,%rdx
    4bfe:	48 89 45 c0          	mov    %rax,-0x40(%rbp)
    4c02:	48 89 55 c8          	mov    %rdx,-0x38(%rbp)
    4c06:	48 89 4d d0          	mov    %rcx,-0x30(%rbp)
    4c0a:	4c 89 45 b8          	mov    %r8,-0x48(%rbp)
    4c0e:	4c 89 4d b0          	mov    %r9,-0x50(%rbp)
    4c12:	48 8b 45 10          	mov    0x10(%rbp),%rax
    4c16:	48 89 45 a8          	mov    %rax,-0x58(%rbp)
    4c1a:	64 48 8b 04 25 28 00 	mov    %fs:0x28,%rax
    4c21:	00 00 
    4c23:	48 89 45 e8          	mov    %rax,-0x18(%rbp)
    4c27:	31 c0                	xor    %eax,%eax
    4c29:	48 8d 45 c0          	lea    -0x40(%rbp),%rax
    4c2d:	48 89 c7             	mov    %rax,%rdi
    4c30:	e8 6f ff ff ff       	callq  4ba4 <_ZNKSt16initializer_listISt4pairIKNSt7__cxx1112basic_stringIcSt11char_traitsIcESaIcEEEmEE3endEv>
    4c35:	48 89 c3             	mov    %rax,%rbx
    4c38:	48 8d 45 c0          	lea    -0x40(%rbp),%rax
    4c3c:	48 89 c7             	mov    %rax,%rdi
    4c3f:	e8 4e ff ff ff       	callq  4b92 <_ZNKSt16initializer_listISt4pairIKNSt7__cxx1112basic_stringIcSt11char_traitsIcESaIcEEEmEE5beginEv>
    4c44:	49 89 c2             	mov    %rax,%r10
    4c47:	48 8d 7d e5          	lea    -0x1b(%rbp),%rdi
    4c4b:	48 8b 75 b8          	mov    -0x48(%rbp),%rsi
    4c4f:	48 8b 55 d0          	mov    -0x30(%rbp),%rdx
    4c53:	48 8b 45 d8          	mov    -0x28(%rbp),%rax
    4c57:	ff 75 a8             	pushq  -0x58(%rbp)
    4c5a:	48 8d 4d e7          	lea    -0x19(%rbp),%rcx
    4c5e:	51                   	push   %rcx
    4c5f:	ff 75 b0             	pushq  -0x50(%rbp)
    4c62:	48 8d 4d e6          	lea    -0x1a(%rbp),%rcx
    4c66:	51                   	push   %rcx
    4c67:	49 89 f9             	mov    %rdi,%r9
    4c6a:	49 89 f0             	mov    %rsi,%r8
    4c6d:	48 89 d1             	mov    %rdx,%rcx
    4c70:	48 89 da             	mov    %rbx,%rdx
    4c73:	4c 89 d6             	mov    %r10,%rsi
    4c76:	48 89 c7             	mov    %rax,%rdi
    4c79:	e8 6a 06 00 00       	callq  52e8 <_ZNSt10_HashtableINSt7__cxx1112basic_stringIcSt11char_traitsIcESaIcEEESt4pairIKS5_mESaIS8_ENSt8__detail10_Select1stESt8equal_toIS5_ESt4hashIS5_ENSA_18_Mod_range_hashingENSA_20_Default_ranged_hashENSA_20_Prime_rehash_policyENSA_17_Hashtable_traitsILb1ELb0ELb1EEEEC1IPKS8_EET_SP_mRKSF_RKSG_RKSH_RKSD_RKSB_RKS9_>
    4c7e:	48 83 c4 20          	add    $0x20,%rsp
    4c82:	90                   	nop
    4c83:	48 8b 45 e8          	mov    -0x18(%rbp),%rax
    4c87:	64 48 33 04 25 28 00 	xor    %fs:0x28,%rax
    4c8e:	00 00 
    4c90:	74 05                	je     4c97 <_ZNSt10_HashtableINSt7__cxx1112basic_stringIcSt11char_traitsIcESaIcEEESt4pairIKS5_mESaIS8_ENSt8__detail10_Select1stESt8equal_toIS5_ESt4hashIS5_ENSA_18_Mod_range_hashingENSA_20_Default_ranged_hashENSA_20_Prime_rehash_policyENSA_17_Hashtable_traitsILb1ELb0ELb1EEEEC1ESt16initializer_listIS8_EmRKSF_RKSD_RKS9_+0xaf>
    4c92:	e8 c9 c8 ff ff       	callq  1560 <__stack_chk_fail@plt>
    4c97:	48 8b 5d f8          	mov    -0x8(%rbp),%rbx
    4c9b:	c9                   	leaveq 
    4c9c:	c3                   	retq   
    4c9d:	90                   	nop

0000000000004c9e <_ZNSaINSt8__detail10_Hash_nodeISt4pairIKNSt7__cxx1112basic_stringIcSt11char_traitsIcESaIcEEEmELb1EEEED1Ev>:
    4c9e:	55                   	push   %rbp
    4c9f:	48 89 e5             	mov    %rsp,%rbp
    4ca2:	48 83 ec 10          	sub    $0x10,%rsp
    4ca6:	48 89 7d f8          	mov    %rdi,-0x8(%rbp)
    4caa:	48 8b 45 f8          	mov    -0x8(%rbp),%rax
    4cae:	48 89 c7             	mov    %rax,%rdi
    4cb1:	e8 a2 07 00 00       	callq  5458 <_ZN9__gnu_cxx13new_allocatorINSt8__detail10_Hash_nodeISt4pairIKNSt7__cxx1112basic_stringIcSt11char_traitsIcESaIcEEEmELb1EEEED1Ev>
    4cb6:	90                   	nop
    4cb7:	c9                   	leaveq 
    4cb8:	c3                   	retq   
    4cb9:	90                   	nop

0000000000004cba <_ZNSt10_HashtableINSt7__cxx1112basic_stringIcSt11char_traitsIcESaIcEEESt4pairIKS5_mESaIS8_ENSt8__detail10_Select1stESt8equal_toIS5_ESt4hashIS5_ENSA_18_Mod_range_hashingENSA_20_Default_ranged_hashENSA_20_Prime_rehash_policyENSA_17_Hashtable_traitsILb1ELb0ELb1EEEE5clearEv>:
    4cba:	55                   	push   %rbp
    4cbb:	48 89 e5             	mov    %rsp,%rbp
    4cbe:	48 83 ec 10          	sub    $0x10,%rsp
    4cc2:	48 89 7d f8          	mov    %rdi,-0x8(%rbp)
    4cc6:	48 8b 45 f8          	mov    -0x8(%rbp),%rax
    4cca:	48 89 c7             	mov    %rax,%rdi
    4ccd:	e8 92 07 00 00       	callq  5464 <_ZNKSt10_HashtableINSt7__cxx1112basic_stringIcSt11char_traitsIcESaIcEEESt4pairIKS5_mESaIS8_ENSt8__detail10_Select1stESt8equal_toIS5_ESt4hashIS5_ENSA_18_Mod_range_hashingENSA_20_Default_ranged_hashENSA_20_Prime_rehash_policyENSA_17_Hashtable_traitsILb1ELb0ELb1EEEE8_M_beginEv>
    4cd2:	48 89 c2             	mov    %rax,%rdx
    4cd5:	48 8b 45 f8          	mov    -0x8(%rbp),%rax
    4cd9:	48 89 d6             	mov    %rdx,%rsi
    4cdc:	48 89 c7             	mov    %rax,%rdi
    4cdf:	e8 92 07 00 00       	callq  5476 <_ZNSt8__detail16_Hashtable_allocISaINS_10_Hash_nodeISt4pairIKNSt7__cxx1112basic_stringIcSt11char_traitsIcESaIcEEEmELb1EEEEE19_M_deallocate_nodesEPSB_>
    4ce4:	48 8b 45 f8          	mov    -0x8(%rbp),%rax
    4ce8:	48 8b 40 08          	mov    0x8(%rax),%rax
    4cec:	48 8d 14 c5 00 00 00 	lea    0x0(,%rax,8),%rdx
    4cf3:	00 
    4cf4:	48 8b 45 f8          	mov    -0x8(%rbp),%rax
    4cf8:	48 8b 00             	mov    (%rax),%rax
    4cfb:	be 00 00 00 00       	mov    $0x0,%esi
    4d00:	48 89 c7             	mov    %rax,%rdi
    4d03:	e8 98 c7 ff ff       	callq  14a0 <memset@plt>
    4d08:	48 8b 45 f8          	mov    -0x8(%rbp),%rax
    4d0c:	48 c7 40 18 00 00 00 	movq   $0x0,0x18(%rax)
    4d13:	00 
    4d14:	48 8b 45 f8          	mov    -0x8(%rbp),%rax
    4d18:	48 c7 40 10 00 00 00 	movq   $0x0,0x10(%rax)
    4d1f:	00 
    4d20:	90                   	nop
    4d21:	c9                   	leaveq 
    4d22:	c3                   	retq   
    4d23:	90                   	nop

0000000000004d24 <_ZNSt10_HashtableINSt7__cxx1112basic_stringIcSt11char_traitsIcESaIcEEESt4pairIKS5_mESaIS8_ENSt8__detail10_Select1stESt8equal_toIS5_ESt4hashIS5_ENSA_18_Mod_range_hashingENSA_20_Default_ranged_hashENSA_20_Prime_rehash_policyENSA_17_Hashtable_traitsILb1ELb0ELb1EEEE21_M_deallocate_bucketsEv>:
    4d24:	55                   	push   %rbp
    4d25:	48 89 e5             	mov    %rsp,%rbp
    4d28:	48 83 ec 10          	sub    $0x10,%rsp
    4d2c:	48 89 7d f8          	mov    %rdi,-0x8(%rbp)
    4d30:	48 8b 45 f8          	mov    -0x8(%rbp),%rax
    4d34:	48 8b 50 08          	mov    0x8(%rax),%rdx
    4d38:	48 8b 45 f8          	mov    -0x8(%rbp),%rax
    4d3c:	48 8b 08             	mov    (%rax),%rcx
    4d3f:	48 8b 45 f8          	mov    -0x8(%rbp),%rax
    4d43:	48 89 ce             	mov    %rcx,%rsi
    4d46:	48 89 c7             	mov    %rax,%rdi
    4d49:	e8 70 07 00 00       	callq  54be <_ZNSt10_HashtableINSt7__cxx1112basic_stringIcSt11char_traitsIcESaIcEEESt4pairIKS5_mESaIS8_ENSt8__detail10_Select1stESt8equal_toIS5_ESt4hashIS5_ENSA_18_Mod_range_hashingENSA_20_Default_ranged_hashENSA_20_Prime_rehash_policyENSA_17_Hashtable_traitsILb1ELb0ELb1EEEE21_M_deallocate_bucketsEPPNSA_15_Hash_node_baseEm>
    4d4e:	90                   	nop
    4d4f:	c9                   	leaveq 
    4d50:	c3                   	retq   
    4d51:	90                   	nop

0000000000004d52 <_ZNSt13unordered_mapIPKcNSt7__cxx1112basic_stringIcSt11char_traitsIcESaIcEEESt4hashIS1_ESt8equal_toIS1_ESaISt4pairIKS1_S7_EEE4findERSD_>:
    4d52:	55                   	push   %rbp
    4d53:	48 89 e5             	mov    %rsp,%rbp
    4d56:	48 83 ec 10          	sub    $0x10,%rsp
    4d5a:	48 89 7d f8          	mov    %rdi,-0x8(%rbp)
    4d5e:	48 89 75 f0          	mov    %rsi,-0x10(%rbp)
    4d62:	48 8b 45 f8          	mov    -0x8(%rbp),%rax
    4d66:	48 8b 55 f0          	mov    -0x10(%rbp),%rdx
    4d6a:	48 89 d6             	mov    %rdx,%rsi
    4d6d:	48 89 c7             	mov    %rax,%rdi
    4d70:	e8 91 07 00 00       	callq  5506 <_ZNSt10_HashtableIPKcSt4pairIKS1_NSt7__cxx1112basic_stringIcSt11char_traitsIcESaIcEEEESaISA_ENSt8__detail10_Select1stESt8equal_toIS1_ESt4hashIS1_ENSC_18_Mod_range_hashingENSC_20_Default_ranged_hashENSC_20_Prime_rehash_policyENSC_17_Hashtable_traitsILb0ELb0ELb1EEEE4findERS3_>
    4d75:	c9                   	leaveq 
    4d76:	c3                   	retq   
    4d77:	90                   	nop

0000000000004d78 <_ZNKSt8__detail14_Node_iteratorISt4pairIKPKcNSt7__cxx1112basic_stringIcSt11char_traitsIcESaIcEEEELb0ELb0EEptEv>:
    4d78:	55                   	push   %rbp
    4d79:	48 89 e5             	mov    %rsp,%rbp
    4d7c:	48 83 ec 10          	sub    $0x10,%rsp
    4d80:	48 89 7d f8          	mov    %rdi,-0x8(%rbp)
    4d84:	48 8b 45 f8          	mov    -0x8(%rbp),%rax
    4d88:	48 8b 00             	mov    (%rax),%rax
    4d8b:	48 89 c7             	mov    %rax,%rdi
    4d8e:	e8 27 08 00 00       	callq  55ba <_ZNSt8__detail21_Hash_node_value_baseISt4pairIKPKcNSt7__cxx1112basic_stringIcSt11char_traitsIcESaIcEEEEE9_M_valptrEv>
    4d93:	c9                   	leaveq 
    4d94:	c3                   	retq   
    4d95:	90                   	nop

0000000000004d96 <_ZNSt10_HashtableINSt7__cxx1112basic_stringIcSt11char_traitsIcESaIcEEESt4pairIKS5_mESaIS8_ENSt8__detail10_Select1stESt8equal_toIS5_ESt4hashIS5_ENSA_18_Mod_range_hashingENSA_20_Default_ranged_hashENSA_20_Prime_rehash_policyENSA_17_Hashtable_traitsILb1ELb0ELb1EEEE5beginEv>:
    4d96:	55                   	push   %rbp
    4d97:	48 89 e5             	mov    %rsp,%rbp
    4d9a:	48 83 ec 20          	sub    $0x20,%rsp
    4d9e:	48 89 7d e8          	mov    %rdi,-0x18(%rbp)
    4da2:	64 48 8b 04 25 28 00 	mov    %fs:0x28,%rax
    4da9:	00 00 
    4dab:	48 89 45 f8          	mov    %rax,-0x8(%rbp)
    4daf:	31 c0                	xor    %eax,%eax
    4db1:	48 8b 45 e8          	mov    -0x18(%rbp),%rax
    4db5:	48 89 c7             	mov    %rax,%rdi
    4db8:	e8 a7 06 00 00       	callq  5464 <_ZNKSt10_HashtableINSt7__cxx1112basic_stringIcSt11char_traitsIcESaIcEEESt4pairIKS5_mESaIS8_ENSt8__detail10_Select1stESt8equal_toIS5_ESt4hashIS5_ENSA_18_Mod_range_hashingENSA_20_Default_ranged_hashENSA_20_Prime_rehash_policyENSA_17_Hashtable_traitsILb1ELb0ELb1EEEE8_M_beginEv>
    4dbd:	48 89 c2             	mov    %rax,%rdx
    4dc0:	48 8d 45 f0          	lea    -0x10(%rbp),%rax
    4dc4:	48 89 d6             	mov    %rdx,%rsi
    4dc7:	48 89 c7             	mov    %rax,%rdi
    4dca:	e8 09 08 00 00       	callq  55d8 <_ZNSt8__detail14_Node_iteratorISt4pairIKNSt7__cxx1112basic_stringIcSt11char_traitsIcESaIcEEEmELb0ELb1EEC1EPNS_10_Hash_nodeIS9_Lb1EEE>
    4dcf:	48 8b 45 f0          	mov    -0x10(%rbp),%rax
    4dd3:	48 8b 4d f8          	mov    -0x8(%rbp),%rcx
    4dd7:	64 48 33 0c 25 28 00 	xor    %fs:0x28,%rcx
    4dde:	00 00 
    4de0:	74 05                	je     4de7 <_ZNSt10_HashtableINSt7__cxx1112basic_stringIcSt11char_traitsIcESaIcEEESt4pairIKS5_mESaIS8_ENSt8__detail10_Select1stESt8equal_toIS5_ESt4hashIS5_ENSA_18_Mod_range_hashingENSA_20_Default_ranged_hashENSA_20_Prime_rehash_policyENSA_17_Hashtable_traitsILb1ELb0ELb1EEEE5beginEv+0x51>
    4de2:	e8 79 c7 ff ff       	callq  1560 <__stack_chk_fail@plt>
    4de7:	c9                   	leaveq 
    4de8:	c3                   	retq   
    4de9:	90                   	nop

0000000000004dea <_ZNSt10_HashtableINSt7__cxx1112basic_stringIcSt11char_traitsIcESaIcEEESt4pairIKS5_mESaIS8_ENSt8__detail10_Select1stESt8equal_toIS5_ESt4hashIS5_ENSA_18_Mod_range_hashingENSA_20_Default_ranged_hashENSA_20_Prime_rehash_policyENSA_17_Hashtable_traitsILb1ELb0ELb1EEEE3endEv>:
    4dea:	55                   	push   %rbp
    4deb:	48 89 e5             	mov    %rsp,%rbp
    4dee:	48 83 ec 20          	sub    $0x20,%rsp
    4df2:	48 89 7d e8          	mov    %rdi,-0x18(%rbp)
    4df6:	64 48 8b 04 25 28 00 	mov    %fs:0x28,%rax
    4dfd:	00 00 
    4dff:	48 89 45 f8          	mov    %rax,-0x8(%rbp)
    4e03:	31 c0                	xor    %eax,%eax
    4e05:	48 8d 45 f0          	lea    -0x10(%rbp),%rax
    4e09:	be 00 00 00 00       	mov    $0x0,%esi
    4e0e:	48 89 c7             	mov    %rax,%rdi
    4e11:	e8 c2 07 00 00       	callq  55d8 <_ZNSt8__detail14_Node_iteratorISt4pairIKNSt7__cxx1112basic_stringIcSt11char_traitsIcESaIcEEEmELb0ELb1EEC1EPNS_10_Hash_nodeIS9_Lb1EEE>
    4e16:	48 8b 45 f0          	mov    -0x10(%rbp),%rax
    4e1a:	48 8b 55 f8          	mov    -0x8(%rbp),%rdx
    4e1e:	64 48 33 14 25 28 00 	xor    %fs:0x28,%rdx
    4e25:	00 00 
    4e27:	74 05                	je     4e2e <_ZNSt10_HashtableINSt7__cxx1112basic_stringIcSt11char_traitsIcESaIcEEESt4pairIKS5_mESaIS8_ENSt8__detail10_Select1stESt8equal_toIS5_ESt4hashIS5_ENSA_18_Mod_range_hashingENSA_20_Default_ranged_hashENSA_20_Prime_rehash_policyENSA_17_Hashtable_traitsILb1ELb0ELb1EEEE3endEv+0x44>
    4e29:	e8 32 c7 ff ff       	callq  1560 <__stack_chk_fail@plt>
    4e2e:	c9                   	leaveq 
    4e2f:	c3                   	retq   

0000000000004e30 <_ZNSt8__detail19_Node_iterator_baseISt4pairIKNSt7__cxx1112basic_stringIcSt11char_traitsIcESaIcEEEmELb1EE7_M_incrEv>:
    4e30:	55                   	push   %rbp
    4e31:	48 89 e5             	mov    %rsp,%rbp
    4e34:	48 83 ec 10          	sub    $0x10,%rsp
    4e38:	48 89 7d f8          	mov    %rdi,-0x8(%rbp)
    4e3c:	48 8b 45 f8          	mov    -0x8(%rbp),%rax
    4e40:	48 8b 00             	mov    (%rax),%rax
    4e43:	48 89 c7             	mov    %rax,%rdi
    4e46:	e8 b3 07 00 00       	callq  55fe <_ZNKSt8__detail10_Hash_nodeISt4pairIKNSt7__cxx1112basic_stringIcSt11char_traitsIcESaIcEEEmELb1EE7_M_nextEv>
    4e4b:	48 89 c2             	mov    %rax,%rdx
    4e4e:	48 8b 45 f8          	mov    -0x8(%rbp),%rax
    4e52:	48 89 10             	mov    %rdx,(%rax)
    4e55:	90                   	nop
    4e56:	c9                   	leaveq 
    4e57:	c3                   	retq   

0000000000004e58 <_ZNSt8__detail21_Hash_node_value_baseISt4pairIKNSt7__cxx1112basic_stringIcSt11char_traitsIcESaIcEEEmEE9_M_valptrEv>:
    4e58:	55                   	push   %rbp
    4e59:	48 89 e5             	mov    %rsp,%rbp
    4e5c:	48 83 ec 10          	sub    $0x10,%rsp
    4e60:	48 89 7d f8          	mov    %rdi,-0x8(%rbp)
    4e64:	48 8b 45 f8          	mov    -0x8(%rbp),%rax
    4e68:	48 83 c0 08          	add    $0x8,%rax
    4e6c:	48 89 c7             	mov    %rax,%rdi
    4e6f:	e8 9c 07 00 00       	callq  5610 <_ZN9__gnu_cxx16__aligned_bufferISt4pairIKNSt7__cxx1112basic_stringIcSt11char_traitsIcESaIcEEEmEE6_M_ptrEv>
    4e74:	c9                   	leaveq 
    4e75:	c3                   	retq   

0000000000004e76 <_ZNKSt16initializer_listISt4pairIKPKcNSt7__cxx1112basic_stringIcSt11char_traitsIcESaIcEEEEE4sizeEv>:
    4e76:	55                   	push   %rbp
    4e77:	48 89 e5             	mov    %rsp,%rbp
    4e7a:	48 89 7d f8          	mov    %rdi,-0x8(%rbp)
    4e7e:	48 8b 45 f8          	mov    -0x8(%rbp),%rax
    4e82:	48 8b 40 08          	mov    0x8(%rax),%rax
    4e86:	5d                   	pop    %rbp
    4e87:	c3                   	retq   

0000000000004e88 <_ZNSt10_HashtableIPKcSt4pairIKS1_NSt7__cxx1112basic_stringIcSt11char_traitsIcESaIcEEEESaISA_ENSt8__detail10_Select1stESt8equal_toIS1_ESt4hashIS1_ENSC_18_Mod_range_hashingENSC_20_Default_ranged_hashENSC_20_Prime_rehash_policyENSC_17_Hashtable_traitsILb0ELb0ELb1EEEEC1IPKSA_EET_SR_mRKSH_RKSI_RKSJ_RKSF_RKSD_RKSB_>:
    4e88:	55                   	push   %rbp
    4e89:	48 89 e5             	mov    %rsp,%rbp
    4e8c:	53                   	push   %rbx
    4e8d:	48 83 ec 78          	sub    $0x78,%rsp
    4e91:	48 89 7d c8          	mov    %rdi,-0x38(%rbp)
    4e95:	48 89 75 c0          	mov    %rsi,-0x40(%rbp)
    4e99:	48 89 55 b8          	mov    %rdx,-0x48(%rbp)
    4e9d:	48 89 4d b0          	mov    %rcx,-0x50(%rbp)
    4ea1:	4c 89 45 a8          	mov    %r8,-0x58(%rbp)
    4ea5:	4c 89 4d a0          	mov    %r9,-0x60(%rbp)
    4ea9:	48 8b 45 10          	mov    0x10(%rbp),%rax
    4ead:	48 89 45 98          	mov    %rax,-0x68(%rbp)
    4eb1:	48 8b 45 18          	mov    0x18(%rbp),%rax
    4eb5:	48 89 45 90          	mov    %rax,-0x70(%rbp)
    4eb9:	48 8b 45 20          	mov    0x20(%rbp),%rax
    4ebd:	48 89 45 88          	mov    %rax,-0x78(%rbp)
    4ec1:	48 8b 45 28          	mov    0x28(%rbp),%rax
    4ec5:	48 89 45 80          	mov    %rax,-0x80(%rbp)
    4ec9:	64 48 8b 04 25 28 00 	mov    %fs:0x28,%rax
    4ed0:	00 00 
    4ed2:	48 89 45 e8          	mov    %rax,-0x18(%rbp)
    4ed6:	31 c0                	xor    %eax,%eax
    4ed8:	4c 8b 45 88          	mov    -0x78(%rbp),%r8
    4edc:	48 8b 7d 90          	mov    -0x70(%rbp),%rdi
    4ee0:	48 8b 4d 98          	mov    -0x68(%rbp),%rcx
    4ee4:	48 8b 55 a0          	mov    -0x60(%rbp),%rdx
    4ee8:	48 8b 75 a8          	mov    -0x58(%rbp),%rsi
    4eec:	48 8b 45 c8          	mov    -0x38(%rbp),%rax
    4ef0:	48 83 ec 08          	sub    $0x8,%rsp
    4ef4:	ff 75 80             	pushq  -0x80(%rbp)
    4ef7:	4d 89 c1             	mov    %r8,%r9
    4efa:	49 89 f8             	mov    %rdi,%r8
    4efd:	48 89 c7             	mov    %rax,%rdi
    4f00:	e8 25 07 00 00       	callq  562a <_ZNSt10_HashtableIPKcSt4pairIKS1_NSt7__cxx1112basic_stringIcSt11char_traitsIcESaIcEEEESaISA_ENSt8__detail10_Select1stESt8equal_toIS1_ESt4hashIS1_ENSC_18_Mod_range_hashingENSC_20_Default_ranged_hashENSC_20_Prime_rehash_policyENSC_17_Hashtable_traitsILb0ELb0ELb1EEEEC1ERKSH_RKSI_RKSJ_RKSF_RKSD_RKSB_>
    4f05:	48 83 c4 10          	add    $0x10,%rsp
    4f09:	48 8b 55 b8          	mov    -0x48(%rbp),%rdx
    4f0d:	48 8b 45 c0          	mov    -0x40(%rbp),%rax
    4f11:	48 89 d6             	mov    %rdx,%rsi
    4f14:	48 89 c7             	mov    %rax,%rdi
    4f17:	e8 31 08 00 00       	callq  574d <_ZNSt8__detail13__distance_fwIPKSt4pairIKPKcNSt7__cxx1112basic_stringIcSt11char_traitsIcESaIcEEEEEENSt15iterator_traitsIT_E15difference_typeESF_SF_>
    4f1c:	48 89 45 d8          	mov    %rax,-0x28(%rbp)
    4f20:	48 8b 45 c8          	mov    -0x38(%rbp),%rax
    4f24:	48 8d 58 20          	lea    0x20(%rax),%rbx
    4f28:	48 8b 45 c8          	mov    -0x38(%rbp),%rax
    4f2c:	48 8d 50 20          	lea    0x20(%rax),%rdx
    4f30:	48 8b 45 d8          	mov    -0x28(%rbp),%rax
    4f34:	48 89 c6             	mov    %rax,%rsi
    4f37:	48 89 d7             	mov    %rdx,%rdi
    4f3a:	e8 b1 df ff ff       	callq  2ef0 <_ZNKSt8__detail20_Prime_rehash_policy19_M_bkt_for_elementsEm>
    4f3f:	48 89 45 d0          	mov    %rax,-0x30(%rbp)
    4f43:	48 8d 55 b0          	lea    -0x50(%rbp),%rdx
    4f47:	48 8d 45 d0          	lea    -0x30(%rbp),%rax
    4f4b:	48 89 d6             	mov    %rdx,%rsi
    4f4e:	48 89 c7             	mov    %rax,%rdi
    4f51:	e8 09 ef ff ff       	callq  3e5f <_ZSt3maxImERKT_S2_S2_>
    4f56:	48 8b 00             	mov    (%rax),%rax
    4f59:	48 89 c6             	mov    %rax,%rsi
    4f5c:	48 89 df             	mov    %rbx,%rdi
    4f5f:	e8 6c c5 ff ff       	callq  14d0 <_ZNKSt8__detail20_Prime_rehash_policy11_M_next_bktEm@plt>
    4f64:	48 89 45 e0          	mov    %rax,-0x20(%rbp)
    4f68:	48 8b 45 c8          	mov    -0x38(%rbp),%rax
    4f6c:	48 8b 40 08          	mov    0x8(%rax),%rax
    4f70:	48 39 45 e0          	cmp    %rax,-0x20(%rbp)
    4f74:	76 29                	jbe    4f9f <_ZNSt10_HashtableIPKcSt4pairIKS1_NSt7__cxx1112basic_stringIcSt11char_traitsIcESaIcEEEESaISA_ENSt8__detail10_Select1stESt8equal_toIS1_ESt4hashIS1_ENSC_18_Mod_range_hashingENSC_20_Default_ranged_hashENSC_20_Prime_rehash_policyENSC_17_Hashtable_traitsILb0ELb0ELb1EEEEC1IPKSA_EET_SR_mRKSH_RKSI_RKSJ_RKSF_RKSD_RKSB_+0x117>
    4f76:	48 8b 55 e0          	mov    -0x20(%rbp),%rdx
    4f7a:	48 8b 45 c8          	mov    -0x38(%rbp),%rax
    4f7e:	48 89 d6             	mov    %rdx,%rsi
    4f81:	48 89 c7             	mov    %rax,%rdi
    4f84:	e8 15 08 00 00       	callq  579e <_ZNSt10_HashtableIPKcSt4pairIKS1_NSt7__cxx1112basic_stringIcSt11char_traitsIcESaIcEEEESaISA_ENSt8__detail10_Select1stESt8equal_toIS1_ESt4hashIS1_ENSC_18_Mod_range_hashingENSC_20_Default_ranged_hashENSC_20_Prime_rehash_policyENSC_17_Hashtable_traitsILb0ELb0ELb1EEEE19_M_allocate_bucketsEm>
    4f89:	48 89 c2             	mov    %rax,%rdx
    4f8c:	48 8b 45 c8          	mov    -0x38(%rbp),%rax
    4f90:	48 89 10             	mov    %rdx,(%rax)
    4f93:	48 8b 45 c8          	mov    -0x38(%rbp),%rax
    4f97:	48 8b 55 e0          	mov    -0x20(%rbp),%rdx
    4f9b:	48 89 50 08          	mov    %rdx,0x8(%rax)
    4f9f:	48 8b 45 c0          	mov    -0x40(%rbp),%rax
    4fa3:	48 3b 45 b8          	cmp    -0x48(%rbp),%rax
    4fa7:	74 34                	je     4fdd <_ZNSt10_HashtableIPKcSt4pairIKS1_NSt7__cxx1112basic_stringIcSt11char_traitsIcESaIcEEEESaISA_ENSt8__detail10_Select1stESt8equal_toIS1_ESt4hashIS1_ENSC_18_Mod_range_hashingENSC_20_Default_ranged_hashENSC_20_Prime_rehash_policyENSC_17_Hashtable_traitsILb0ELb0ELb1EEEEC1IPKSA_EET_SR_mRKSH_RKSI_RKSJ_RKSF_RKSD_RKSB_+0x155>
    4fa9:	48 8b 55 c0          	mov    -0x40(%rbp),%rdx
    4fad:	48 8b 45 c8          	mov    -0x38(%rbp),%rax
    4fb1:	48 89 d6             	mov    %rdx,%rsi
    4fb4:	48 89 c7             	mov    %rax,%rdi
    4fb7:	e8 2e 08 00 00       	callq  57ea <_ZNSt8__detail12_Insert_baseIPKcSt4pairIKS2_NSt7__cxx1112basic_stringIcSt11char_traitsIcESaIcEEEESaISB_ENS_10_Select1stESt8equal_toIS2_ESt4hashIS2_ENS_18_Mod_range_hashingENS_20_Default_ranged_hashENS_20_Prime_rehash_policyENS_17_Hashtable_traitsILb0ELb0ELb1EEEE6insertERKSB_>
    4fbc:	48 83 45 c0 28       	addq   $0x28,-0x40(%rbp)
    4fc1:	eb dc                	jmp    4f9f <_ZNSt10_HashtableIPKcSt4pairIKS1_NSt7__cxx1112basic_stringIcSt11char_traitsIcESaIcEEEESaISA_ENSt8__detail10_Select1stESt8equal_toIS1_ESt4hashIS1_ENSC_18_Mod_range_hashingENSC_20_Default_ranged_hashENSC_20_Prime_rehash_policyENSC_17_Hashtable_traitsILb0ELb0ELb1EEEEC1IPKSA_EET_SR_mRKSH_RKSI_RKSJ_RKSF_RKSD_RKSB_+0x117>
    4fc3:	48 89 c3             	mov    %rax,%rbx
    4fc6:	48 8b 45 c8          	mov    -0x38(%rbp),%rax
    4fca:	48 89 c7             	mov    %rax,%rdi
    4fcd:	e8 80 f4 ff ff       	callq  4452 <_ZNSt10_HashtableIPKcSt4pairIKS1_NSt7__cxx1112basic_stringIcSt11char_traitsIcESaIcEEEESaISA_ENSt8__detail10_Select1stESt8equal_toIS1_ESt4hashIS1_ENSC_18_Mod_range_hashingENSC_20_Default_ranged_hashENSC_20_Prime_rehash_policyENSC_17_Hashtable_traitsILb0ELb0ELb1EEEED1Ev>
    4fd2:	48 89 d8             	mov    %rbx,%rax
    4fd5:	48 89 c7             	mov    %rax,%rdi
    4fd8:	e8 23 c6 ff ff       	callq  1600 <_Unwind_Resume@plt>
    4fdd:	90                   	nop
    4fde:	48 8b 45 e8          	mov    -0x18(%rbp),%rax
    4fe2:	64 48 33 04 25 28 00 	xor    %fs:0x28,%rax
    4fe9:	00 00 
    4feb:	74 05                	je     4ff2 <_ZNSt10_HashtableIPKcSt4pairIKS1_NSt7__cxx1112basic_stringIcSt11char_traitsIcESaIcEEEESaISA_ENSt8__detail10_Select1stESt8equal_toIS1_ESt4hashIS1_ENSC_18_Mod_range_hashingENSC_20_Default_ranged_hashENSC_20_Prime_rehash_policyENSC_17_Hashtable_traitsILb0ELb0ELb1EEEEC1IPKSA_EET_SR_mRKSH_RKSI_RKSJ_RKSF_RKSD_RKSB_+0x16a>
    4fed:	e8 6e c5 ff ff       	callq  1560 <__stack_chk_fail@plt>
    4ff2:	48 8b 5d f8          	mov    -0x8(%rbp),%rbx
    4ff6:	c9                   	leaveq 
    4ff7:	c3                   	retq   

0000000000004ff8 <_ZN9__gnu_cxx13new_allocatorINSt8__detail10_Hash_nodeISt4pairIKPKcNSt7__cxx1112basic_stringIcSt11char_traitsIcESaIcEEEELb0EEEED1Ev>:
    4ff8:	55                   	push   %rbp
    4ff9:	48 89 e5             	mov    %rsp,%rbp
    4ffc:	48 89 7d f8          	mov    %rdi,-0x8(%rbp)
    5000:	90                   	nop
    5001:	5d                   	pop    %rbp
    5002:	c3                   	retq   
    5003:	90                   	nop

0000000000005004 <_ZNKSt10_HashtableIPKcSt4pairIKS1_NSt7__cxx1112basic_stringIcSt11char_traitsIcESaIcEEEESaISA_ENSt8__detail10_Select1stESt8equal_toIS1_ESt4hashIS1_ENSC_18_Mod_range_hashingENSC_20_Default_ranged_hashENSC_20_Prime_rehash_policyENSC_17_Hashtable_traitsILb0ELb0ELb1EEEE8_M_beginEv>:
    5004:	55                   	push   %rbp
    5005:	48 89 e5             	mov    %rsp,%rbp
    5008:	48 89 7d f8          	mov    %rdi,-0x8(%rbp)
    500c:	48 8b 45 f8          	mov    -0x8(%rbp),%rax
    5010:	48 8b 40 10          	mov    0x10(%rax),%rax
    5014:	5d                   	pop    %rbp
    5015:	c3                   	retq   

0000000000005016 <_ZNSt8__detail16_Hashtable_allocISaINS_10_Hash_nodeISt4pairIKPKcNSt7__cxx1112basic_stringIcSt11char_traitsIcESaIcEEEELb0EEEEE19_M_deallocate_nodesEPSD_>:
    5016:	55                   	push   %rbp
    5017:	48 89 e5             	mov    %rsp,%rbp
    501a:	48 83 ec 20          	sub    $0x20,%rsp
    501e:	48 89 7d e8          	mov    %rdi,-0x18(%rbp)
    5022:	48 89 75 e0          	mov    %rsi,-0x20(%rbp)
    5026:	48 83 7d e0 00       	cmpq   $0x0,-0x20(%rbp)
    502b:	74 2d                	je     505a <_ZNSt8__detail16_Hashtable_allocISaINS_10_Hash_nodeISt4pairIKPKcNSt7__cxx1112basic_stringIcSt11char_traitsIcESaIcEEEELb0EEEEE19_M_deallocate_nodesEPSD_+0x44>
    502d:	48 8b 45 e0          	mov    -0x20(%rbp),%rax
    5031:	48 89 45 f8          	mov    %rax,-0x8(%rbp)
    5035:	48 8b 45 e0          	mov    -0x20(%rbp),%rax
    5039:	48 89 c7             	mov    %rax,%rdi
    503c:	e8 27 08 00 00       	callq  5868 <_ZNKSt8__detail10_Hash_nodeISt4pairIKPKcNSt7__cxx1112basic_stringIcSt11char_traitsIcESaIcEEEELb0EE7_M_nextEv>
    5041:	48 89 45 e0          	mov    %rax,-0x20(%rbp)
    5045:	48 8b 55 f8          	mov    -0x8(%rbp),%rdx
    5049:	48 8b 45 e8          	mov    -0x18(%rbp),%rax
    504d:	48 89 d6             	mov    %rdx,%rsi
    5050:	48 89 c7             	mov    %rax,%rdi
    5053:	e8 22 08 00 00       	callq  587a <_ZNSt8__detail16_Hashtable_allocISaINS_10_Hash_nodeISt4pairIKPKcNSt7__cxx1112basic_stringIcSt11char_traitsIcESaIcEEEELb0EEEEE18_M_deallocate_nodeEPSD_>
    5058:	eb cc                	jmp    5026 <_ZNSt8__detail16_Hashtable_allocISaINS_10_Hash_nodeISt4pairIKPKcNSt7__cxx1112basic_stringIcSt11char_traitsIcESaIcEEEELb0EEEEE19_M_deallocate_nodesEPSD_+0x10>
    505a:	90                   	nop
    505b:	c9                   	leaveq 
    505c:	c3                   	retq   
    505d:	90                   	nop

000000000000505e <_ZNSt10_HashtableIPKcSt4pairIKS1_NSt7__cxx1112basic_stringIcSt11char_traitsIcESaIcEEEESaISA_ENSt8__detail10_Select1stESt8equal_toIS1_ESt4hashIS1_ENSC_18_Mod_range_hashingENSC_20_Default_ranged_hashENSC_20_Prime_rehash_policyENSC_17_Hashtable_traitsILb0ELb0ELb1EEEE21_M_deallocate_bucketsEPPNSC_15_Hash_node_baseEm>:
    505e:	55                   	push   %rbp
    505f:	48 89 e5             	mov    %rsp,%rbp
    5062:	48 83 ec 20          	sub    $0x20,%rsp
    5066:	48 89 7d f8          	mov    %rdi,-0x8(%rbp)
    506a:	48 89 75 f0          	mov    %rsi,-0x10(%rbp)
    506e:	48 89 55 e8          	mov    %rdx,-0x18(%rbp)
    5072:	48 8b 55 f0          	mov    -0x10(%rbp),%rdx
    5076:	48 8b 45 f8          	mov    -0x8(%rbp),%rax
    507a:	48 89 d6             	mov    %rdx,%rsi
    507d:	48 89 c7             	mov    %rax,%rdi
    5080:	e8 c9 08 00 00       	callq  594e <_ZNKSt10_HashtableIPKcSt4pairIKS1_NSt7__cxx1112basic_stringIcSt11char_traitsIcESaIcEEEESaISA_ENSt8__detail10_Select1stESt8equal_toIS1_ESt4hashIS1_ENSC_18_Mod_range_hashingENSC_20_Default_ranged_hashENSC_20_Prime_rehash_policyENSC_17_Hashtable_traitsILb0ELb0ELb1EEEE21_M_uses_single_bucketEPPNSC_15_Hash_node_baseE>
    5085:	84 c0                	test   %al,%al
    5087:	75 19                	jne    50a2 <_ZNSt10_HashtableIPKcSt4pairIKS1_NSt7__cxx1112basic_stringIcSt11char_traitsIcESaIcEEEESaISA_ENSt8__detail10_Select1stESt8equal_toIS1_ESt4hashIS1_ENSC_18_Mod_range_hashingENSC_20_Default_ranged_hashENSC_20_Prime_rehash_policyENSC_17_Hashtable_traitsILb0ELb0ELb1EEEE21_M_deallocate_bucketsEPPNSC_15_Hash_node_baseEm+0x44>
    5089:	48 8b 55 e8          	mov    -0x18(%rbp),%rdx
    508d:	48 8b 4d f0          	mov    -0x10(%rbp),%rcx
    5091:	48 8b 45 f8          	mov    -0x8(%rbp),%rax
    5095:	48 89 ce             	mov    %rcx,%rsi
    5098:	48 89 c7             	mov    %rax,%rdi
    509b:	e8 d4 08 00 00       	callq  5974 <_ZNSt8__detail16_Hashtable_allocISaINS_10_Hash_nodeISt4pairIKPKcNSt7__cxx1112basic_stringIcSt11char_traitsIcESaIcEEEELb0EEEEE21_M_deallocate_bucketsEPPNS_15_Hash_node_baseEm>
    50a0:	eb 01                	jmp    50a3 <_ZNSt10_HashtableIPKcSt4pairIKS1_NSt7__cxx1112basic_stringIcSt11char_traitsIcESaIcEEEESaISA_ENSt8__detail10_Select1stESt8equal_toIS1_ESt4hashIS1_ENSC_18_Mod_range_hashingENSC_20_Default_ranged_hashENSC_20_Prime_rehash_policyENSC_17_Hashtable_traitsILb0ELb0ELb1EEEE21_M_deallocate_bucketsEPPNSC_15_Hash_node_baseEm+0x45>
    50a2:	90                   	nop
    50a3:	c9                   	leaveq 
    50a4:	c3                   	retq   
    50a5:	90                   	nop

00000000000050a6 <_ZNKSt16initializer_listISt4pairIKiNSt7__cxx1112basic_stringIcSt11char_traitsIcESaIcEEEEE4sizeEv>:
    50a6:	55                   	push   %rbp
    50a7:	48 89 e5             	mov    %rsp,%rbp
    50aa:	48 89 7d f8          	mov    %rdi,-0x8(%rbp)
    50ae:	48 8b 45 f8          	mov    -0x8(%rbp),%rax
    50b2:	48 8b 40 08          	mov    0x8(%rax),%rax
    50b6:	5d                   	pop    %rbp
    50b7:	c3                   	retq   

00000000000050b8 <_ZNSt10_HashtableIiSt4pairIKiNSt7__cxx1112basic_stringIcSt11char_traitsIcESaIcEEEESaIS8_ENSt8__detail10_Select1stESt8equal_toIiESt4hashIiENSA_18_Mod_range_hashingENSA_20_Default_ranged_hashENSA_20_Prime_rehash_policyENSA_17_Hashtable_traitsILb0ELb0ELb1EEEEC1IPKS8_EET_SP_mRKSF_RKSG_RKSH_RKSD_RKSB_RKS9_>:
    50b8:	55                   	push   %rbp
    50b9:	48 89 e5             	mov    %rsp,%rbp
    50bc:	53                   	push   %rbx
    50bd:	48 83 ec 78          	sub    $0x78,%rsp
    50c1:	48 89 7d c8          	mov    %rdi,-0x38(%rbp)
    50c5:	48 89 75 c0          	mov    %rsi,-0x40(%rbp)
    50c9:	48 89 55 b8          	mov    %rdx,-0x48(%rbp)
    50cd:	48 89 4d b0          	mov    %rcx,-0x50(%rbp)
    50d1:	4c 89 45 a8          	mov    %r8,-0x58(%rbp)
    50d5:	4c 89 4d a0          	mov    %r9,-0x60(%rbp)
    50d9:	48 8b 45 10          	mov    0x10(%rbp),%rax
    50dd:	48 89 45 98          	mov    %rax,-0x68(%rbp)
    50e1:	48 8b 45 18          	mov    0x18(%rbp),%rax
    50e5:	48 89 45 90          	mov    %rax,-0x70(%rbp)
    50e9:	48 8b 45 20          	mov    0x20(%rbp),%rax
    50ed:	48 89 45 88          	mov    %rax,-0x78(%rbp)
    50f1:	48 8b 45 28          	mov    0x28(%rbp),%rax
    50f5:	48 89 45 80          	mov    %rax,-0x80(%rbp)
    50f9:	64 48 8b 04 25 28 00 	mov    %fs:0x28,%rax
    5100:	00 00 
    5102:	48 89 45 e8          	mov    %rax,-0x18(%rbp)
    5106:	31 c0                	xor    %eax,%eax
    5108:	4c 8b 45 88          	mov    -0x78(%rbp),%r8
    510c:	48 8b 7d 90          	mov    -0x70(%rbp),%rdi
    5110:	48 8b 4d 98          	mov    -0x68(%rbp),%rcx
    5114:	48 8b 55 a0          	mov    -0x60(%rbp),%rdx
    5118:	48 8b 75 a8          	mov    -0x58(%rbp),%rsi
    511c:	48 8b 45 c8          	mov    -0x38(%rbp),%rax
    5120:	48 83 ec 08          	sub    $0x8,%rsp
    5124:	ff 75 80             	pushq  -0x80(%rbp)
    5127:	4d 89 c1             	mov    %r8,%r9
    512a:	49 89 f8             	mov    %rdi,%r8
    512d:	48 89 c7             	mov    %rax,%rdi
    5130:	e8 ed 08 00 00       	callq  5a22 <_ZNSt10_HashtableIiSt4pairIKiNSt7__cxx1112basic_stringIcSt11char_traitsIcESaIcEEEESaIS8_ENSt8__detail10_Select1stESt8equal_toIiESt4hashIiENSA_18_Mod_range_hashingENSA_20_Default_ranged_hashENSA_20_Prime_rehash_policyENSA_17_Hashtable_traitsILb0ELb0ELb1EEEEC1ERKSF_RKSG_RKSH_RKSD_RKSB_RKS9_>
    5135:	48 83 c4 10          	add    $0x10,%rsp
    5139:	48 8b 55 b8          	mov    -0x48(%rbp),%rdx
    513d:	48 8b 45 c0          	mov    -0x40(%rbp),%rax
    5141:	48 89 d6             	mov    %rdx,%rsi
    5144:	48 89 c7             	mov    %rax,%rdi
    5147:	e8 f9 09 00 00       	callq  5b45 <_ZNSt8__detail13__distance_fwIPKSt4pairIKiNSt7__cxx1112basic_stringIcSt11char_traitsIcESaIcEEEEEENSt15iterator_traitsIT_E15difference_typeESD_SD_>
    514c:	48 89 45 d8          	mov    %rax,-0x28(%rbp)
    5150:	48 8b 45 c8          	mov    -0x38(%rbp),%rax
    5154:	48 8d 58 20          	lea    0x20(%rax),%rbx
    5158:	48 8b 45 c8          	mov    -0x38(%rbp),%rax
    515c:	48 8d 50 20          	lea    0x20(%rax),%rdx
    5160:	48 8b 45 d8          	mov    -0x28(%rbp),%rax
    5164:	48 89 c6             	mov    %rax,%rsi
    5167:	48 89 d7             	mov    %rdx,%rdi
    516a:	e8 81 dd ff ff       	callq  2ef0 <_ZNKSt8__detail20_Prime_rehash_policy19_M_bkt_for_elementsEm>
    516f:	48 89 45 d0          	mov    %rax,-0x30(%rbp)
    5173:	48 8d 55 b0          	lea    -0x50(%rbp),%rdx
    5177:	48 8d 45 d0          	lea    -0x30(%rbp),%rax
    517b:	48 89 d6             	mov    %rdx,%rsi
    517e:	48 89 c7             	mov    %rax,%rdi
    5181:	e8 d9 ec ff ff       	callq  3e5f <_ZSt3maxImERKT_S2_S2_>
    5186:	48 8b 00             	mov    (%rax),%rax
    5189:	48 89 c6             	mov    %rax,%rsi
    518c:	48 89 df             	mov    %rbx,%rdi
    518f:	e8 3c c3 ff ff       	callq  14d0 <_ZNKSt8__detail20_Prime_rehash_policy11_M_next_bktEm@plt>
    5194:	48 89 45 e0          	mov    %rax,-0x20(%rbp)
    5198:	48 8b 45 c8          	mov    -0x38(%rbp),%rax
    519c:	48 8b 40 08          	mov    0x8(%rax),%rax
    51a0:	48 39 45 e0          	cmp    %rax,-0x20(%rbp)
    51a4:	76 29                	jbe    51cf <_ZNSt10_HashtableIiSt4pairIKiNSt7__cxx1112basic_stringIcSt11char_traitsIcESaIcEEEESaIS8_ENSt8__detail10_Select1stESt8equal_toIiESt4hashIiENSA_18_Mod_range_hashingENSA_20_Default_ranged_hashENSA_20_Prime_rehash_policyENSA_17_Hashtable_traitsILb0ELb0ELb1EEEEC1IPKS8_EET_SP_mRKSF_RKSG_RKSH_RKSD_RKSB_RKS9_+0x117>
    51a6:	48 8b 55 e0          	mov    -0x20(%rbp),%rdx
    51aa:	48 8b 45 c8          	mov    -0x38(%rbp),%rax
    51ae:	48 89 d6             	mov    %rdx,%rsi
    51b1:	48 89 c7             	mov    %rax,%rdi
    51b4:	e8 dd 09 00 00       	callq  5b96 <_ZNSt10_HashtableIiSt4pairIKiNSt7__cxx1112basic_stringIcSt11char_traitsIcESaIcEEEESaIS8_ENSt8__detail10_Select1stESt8equal_toIiESt4hashIiENSA_18_Mod_range_hashingENSA_20_Default_ranged_hashENSA_20_Prime_rehash_policyENSA_17_Hashtable_traitsILb0ELb0ELb1EEEE19_M_allocate_bucketsEm>
    51b9:	48 89 c2             	mov    %rax,%rdx
    51bc:	48 8b 45 c8          	mov    -0x38(%rbp),%rax
    51c0:	48 89 10             	mov    %rdx,(%rax)
    51c3:	48 8b 45 c8          	mov    -0x38(%rbp),%rax
    51c7:	48 8b 55 e0          	mov    -0x20(%rbp),%rdx
    51cb:	48 89 50 08          	mov    %rdx,0x8(%rax)
    51cf:	48 8b 45 c0          	mov    -0x40(%rbp),%rax
    51d3:	48 3b 45 b8          	cmp    -0x48(%rbp),%rax
    51d7:	74 34                	je     520d <_ZNSt10_HashtableIiSt4pairIKiNSt7__cxx1112basic_stringIcSt11char_traitsIcESaIcEEEESaIS8_ENSt8__detail10_Select1stESt8equal_toIiESt4hashIiENSA_18_Mod_range_hashingENSA_20_Default_ranged_hashENSA_20_Prime_rehash_policyENSA_17_Hashtable_traitsILb0ELb0ELb1EEEEC1IPKS8_EET_SP_mRKSF_RKSG_RKSH_RKSD_RKSB_RKS9_+0x155>
    51d9:	48 8b 55 c0          	mov    -0x40(%rbp),%rdx
    51dd:	48 8b 45 c8          	mov    -0x38(%rbp),%rax
    51e1:	48 89 d6             	mov    %rdx,%rsi
    51e4:	48 89 c7             	mov    %rax,%rdi
    51e7:	e8 f6 09 00 00       	callq  5be2 <_ZNSt8__detail12_Insert_baseIiSt4pairIKiNSt7__cxx1112basic_stringIcSt11char_traitsIcESaIcEEEESaIS9_ENS_10_Select1stESt8equal_toIiESt4hashIiENS_18_Mod_range_hashingENS_20_Default_ranged_hashENS_20_Prime_rehash_policyENS_17_Hashtable_traitsILb0ELb0ELb1EEEE6insertERKS9_>
    51ec:	48 83 45 c0 28       	addq   $0x28,-0x40(%rbp)
    51f1:	eb dc                	jmp    51cf <_ZNSt10_HashtableIiSt4pairIKiNSt7__cxx1112basic_stringIcSt11char_traitsIcESaIcEEEESaIS8_ENSt8__detail10_Select1stESt8equal_toIiESt4hashIiENSA_18_Mod_range_hashingENSA_20_Default_ranged_hashENSA_20_Prime_rehash_policyENSA_17_Hashtable_traitsILb0ELb0ELb1EEEEC1IPKS8_EET_SP_mRKSF_RKSG_RKSH_RKSD_RKSB_RKS9_+0x117>
    51f3:	48 89 c3             	mov    %rax,%rbx
    51f6:	48 8b 45 c8          	mov    -0x38(%rbp),%rax
    51fa:	48 89 c7             	mov    %rax,%rdi
    51fd:	e8 52 f3 ff ff       	callq  4554 <_ZNSt10_HashtableIiSt4pairIKiNSt7__cxx1112basic_stringIcSt11char_traitsIcESaIcEEEESaIS8_ENSt8__detail10_Select1stESt8equal_toIiESt4hashIiENSA_18_Mod_range_hashingENSA_20_Default_ranged_hashENSA_20_Prime_rehash_policyENSA_17_Hashtable_traitsILb0ELb0ELb1EEEED1Ev>
    5202:	48 89 d8             	mov    %rbx,%rax
    5205:	48 89 c7             	mov    %rax,%rdi
    5208:	e8 f3 c3 ff ff       	callq  1600 <_Unwind_Resume@plt>
    520d:	90                   	nop
    520e:	48 8b 45 e8          	mov    -0x18(%rbp),%rax
    5212:	64 48 33 04 25 28 00 	xor    %fs:0x28,%rax
    5219:	00 00 
    521b:	74 05                	je     5222 <_ZNSt10_HashtableIiSt4pairIKiNSt7__cxx1112basic_stringIcSt11char_traitsIcESaIcEEEESaIS8_ENSt8__detail10_Select1stESt8equal_toIiESt4hashIiENSA_18_Mod_range_hashingENSA_20_Default_ranged_hashENSA_20_Prime_rehash_policyENSA_17_Hashtable_traitsILb0ELb0ELb1EEEEC1IPKS8_EET_SP_mRKSF_RKSG_RKSH_RKSD_RKSB_RKS9_+0x16a>
    521d:	e8 3e c3 ff ff       	callq  1560 <__stack_chk_fail@plt>
    5222:	48 8b 5d f8          	mov    -0x8(%rbp),%rbx
    5226:	c9                   	leaveq 
    5227:	c3                   	retq   

0000000000005228 <_ZN9__gnu_cxx13new_allocatorINSt8__detail10_Hash_nodeISt4pairIKiNSt7__cxx1112basic_stringIcSt11char_traitsIcESaIcEEEELb0EEEED1Ev>:
    5228:	55                   	push   %rbp
    5229:	48 89 e5             	mov    %rsp,%rbp
    522c:	48 89 7d f8          	mov    %rdi,-0x8(%rbp)
    5230:	90                   	nop
    5231:	5d                   	pop    %rbp
    5232:	c3                   	retq   
    5233:	90                   	nop

0000000000005234 <_ZNKSt10_HashtableIiSt4pairIKiNSt7__cxx1112basic_stringIcSt11char_traitsIcESaIcEEEESaIS8_ENSt8__detail10_Select1stESt8equal_toIiESt4hashIiENSA_18_Mod_range_hashingENSA_20_Default_ranged_hashENSA_20_Prime_rehash_policyENSA_17_Hashtable_traitsILb0ELb0ELb1EEEE8_M_beginEv>:
    5234:	55                   	push   %rbp
    5235:	48 89 e5             	mov    %rsp,%rbp
    5238:	48 89 7d f8          	mov    %rdi,-0x8(%rbp)
    523c:	48 8b 45 f8          	mov    -0x8(%rbp),%rax
    5240:	48 8b 40 10          	mov    0x10(%rax),%rax
    5244:	5d                   	pop    %rbp
    5245:	c3                   	retq   

0000000000005246 <_ZNSt8__detail16_Hashtable_allocISaINS_10_Hash_nodeISt4pairIKiNSt7__cxx1112basic_stringIcSt11char_traitsIcESaIcEEEELb0EEEEE19_M_deallocate_nodesEPSB_>:
    5246:	55                   	push   %rbp
    5247:	48 89 e5             	mov    %rsp,%rbp
    524a:	48 83 ec 20          	sub    $0x20,%rsp
    524e:	48 89 7d e8          	mov    %rdi,-0x18(%rbp)
    5252:	48 89 75 e0          	mov    %rsi,-0x20(%rbp)
    5256:	48 83 7d e0 00       	cmpq   $0x0,-0x20(%rbp)
    525b:	74 2d                	je     528a <_ZNSt8__detail16_Hashtable_allocISaINS_10_Hash_nodeISt4pairIKiNSt7__cxx1112basic_stringIcSt11char_traitsIcESaIcEEEELb0EEEEE19_M_deallocate_nodesEPSB_+0x44>
    525d:	48 8b 45 e0          	mov    -0x20(%rbp),%rax
    5261:	48 89 45 f8          	mov    %rax,-0x8(%rbp)
    5265:	48 8b 45 e0          	mov    -0x20(%rbp),%rax
    5269:	48 89 c7             	mov    %rax,%rdi
    526c:	e8 ef 09 00 00       	callq  5c60 <_ZNKSt8__detail10_Hash_nodeISt4pairIKiNSt7__cxx1112basic_stringIcSt11char_traitsIcESaIcEEEELb0EE7_M_nextEv>
    5271:	48 89 45 e0          	mov    %rax,-0x20(%rbp)
    5275:	48 8b 55 f8          	mov    -0x8(%rbp),%rdx
    5279:	48 8b 45 e8          	mov    -0x18(%rbp),%rax
    527d:	48 89 d6             	mov    %rdx,%rsi
    5280:	48 89 c7             	mov    %rax,%rdi
    5283:	e8 ea 09 00 00       	callq  5c72 <_ZNSt8__detail16_Hashtable_allocISaINS_10_Hash_nodeISt4pairIKiNSt7__cxx1112basic_stringIcSt11char_traitsIcESaIcEEEELb0EEEEE18_M_deallocate_nodeEPSB_>
    5288:	eb cc                	jmp    5256 <_ZNSt8__detail16_Hashtable_allocISaINS_10_Hash_nodeISt4pairIKiNSt7__cxx1112basic_stringIcSt11char_traitsIcESaIcEEEELb0EEEEE19_M_deallocate_nodesEPSB_+0x10>
    528a:	90                   	nop
    528b:	c9                   	leaveq 
    528c:	c3                   	retq   
    528d:	90                   	nop

000000000000528e <_ZNSt10_HashtableIiSt4pairIKiNSt7__cxx1112basic_stringIcSt11char_traitsIcESaIcEEEESaIS8_ENSt8__detail10_Select1stESt8equal_toIiESt4hashIiENSA_18_Mod_range_hashingENSA_20_Default_ranged_hashENSA_20_Prime_rehash_policyENSA_17_Hashtable_traitsILb0ELb0ELb1EEEE21_M_deallocate_bucketsEPPNSA_15_Hash_node_baseEm>:
    528e:	55                   	push   %rbp
    528f:	48 89 e5             	mov    %rsp,%rbp
    5292:	48 83 ec 20          	sub    $0x20,%rsp
    5296:	48 89 7d f8          	mov    %rdi,-0x8(%rbp)
    529a:	48 89 75 f0          	mov    %rsi,-0x10(%rbp)
    529e:	48 89 55 e8          	mov    %rdx,-0x18(%rbp)
    52a2:	48 8b 55 f0          	mov    -0x10(%rbp),%rdx
    52a6:	48 8b 45 f8          	mov    -0x8(%rbp),%rax
    52aa:	48 89 d6             	mov    %rdx,%rsi
    52ad:	48 89 c7             	mov    %rax,%rdi
    52b0:	e8 91 0a 00 00       	callq  5d46 <_ZNKSt10_HashtableIiSt4pairIKiNSt7__cxx1112basic_stringIcSt11char_traitsIcESaIcEEEESaIS8_ENSt8__detail10_Select1stESt8equal_toIiESt4hashIiENSA_18_Mod_range_hashingENSA_20_Default_ranged_hashENSA_20_Prime_rehash_policyENSA_17_Hashtable_traitsILb0ELb0ELb1EEEE21_M_uses_single_bucketEPPNSA_15_Hash_node_baseE>
    52b5:	84 c0                	test   %al,%al
    52b7:	75 19                	jne    52d2 <_ZNSt10_HashtableIiSt4pairIKiNSt7__cxx1112basic_stringIcSt11char_traitsIcESaIcEEEESaIS8_ENSt8__detail10_Select1stESt8equal_toIiESt4hashIiENSA_18_Mod_range_hashingENSA_20_Default_ranged_hashENSA_20_Prime_rehash_policyENSA_17_Hashtable_traitsILb0ELb0ELb1EEEE21_M_deallocate_bucketsEPPNSA_15_Hash_node_baseEm+0x44>
    52b9:	48 8b 55 e8          	mov    -0x18(%rbp),%rdx
    52bd:	48 8b 4d f0          	mov    -0x10(%rbp),%rcx
    52c1:	48 8b 45 f8          	mov    -0x8(%rbp),%rax
    52c5:	48 89 ce             	mov    %rcx,%rsi
    52c8:	48 89 c7             	mov    %rax,%rdi
    52cb:	e8 9c 0a 00 00       	callq  5d6c <_ZNSt8__detail16_Hashtable_allocISaINS_10_Hash_nodeISt4pairIKiNSt7__cxx1112basic_stringIcSt11char_traitsIcESaIcEEEELb0EEEEE21_M_deallocate_bucketsEPPNS_15_Hash_node_baseEm>
    52d0:	eb 01                	jmp    52d3 <_ZNSt10_HashtableIiSt4pairIKiNSt7__cxx1112basic_stringIcSt11char_traitsIcESaIcEEEESaIS8_ENSt8__detail10_Select1stESt8equal_toIiESt4hashIiENSA_18_Mod_range_hashingENSA_20_Default_ranged_hashENSA_20_Prime_rehash_policyENSA_17_Hashtable_traitsILb0ELb0ELb1EEEE21_M_deallocate_bucketsEPPNSA_15_Hash_node_baseEm+0x45>
    52d2:	90                   	nop
    52d3:	c9                   	leaveq 
    52d4:	c3                   	retq   
    52d5:	90                   	nop

00000000000052d6 <_ZNKSt16initializer_listISt4pairIKNSt7__cxx1112basic_stringIcSt11char_traitsIcESaIcEEEmEE4sizeEv>:
    52d6:	55                   	push   %rbp
    52d7:	48 89 e5             	mov    %rsp,%rbp
    52da:	48 89 7d f8          	mov    %rdi,-0x8(%rbp)
    52de:	48 8b 45 f8          	mov    -0x8(%rbp),%rax
    52e2:	48 8b 40 08          	mov    0x8(%rax),%rax
    52e6:	5d                   	pop    %rbp
    52e7:	c3                   	retq   

00000000000052e8 <_ZNSt10_HashtableINSt7__cxx1112basic_stringIcSt11char_traitsIcESaIcEEESt4pairIKS5_mESaIS8_ENSt8__detail10_Select1stESt8equal_toIS5_ESt4hashIS5_ENSA_18_Mod_range_hashingENSA_20_Default_ranged_hashENSA_20_Prime_rehash_policyENSA_17_Hashtable_traitsILb1ELb0ELb1EEEEC1IPKS8_EET_SP_mRKSF_RKSG_RKSH_RKSD_RKSB_RKS9_>:
    52e8:	55                   	push   %rbp
    52e9:	48 89 e5             	mov    %rsp,%rbp
    52ec:	53                   	push   %rbx
    52ed:	48 83 ec 78          	sub    $0x78,%rsp
    52f1:	48 89 7d c8          	mov    %rdi,-0x38(%rbp)
    52f5:	48 89 75 c0          	mov    %rsi,-0x40(%rbp)
    52f9:	48 89 55 b8          	mov    %rdx,-0x48(%rbp)
    52fd:	48 89 4d b0          	mov    %rcx,-0x50(%rbp)
    5301:	4c 89 45 a8          	mov    %r8,-0x58(%rbp)
    5305:	4c 89 4d a0          	mov    %r9,-0x60(%rbp)
    5309:	48 8b 45 10          	mov    0x10(%rbp),%rax
    530d:	48 89 45 98          	mov    %rax,-0x68(%rbp)
    5311:	48 8b 45 18          	mov    0x18(%rbp),%rax
    5315:	48 89 45 90          	mov    %rax,-0x70(%rbp)
    5319:	48 8b 45 20          	mov    0x20(%rbp),%rax
    531d:	48 89 45 88          	mov    %rax,-0x78(%rbp)
    5321:	48 8b 45 28          	mov    0x28(%rbp),%rax
    5325:	48 89 45 80          	mov    %rax,-0x80(%rbp)
    5329:	64 48 8b 04 25 28 00 	mov    %fs:0x28,%rax
    5330:	00 00 
    5332:	48 89 45 e8          	mov    %rax,-0x18(%rbp)
    5336:	31 c0                	xor    %eax,%eax
    5338:	4c 8b 45 88          	mov    -0x78(%rbp),%r8
    533c:	48 8b 7d 90          	mov    -0x70(%rbp),%rdi
    5340:	48 8b 4d 98          	mov    -0x68(%rbp),%rcx
    5344:	48 8b 55 a0          	mov    -0x60(%rbp),%rdx
    5348:	48 8b 75 a8          	mov    -0x58(%rbp),%rsi
    534c:	48 8b 45 c8          	mov    -0x38(%rbp),%rax
    5350:	48 83 ec 08          	sub    $0x8,%rsp
    5354:	ff 75 80             	pushq  -0x80(%rbp)
    5357:	4d 89 c1             	mov    %r8,%r9
    535a:	49 89 f8             	mov    %rdi,%r8
    535d:	48 89 c7             	mov    %rax,%rdi
    5360:	e8 b5 0a 00 00       	callq  5e1a <_ZNSt10_HashtableINSt7__cxx1112basic_stringIcSt11char_traitsIcESaIcEEESt4pairIKS5_mESaIS8_ENSt8__detail10_Select1stESt8equal_toIS5_ESt4hashIS5_ENSA_18_Mod_range_hashingENSA_20_Default_ranged_hashENSA_20_Prime_rehash_policyENSA_17_Hashtable_traitsILb1ELb0ELb1EEEEC1ERKSF_RKSG_RKSH_RKSD_RKSB_RKS9_>
    5365:	48 83 c4 10          	add    $0x10,%rsp
    5369:	48 8b 55 b8          	mov    -0x48(%rbp),%rdx
    536d:	48 8b 45 c0          	mov    -0x40(%rbp),%rax
    5371:	48 89 d6             	mov    %rdx,%rsi
    5374:	48 89 c7             	mov    %rax,%rdi
    5377:	e8 c1 0b 00 00       	callq  5f3d <_ZNSt8__detail13__distance_fwIPKSt4pairIKNSt7__cxx1112basic_stringIcSt11char_traitsIcESaIcEEEmEEENSt15iterator_traitsIT_E15difference_typeESD_SD_>
    537c:	48 89 45 d8          	mov    %rax,-0x28(%rbp)
    5380:	48 8b 45 c8          	mov    -0x38(%rbp),%rax
    5384:	48 8d 58 20          	lea    0x20(%rax),%rbx
    5388:	48 8b 45 c8          	mov    -0x38(%rbp),%rax
    538c:	48 8d 50 20          	lea    0x20(%rax),%rdx
    5390:	48 8b 45 d8          	mov    -0x28(%rbp),%rax
    5394:	48 89 c6             	mov    %rax,%rsi
    5397:	48 89 d7             	mov    %rdx,%rdi
    539a:	e8 51 db ff ff       	callq  2ef0 <_ZNKSt8__detail20_Prime_rehash_policy19_M_bkt_for_elementsEm>
    539f:	48 89 45 d0          	mov    %rax,-0x30(%rbp)
    53a3:	48 8d 55 b0          	lea    -0x50(%rbp),%rdx
    53a7:	48 8d 45 d0          	lea    -0x30(%rbp),%rax
    53ab:	48 89 d6             	mov    %rdx,%rsi
    53ae:	48 89 c7             	mov    %rax,%rdi
    53b1:	e8 a9 ea ff ff       	callq  3e5f <_ZSt3maxImERKT_S2_S2_>
    53b6:	48 8b 00             	mov    (%rax),%rax
    53b9:	48 89 c6             	mov    %rax,%rsi
    53bc:	48 89 df             	mov    %rbx,%rdi
    53bf:	e8 0c c1 ff ff       	callq  14d0 <_ZNKSt8__detail20_Prime_rehash_policy11_M_next_bktEm@plt>
    53c4:	48 89 45 e0          	mov    %rax,-0x20(%rbp)
    53c8:	48 8b 45 c8          	mov    -0x38(%rbp),%rax
    53cc:	48 8b 40 08          	mov    0x8(%rax),%rax
    53d0:	48 39 45 e0          	cmp    %rax,-0x20(%rbp)
    53d4:	76 29                	jbe    53ff <_ZNSt10_HashtableINSt7__cxx1112basic_stringIcSt11char_traitsIcESaIcEEESt4pairIKS5_mESaIS8_ENSt8__detail10_Select1stESt8equal_toIS5_ESt4hashIS5_ENSA_18_Mod_range_hashingENSA_20_Default_ranged_hashENSA_20_Prime_rehash_policyENSA_17_Hashtable_traitsILb1ELb0ELb1EEEEC1IPKS8_EET_SP_mRKSF_RKSG_RKSH_RKSD_RKSB_RKS9_+0x117>
    53d6:	48 8b 55 e0          	mov    -0x20(%rbp),%rdx
    53da:	48 8b 45 c8          	mov    -0x38(%rbp),%rax
    53de:	48 89 d6             	mov    %rdx,%rsi
    53e1:	48 89 c7             	mov    %rax,%rdi
    53e4:	e8 a5 0b 00 00       	callq  5f8e <_ZNSt10_HashtableINSt7__cxx1112basic_stringIcSt11char_traitsIcESaIcEEESt4pairIKS5_mESaIS8_ENSt8__detail10_Select1stESt8equal_toIS5_ESt4hashIS5_ENSA_18_Mod_range_hashingENSA_20_Default_ranged_hashENSA_20_Prime_rehash_policyENSA_17_Hashtable_traitsILb1ELb0ELb1EEEE19_M_allocate_bucketsEm>
    53e9:	48 89 c2             	mov    %rax,%rdx
    53ec:	48 8b 45 c8          	mov    -0x38(%rbp),%rax
    53f0:	48 89 10             	mov    %rdx,(%rax)
    53f3:	48 8b 45 c8          	mov    -0x38(%rbp),%rax
    53f7:	48 8b 55 e0          	mov    -0x20(%rbp),%rdx
    53fb:	48 89 50 08          	mov    %rdx,0x8(%rax)
    53ff:	48 8b 45 c0          	mov    -0x40(%rbp),%rax
    5403:	48 3b 45 b8          	cmp    -0x48(%rbp),%rax
    5407:	74 34                	je     543d <_ZNSt10_HashtableINSt7__cxx1112basic_stringIcSt11char_traitsIcESaIcEEESt4pairIKS5_mESaIS8_ENSt8__detail10_Select1stESt8equal_toIS5_ESt4hashIS5_ENSA_18_Mod_range_hashingENSA_20_Default_ranged_hashENSA_20_Prime_rehash_policyENSA_17_Hashtable_traitsILb1ELb0ELb1EEEEC1IPKS8_EET_SP_mRKSF_RKSG_RKSH_RKSD_RKSB_RKS9_+0x155>
    5409:	48 8b 55 c0          	mov    -0x40(%rbp),%rdx
    540d:	48 8b 45 c8          	mov    -0x38(%rbp),%rax
    5411:	48 89 d6             	mov    %rdx,%rsi
    5414:	48 89 c7             	mov    %rax,%rdi
    5417:	e8 be 0b 00 00       	callq  5fda <_ZNSt8__detail12_Insert_baseINSt7__cxx1112basic_stringIcSt11char_traitsIcESaIcEEESt4pairIKS6_mESaIS9_ENS_10_Select1stESt8equal_toIS6_ESt4hashIS6_ENS_18_Mod_range_hashingENS_20_Default_ranged_hashENS_20_Prime_rehash_policyENS_17_Hashtable_traitsILb1ELb0ELb1EEEE6insertERKS9_>
    541c:	48 83 45 c0 28       	addq   $0x28,-0x40(%rbp)
    5421:	eb dc                	jmp    53ff <_ZNSt10_HashtableINSt7__cxx1112basic_stringIcSt11char_traitsIcESaIcEEESt4pairIKS5_mESaIS8_ENSt8__detail10_Select1stESt8equal_toIS5_ESt4hashIS5_ENSA_18_Mod_range_hashingENSA_20_Default_ranged_hashENSA_20_Prime_rehash_policyENSA_17_Hashtable_traitsILb1ELb0ELb1EEEEC1IPKS8_EET_SP_mRKSF_RKSG_RKSH_RKSD_RKSB_RKS9_+0x117>
    5423:	48 89 c3             	mov    %rax,%rbx
    5426:	48 8b 45 c8          	mov    -0x38(%rbp),%rax
    542a:	48 89 c7             	mov    %rax,%rdi
    542d:	e8 24 f2 ff ff       	callq  4656 <_ZNSt10_HashtableINSt7__cxx1112basic_stringIcSt11char_traitsIcESaIcEEESt4pairIKS5_mESaIS8_ENSt8__detail10_Select1stESt8equal_toIS5_ESt4hashIS5_ENSA_18_Mod_range_hashingENSA_20_Default_ranged_hashENSA_20_Prime_rehash_policyENSA_17_Hashtable_traitsILb1ELb0ELb1EEEED1Ev>
    5432:	48 89 d8             	mov    %rbx,%rax
    5435:	48 89 c7             	mov    %rax,%rdi
    5438:	e8 c3 c1 ff ff       	callq  1600 <_Unwind_Resume@plt>
    543d:	90                   	nop
    543e:	48 8b 45 e8          	mov    -0x18(%rbp),%rax
    5442:	64 48 33 04 25 28 00 	xor    %fs:0x28,%rax
    5449:	00 00 
    544b:	74 05                	je     5452 <_ZNSt10_HashtableINSt7__cxx1112basic_stringIcSt11char_traitsIcESaIcEEESt4pairIKS5_mESaIS8_ENSt8__detail10_Select1stESt8equal_toIS5_ESt4hashIS5_ENSA_18_Mod_range_hashingENSA_20_Default_ranged_hashENSA_20_Prime_rehash_policyENSA_17_Hashtable_traitsILb1ELb0ELb1EEEEC1IPKS8_EET_SP_mRKSF_RKSG_RKSH_RKSD_RKSB_RKS9_+0x16a>
    544d:	e8 0e c1 ff ff       	callq  1560 <__stack_chk_fail@plt>
    5452:	48 8b 5d f8          	mov    -0x8(%rbp),%rbx
    5456:	c9                   	leaveq 
    5457:	c3                   	retq   

0000000000005458 <_ZN9__gnu_cxx13new_allocatorINSt8__detail10_Hash_nodeISt4pairIKNSt7__cxx1112basic_stringIcSt11char_traitsIcESaIcEEEmELb1EEEED1Ev>:
    5458:	55                   	push   %rbp
    5459:	48 89 e5             	mov    %rsp,%rbp
    545c:	48 89 7d f8          	mov    %rdi,-0x8(%rbp)
    5460:	90                   	nop
    5461:	5d                   	pop    %rbp
    5462:	c3                   	retq   
    5463:	90                   	nop

0000000000005464 <_ZNKSt10_HashtableINSt7__cxx1112basic_stringIcSt11char_traitsIcESaIcEEESt4pairIKS5_mESaIS8_ENSt8__detail10_Select1stESt8equal_toIS5_ESt4hashIS5_ENSA_18_Mod_range_hashingENSA_20_Default_ranged_hashENSA_20_Prime_rehash_policyENSA_17_Hashtable_traitsILb1ELb0ELb1EEEE8_M_beginEv>:
    5464:	55                   	push   %rbp
    5465:	48 89 e5             	mov    %rsp,%rbp
    5468:	48 89 7d f8          	mov    %rdi,-0x8(%rbp)
    546c:	48 8b 45 f8          	mov    -0x8(%rbp),%rax
    5470:	48 8b 40 10          	mov    0x10(%rax),%rax
    5474:	5d                   	pop    %rbp
    5475:	c3                   	retq   

0000000000005476 <_ZNSt8__detail16_Hashtable_allocISaINS_10_Hash_nodeISt4pairIKNSt7__cxx1112basic_stringIcSt11char_traitsIcESaIcEEEmELb1EEEEE19_M_deallocate_nodesEPSB_>:
    5476:	55                   	push   %rbp
    5477:	48 89 e5             	mov    %rsp,%rbp
    547a:	48 83 ec 20          	sub    $0x20,%rsp
    547e:	48 89 7d e8          	mov    %rdi,-0x18(%rbp)
    5482:	48 89 75 e0          	mov    %rsi,-0x20(%rbp)
    5486:	48 83 7d e0 00       	cmpq   $0x0,-0x20(%rbp)
    548b:	74 2d                	je     54ba <_ZNSt8__detail16_Hashtable_allocISaINS_10_Hash_nodeISt4pairIKNSt7__cxx1112basic_stringIcSt11char_traitsIcESaIcEEEmELb1EEEEE19_M_deallocate_nodesEPSB_+0x44>
    548d:	48 8b 45 e0          	mov    -0x20(%rbp),%rax
    5491:	48 89 45 f8          	mov    %rax,-0x8(%rbp)
    5495:	48 8b 45 e0          	mov    -0x20(%rbp),%rax
    5499:	48 89 c7             	mov    %rax,%rdi
    549c:	e8 5d 01 00 00       	callq  55fe <_ZNKSt8__detail10_Hash_nodeISt4pairIKNSt7__cxx1112basic_stringIcSt11char_traitsIcESaIcEEEmELb1EE7_M_nextEv>
    54a1:	48 89 45 e0          	mov    %rax,-0x20(%rbp)
    54a5:	48 8b 55 f8          	mov    -0x8(%rbp),%rdx
    54a9:	48 8b 45 e8          	mov    -0x18(%rbp),%rax
    54ad:	48 89 d6             	mov    %rdx,%rsi
    54b0:	48 89 c7             	mov    %rax,%rdi
    54b3:	e8 a0 0b 00 00       	callq  6058 <_ZNSt8__detail16_Hashtable_allocISaINS_10_Hash_nodeISt4pairIKNSt7__cxx1112basic_stringIcSt11char_traitsIcESaIcEEEmELb1EEEEE18_M_deallocate_nodeEPSB_>
    54b8:	eb cc                	jmp    5486 <_ZNSt8__detail16_Hashtable_allocISaINS_10_Hash_nodeISt4pairIKNSt7__cxx1112basic_stringIcSt11char_traitsIcESaIcEEEmELb1EEEEE19_M_deallocate_nodesEPSB_+0x10>
    54ba:	90                   	nop
    54bb:	c9                   	leaveq 
    54bc:	c3                   	retq   
    54bd:	90                   	nop

00000000000054be <_ZNSt10_HashtableINSt7__cxx1112basic_stringIcSt11char_traitsIcESaIcEEESt4pairIKS5_mESaIS8_ENSt8__detail10_Select1stESt8equal_toIS5_ESt4hashIS5_ENSA_18_Mod_range_hashingENSA_20_Default_ranged_hashENSA_20_Prime_rehash_policyENSA_17_Hashtable_traitsILb1ELb0ELb1EEEE21_M_deallocate_bucketsEPPNSA_15_Hash_node_baseEm>:
    54be:	55                   	push   %rbp
    54bf:	48 89 e5             	mov    %rsp,%rbp
    54c2:	48 83 ec 20          	sub    $0x20,%rsp
    54c6:	48 89 7d f8          	mov    %rdi,-0x8(%rbp)
    54ca:	48 89 75 f0          	mov    %rsi,-0x10(%rbp)
    54ce:	48 89 55 e8          	mov    %rdx,-0x18(%rbp)
    54d2:	48 8b 55 f0          	mov    -0x10(%rbp),%rdx
    54d6:	48 8b 45 f8          	mov    -0x8(%rbp),%rax
    54da:	48 89 d6             	mov    %rdx,%rsi
    54dd:	48 89 c7             	mov    %rax,%rdi
    54e0:	e8 47 0c 00 00       	callq  612c <_ZNKSt10_HashtableINSt7__cxx1112basic_stringIcSt11char_traitsIcESaIcEEESt4pairIKS5_mESaIS8_ENSt8__detail10_Select1stESt8equal_toIS5_ESt4hashIS5_ENSA_18_Mod_range_hashingENSA_20_Default_ranged_hashENSA_20_Prime_rehash_policyENSA_17_Hashtable_traitsILb1ELb0ELb1EEEE21_M_uses_single_bucketEPPNSA_15_Hash_node_baseE>
    54e5:	84 c0                	test   %al,%al
    54e7:	75 19                	jne    5502 <_ZNSt10_HashtableINSt7__cxx1112basic_stringIcSt11char_traitsIcESaIcEEESt4pairIKS5_mESaIS8_ENSt8__detail10_Select1stESt8equal_toIS5_ESt4hashIS5_ENSA_18_Mod_range_hashingENSA_20_Default_ranged_hashENSA_20_Prime_rehash_policyENSA_17_Hashtable_traitsILb1ELb0ELb1EEEE21_M_deallocate_bucketsEPPNSA_15_Hash_node_baseEm+0x44>
    54e9:	48 8b 55 e8          	mov    -0x18(%rbp),%rdx
    54ed:	48 8b 4d f0          	mov    -0x10(%rbp),%rcx
    54f1:	48 8b 45 f8          	mov    -0x8(%rbp),%rax
    54f5:	48 89 ce             	mov    %rcx,%rsi
    54f8:	48 89 c7             	mov    %rax,%rdi
    54fb:	e8 52 0c 00 00       	callq  6152 <_ZNSt8__detail16_Hashtable_allocISaINS_10_Hash_nodeISt4pairIKNSt7__cxx1112basic_stringIcSt11char_traitsIcESaIcEEEmELb1EEEEE21_M_deallocate_bucketsEPPNS_15_Hash_node_baseEm>
    5500:	eb 01                	jmp    5503 <_ZNSt10_HashtableINSt7__cxx1112basic_stringIcSt11char_traitsIcESaIcEEESt4pairIKS5_mESaIS8_ENSt8__detail10_Select1stESt8equal_toIS5_ESt4hashIS5_ENSA_18_Mod_range_hashingENSA_20_Default_ranged_hashENSA_20_Prime_rehash_policyENSA_17_Hashtable_traitsILb1ELb0ELb1EEEE21_M_deallocate_bucketsEPPNSA_15_Hash_node_baseEm+0x45>
    5502:	90                   	nop
    5503:	c9                   	leaveq 
    5504:	c3                   	retq   
    5505:	90                   	nop

0000000000005506 <_ZNSt10_HashtableIPKcSt4pairIKS1_NSt7__cxx1112basic_stringIcSt11char_traitsIcESaIcEEEESaISA_ENSt8__detail10_Select1stESt8equal_toIS1_ESt4hashIS1_ENSC_18_Mod_range_hashingENSC_20_Default_ranged_hashENSC_20_Prime_rehash_policyENSC_17_Hashtable_traitsILb0ELb0ELb1EEEE4findERS3_>:
    5506:	55                   	push   %rbp
    5507:	48 89 e5             	mov    %rsp,%rbp
    550a:	48 83 ec 40          	sub    $0x40,%rsp
    550e:	48 89 7d c8          	mov    %rdi,-0x38(%rbp)
    5512:	48 89 75 c0          	mov    %rsi,-0x40(%rbp)
    5516:	64 48 8b 04 25 28 00 	mov    %fs:0x28,%rax
    551d:	00 00 
    551f:	48 89 45 f8          	mov    %rax,-0x8(%rbp)
    5523:	31 c0                	xor    %eax,%eax
    5525:	48 8b 55 c0          	mov    -0x40(%rbp),%rdx
    5529:	48 8b 45 c8          	mov    -0x38(%rbp),%rax
    552d:	48 89 d6             	mov    %rdx,%rsi
    5530:	48 89 c7             	mov    %rax,%rdi
    5533:	e8 c8 0c 00 00       	callq  6200 <_ZNKSt8__detail15_Hash_code_baseIPKcSt4pairIKS2_NSt7__cxx1112basic_stringIcSt11char_traitsIcESaIcEEEENS_10_Select1stESt4hashIS2_ENS_18_Mod_range_hashingENS_20_Default_ranged_hashELb0EE12_M_hash_codeERS4_>
    5538:	48 89 45 e0          	mov    %rax,-0x20(%rbp)
    553c:	48 8b 55 e0          	mov    -0x20(%rbp),%rdx
    5540:	48 8b 4d c0          	mov    -0x40(%rbp),%rcx
    5544:	48 8b 45 c8          	mov    -0x38(%rbp),%rax
    5548:	48 89 ce             	mov    %rcx,%rsi
    554b:	48 89 c7             	mov    %rax,%rdi
    554e:	e8 e1 0c 00 00       	callq  6234 <_ZNKSt10_HashtableIPKcSt4pairIKS1_NSt7__cxx1112basic_stringIcSt11char_traitsIcESaIcEEEESaISA_ENSt8__detail10_Select1stESt8equal_toIS1_ESt4hashIS1_ENSC_18_Mod_range_hashingENSC_20_Default_ranged_hashENSC_20_Prime_rehash_policyENSC_17_Hashtable_traitsILb0ELb0ELb1EEEE15_M_bucket_indexERS3_m>
    5553:	48 89 45 e8          	mov    %rax,-0x18(%rbp)
    5557:	48 8b 4d e0          	mov    -0x20(%rbp),%rcx
    555b:	48 8b 55 c0          	mov    -0x40(%rbp),%rdx
    555f:	48 8b 75 e8          	mov    -0x18(%rbp),%rsi
    5563:	48 8b 45 c8          	mov    -0x38(%rbp),%rax
    5567:	48 89 c7             	mov    %rax,%rdi
    556a:	e8 f7 0c 00 00       	callq  6266 <_ZNKSt10_HashtableIPKcSt4pairIKS1_NSt7__cxx1112basic_stringIcSt11char_traitsIcESaIcEEEESaISA_ENSt8__detail10_Select1stESt8equal_toIS1_ESt4hashIS1_ENSC_18_Mod_range_hashingENSC_20_Default_ranged_hashENSC_20_Prime_rehash_policyENSC_17_Hashtable_traitsILb0ELb0ELb1EEEE12_M_find_nodeEmRS3_m>
    556f:	48 89 45 f0          	mov    %rax,-0x10(%rbp)
    5573:	48 83 7d f0 00       	cmpq   $0x0,-0x10(%rbp)
    5578:	74 15                	je     558f <_ZNSt10_HashtableIPKcSt4pairIKS1_NSt7__cxx1112basic_stringIcSt11char_traitsIcESaIcEEEESaISA_ENSt8__detail10_Select1stESt8equal_toIS1_ESt4hashIS1_ENSC_18_Mod_range_hashingENSC_20_Default_ranged_hashENSC_20_Prime_rehash_policyENSC_17_Hashtable_traitsILb0ELb0ELb1EEEE4findERS3_+0x89>
    557a:	48 8b 55 f0          	mov    -0x10(%rbp),%rdx
    557e:	48 8d 45 d8          	lea    -0x28(%rbp),%rax
    5582:	48 89 d6             	mov    %rdx,%rsi
    5585:	48 89 c7             	mov    %rax,%rdi
    5588:	e8 25 0d 00 00       	callq  62b2 <_ZNSt8__detail14_Node_iteratorISt4pairIKPKcNSt7__cxx1112basic_stringIcSt11char_traitsIcESaIcEEEELb0ELb0EEC1EPNS_10_Hash_nodeISB_Lb0EEE>
    558d:	eb 10                	jmp    559f <_ZNSt10_HashtableIPKcSt4pairIKS1_NSt7__cxx1112basic_stringIcSt11char_traitsIcESaIcEEEESaISA_ENSt8__detail10_Select1stESt8equal_toIS1_ESt4hashIS1_ENSC_18_Mod_range_hashingENSC_20_Default_ranged_hashENSC_20_Prime_rehash_policyENSC_17_Hashtable_traitsILb0ELb0ELb1EEEE4findERS3_+0x99>
    558f:	48 8b 45 c8          	mov    -0x38(%rbp),%rax
    5593:	48 89 c7             	mov    %rax,%rdi
    5596:	e8 3d 0d 00 00       	callq  62d8 <_ZNSt10_HashtableIPKcSt4pairIKS1_NSt7__cxx1112basic_stringIcSt11char_traitsIcESaIcEEEESaISA_ENSt8__detail10_Select1stESt8equal_toIS1_ESt4hashIS1_ENSC_18_Mod_range_hashingENSC_20_Default_ranged_hashENSC_20_Prime_rehash_policyENSC_17_Hashtable_traitsILb0ELb0ELb1EEEE3endEv>
    559b:	48 89 45 d8          	mov    %rax,-0x28(%rbp)
    559f:	48 8b 45 d8          	mov    -0x28(%rbp),%rax
    55a3:	48 8b 4d f8          	mov    -0x8(%rbp),%rcx
    55a7:	64 48 33 0c 25 28 00 	xor    %fs:0x28,%rcx
    55ae:	00 00 
    55b0:	74 05                	je     55b7 <_ZNSt10_HashtableIPKcSt4pairIKS1_NSt7__cxx1112basic_stringIcSt11char_traitsIcESaIcEEEESaISA_ENSt8__detail10_Select1stESt8equal_toIS1_ESt4hashIS1_ENSC_18_Mod_range_hashingENSC_20_Default_ranged_hashENSC_20_Prime_rehash_policyENSC_17_Hashtable_traitsILb0ELb0ELb1EEEE4findERS3_+0xb1>
    55b2:	e8 a9 bf ff ff       	callq  1560 <__stack_chk_fail@plt>
    55b7:	c9                   	leaveq 
    55b8:	c3                   	retq   
    55b9:	90                   	nop

00000000000055ba <_ZNSt8__detail21_Hash_node_value_baseISt4pairIKPKcNSt7__cxx1112basic_stringIcSt11char_traitsIcESaIcEEEEE9_M_valptrEv>:
    55ba:	55                   	push   %rbp
    55bb:	48 89 e5             	mov    %rsp,%rbp
    55be:	48 83 ec 10          	sub    $0x10,%rsp
    55c2:	48 89 7d f8          	mov    %rdi,-0x8(%rbp)
    55c6:	48 8b 45 f8          	mov    -0x8(%rbp),%rax
    55ca:	48 83 c0 08          	add    $0x8,%rax
    55ce:	48 89 c7             	mov    %rax,%rdi
    55d1:	e8 48 0d 00 00       	callq  631e <_ZN9__gnu_cxx16__aligned_bufferISt4pairIKPKcNSt7__cxx1112basic_stringIcSt11char_traitsIcESaIcEEEEE6_M_ptrEv>
    55d6:	c9                   	leaveq 
    55d7:	c3                   	retq   

00000000000055d8 <_ZNSt8__detail14_Node_iteratorISt4pairIKNSt7__cxx1112basic_stringIcSt11char_traitsIcESaIcEEEmELb0ELb1EEC1EPNS_10_Hash_nodeIS9_Lb1EEE>:
    55d8:	55                   	push   %rbp
    55d9:	48 89 e5             	mov    %rsp,%rbp
    55dc:	48 83 ec 10          	sub    $0x10,%rsp
    55e0:	48 89 7d f8          	mov    %rdi,-0x8(%rbp)
    55e4:	48 89 75 f0          	mov    %rsi,-0x10(%rbp)
    55e8:	48 8b 45 f8          	mov    -0x8(%rbp),%rax
    55ec:	48 8b 55 f0          	mov    -0x10(%rbp),%rdx
    55f0:	48 89 d6             	mov    %rdx,%rsi
    55f3:	48 89 c7             	mov    %rax,%rdi
    55f6:	e8 3d 0d 00 00       	callq  6338 <_ZNSt8__detail19_Node_iterator_baseISt4pairIKNSt7__cxx1112basic_stringIcSt11char_traitsIcESaIcEEEmELb1EEC1EPNS_10_Hash_nodeIS9_Lb1EEE>
    55fb:	90                   	nop
    55fc:	c9                   	leaveq 
    55fd:	c3                   	retq   

00000000000055fe <_ZNKSt8__detail10_Hash_nodeISt4pairIKNSt7__cxx1112basic_stringIcSt11char_traitsIcESaIcEEEmELb1EE7_M_nextEv>:
    55fe:	55                   	push   %rbp
    55ff:	48 89 e5             	mov    %rsp,%rbp
    5602:	48 89 7d f8          	mov    %rdi,-0x8(%rbp)
    5606:	48 8b 45 f8          	mov    -0x8(%rbp),%rax
    560a:	48 8b 00             	mov    (%rax),%rax
    560d:	5d                   	pop    %rbp
    560e:	c3                   	retq   
    560f:	90                   	nop

0000000000005610 <_ZN9__gnu_cxx16__aligned_bufferISt4pairIKNSt7__cxx1112basic_stringIcSt11char_traitsIcESaIcEEEmEE6_M_ptrEv>:
    5610:	55                   	push   %rbp
    5611:	48 89 e5             	mov    %rsp,%rbp
    5614:	48 83 ec 10          	sub    $0x10,%rsp
    5618:	48 89 7d f8          	mov    %rdi,-0x8(%rbp)
    561c:	48 8b 45 f8          	mov    -0x8(%rbp),%rax
    5620:	48 89 c7             	mov    %rax,%rdi
    5623:	e8 2a 0d 00 00       	callq  6352 <_ZN9__gnu_cxx16__aligned_bufferISt4pairIKNSt7__cxx1112basic_stringIcSt11char_traitsIcESaIcEEEmEE7_M_addrEv>
    5628:	c9                   	leaveq 
    5629:	c3                   	retq   

000000000000562a <_ZNSt10_HashtableIPKcSt4pairIKS1_NSt7__cxx1112basic_stringIcSt11char_traitsIcESaIcEEEESaISA_ENSt8__detail10_Select1stESt8equal_toIS1_ESt4hashIS1_ENSC_18_Mod_range_hashingENSC_20_Default_ranged_hashENSC_20_Prime_rehash_policyENSC_17_Hashtable_traitsILb0ELb0ELb1EEEEC1ERKSH_RKSI_RKSJ_RKSF_RKSD_RKSB_>:
    562a:	55                   	push   %rbp
    562b:	48 89 e5             	mov    %rsp,%rbp
    562e:	53                   	push   %rbx
    562f:	48 83 ec 58          	sub    $0x58,%rsp
    5633:	48 89 7d d8          	mov    %rdi,-0x28(%rbp)
    5637:	48 89 75 d0          	mov    %rsi,-0x30(%rbp)
    563b:	48 89 55 c8          	mov    %rdx,-0x38(%rbp)
    563f:	48 89 4d c0          	mov    %rcx,-0x40(%rbp)
    5643:	4c 89 45 b8          	mov    %r8,-0x48(%rbp)
    5647:	4c 89 4d b0          	mov    %r9,-0x50(%rbp)
    564b:	48 8b 45 10          	mov    0x10(%rbp),%rax
    564f:	48 89 45 a8          	mov    %rax,-0x58(%rbp)
    5653:	64 48 8b 04 25 28 00 	mov    %fs:0x28,%rax
    565a:	00 00 
    565c:	48 89 45 e8          	mov    %rax,-0x18(%rbp)
    5660:	31 c0                	xor    %eax,%eax
    5662:	4c 8b 45 b8          	mov    -0x48(%rbp),%r8
    5666:	48 8b 7d c0          	mov    -0x40(%rbp),%rdi
    566a:	48 8b 4d c8          	mov    -0x38(%rbp),%rcx
    566e:	48 8b 55 d0          	mov    -0x30(%rbp),%rdx
    5672:	48 8b 75 b0          	mov    -0x50(%rbp),%rsi
    5676:	48 8b 45 d8          	mov    -0x28(%rbp),%rax
    567a:	4d 89 c1             	mov    %r8,%r9
    567d:	49 89 f8             	mov    %rdi,%r8
    5680:	48 89 c7             	mov    %rax,%rdi
    5683:	e8 f8 0c 00 00       	callq  6380 <_ZNSt8__detail15_Hashtable_baseIPKcSt4pairIKS2_NSt7__cxx1112basic_stringIcSt11char_traitsIcESaIcEEEENS_10_Select1stESt8equal_toIS2_ESt4hashIS2_ENS_18_Mod_range_hashingENS_20_Default_ranged_hashENS_17_Hashtable_traitsILb0ELb0ELb1EEEEC1ERKSC_RKSG_RKSH_RKSI_RKSE_>
    5688:	48 8b 55 a8          	mov    -0x58(%rbp),%rdx
    568c:	48 8d 45 e7          	lea    -0x19(%rbp),%rax
    5690:	48 89 d6             	mov    %rdx,%rsi
    5693:	48 89 c7             	mov    %rax,%rdi
    5696:	e8 c5 0c 00 00       	callq  6360 <_ZNSaINSt8__detail10_Hash_nodeISt4pairIKPKcNSt7__cxx1112basic_stringIcSt11char_traitsIcESaIcEEEELb0EEEEC1ISB_EERKSaIT_E>
    569b:	48 8d 55 e7          	lea    -0x19(%rbp),%rdx
    569f:	48 8b 45 d8          	mov    -0x28(%rbp),%rax
    56a3:	48 89 d6             	mov    %rdx,%rsi
    56a6:	48 89 c7             	mov    %rax,%rdi
    56a9:	e8 36 0d 00 00       	callq  63e4 <_ZNSt8__detail16_Hashtable_allocISaINS_10_Hash_nodeISt4pairIKPKcNSt7__cxx1112basic_stringIcSt11char_traitsIcESaIcEEEELb0EEEEEC1ISE_EEOT_>
    56ae:	48 8d 45 e7          	lea    -0x19(%rbp),%rax
    56b2:	48 89 c7             	mov    %rax,%rdi
    56b5:	e8 34 f2 ff ff       	callq  48ee <_ZNSaINSt8__detail10_Hash_nodeISt4pairIKPKcNSt7__cxx1112basic_stringIcSt11char_traitsIcESaIcEEEELb0EEEED1Ev>
    56ba:	48 8b 45 d8          	mov    -0x28(%rbp),%rax
    56be:	48 8d 50 30          	lea    0x30(%rax),%rdx
    56c2:	48 8b 45 d8          	mov    -0x28(%rbp),%rax
    56c6:	48 89 10             	mov    %rdx,(%rax)
    56c9:	48 8b 45 d8          	mov    -0x28(%rbp),%rax
    56cd:	48 c7 40 08 01 00 00 	movq   $0x1,0x8(%rax)
    56d4:	00 
    56d5:	48 8b 45 d8          	mov    -0x28(%rbp),%rax
    56d9:	48 83 c0 10          	add    $0x10,%rax
    56dd:	48 89 c7             	mov    %rax,%rdi
    56e0:	e8 a9 d7 ff ff       	callq  2e8e <_ZNSt8__detail15_Hash_node_baseC1Ev>
    56e5:	48 8b 45 d8          	mov    -0x28(%rbp),%rax
    56e9:	48 c7 40 18 00 00 00 	movq   $0x0,0x18(%rax)
    56f0:	00 
    56f1:	48 8b 45 d8          	mov    -0x28(%rbp),%rax
    56f5:	48 83 c0 20          	add    $0x20,%rax
    56f9:	f3 0f 10 05 6f 4c 00 	movss  0x4c6f(%rip),%xmm0        # a370 <_ZStL6ignore+0x2de>
    5700:	00 
    5701:	48 89 c7             	mov    %rax,%rdi
    5704:	e8 bd d7 ff ff       	callq  2ec6 <_ZNSt8__detail20_Prime_rehash_policyC1Ef>
    5709:	48 8b 45 d8          	mov    -0x28(%rbp),%rax
    570d:	48 c7 40 30 00 00 00 	movq   $0x0,0x30(%rax)
    5714:	00 
    5715:	90                   	nop
    5716:	48 8b 45 e8          	mov    -0x18(%rbp),%rax
    571a:	64 48 33 04 25 28 00 	xor    %fs:0x28,%rax
    5721:	00 00 
    5723:	74 21                	je     5746 <_ZNSt10_HashtableIPKcSt4pairIKS1_NSt7__cxx1112basic_stringIcSt11char_traitsIcESaIcEEEESaISA_ENSt8__detail10_Select1stESt8equal_toIS1_ESt4hashIS1_ENSC_18_Mod_range_hashingENSC_20_Default_ranged_hashENSC_20_Prime_rehash_policyENSC_17_Hashtable_traitsILb0ELb0ELb1EEEEC1ERKSH_RKSI_RKSJ_RKSF_RKSD_RKSB_+0x11c>
    5725:	eb 1a                	jmp    5741 <_ZNSt10_HashtableIPKcSt4pairIKS1_NSt7__cxx1112basic_stringIcSt11char_traitsIcESaIcEEEESaISA_ENSt8__detail10_Select1stESt8equal_toIS1_ESt4hashIS1_ENSC_18_Mod_range_hashingENSC_20_Default_ranged_hashENSC_20_Prime_rehash_policyENSC_17_Hashtable_traitsILb0ELb0ELb1EEEEC1ERKSH_RKSI_RKSJ_RKSF_RKSD_RKSB_+0x117>
    5727:	48 89 c3             	mov    %rax,%rbx
    572a:	48 8d 45 e7          	lea    -0x19(%rbp),%rax
    572e:	48 89 c7             	mov    %rax,%rdi
    5731:	e8 b8 f1 ff ff       	callq  48ee <_ZNSaINSt8__detail10_Hash_nodeISt4pairIKPKcNSt7__cxx1112basic_stringIcSt11char_traitsIcESaIcEEEELb0EEEED1Ev>
    5736:	48 89 d8             	mov    %rbx,%rax
    5739:	48 89 c7             	mov    %rax,%rdi
    573c:	e8 bf be ff ff       	callq  1600 <_Unwind_Resume@plt>
    5741:	e8 1a be ff ff       	callq  1560 <__stack_chk_fail@plt>
    5746:	48 83 c4 58          	add    $0x58,%rsp
    574a:	5b                   	pop    %rbx
    574b:	5d                   	pop    %rbp
    574c:	c3                   	retq   

000000000000574d <_ZNSt8__detail13__distance_fwIPKSt4pairIKPKcNSt7__cxx1112basic_stringIcSt11char_traitsIcESaIcEEEEEENSt15iterator_traitsIT_E15difference_typeESF_SF_>:
    574d:	55                   	push   %rbp
    574e:	48 89 e5             	mov    %rsp,%rbp
    5751:	48 83 ec 20          	sub    $0x20,%rsp
    5755:	48 89 7d e8          	mov    %rdi,-0x18(%rbp)
    5759:	48 89 75 e0          	mov    %rsi,-0x20(%rbp)
    575d:	64 48 8b 04 25 28 00 	mov    %fs:0x28,%rax
    5764:	00 00 
    5766:	48 89 45 f8          	mov    %rax,-0x8(%rbp)
    576a:	31 c0                	xor    %eax,%eax
    576c:	48 8b 55 e0          	mov    -0x20(%rbp),%rdx
    5770:	48 8b 45 e8          	mov    -0x18(%rbp),%rax
    5774:	48 83 ec 08          	sub    $0x8,%rsp
    5778:	51                   	push   %rcx
    5779:	48 89 d6             	mov    %rdx,%rsi
    577c:	48 89 c7             	mov    %rax,%rdi
    577f:	e8 91 0c 00 00       	callq  6415 <_ZNSt8__detail13__distance_fwIPKSt4pairIKPKcNSt7__cxx1112basic_stringIcSt11char_traitsIcESaIcEEEEEENSt15iterator_traitsIT_E15difference_typeESF_SF_St20forward_iterator_tag>
    5784:	48 83 c4 10          	add    $0x10,%rsp
    5788:	48 8b 4d f8          	mov    -0x8(%rbp),%rcx
    578c:	64 48 33 0c 25 28 00 	xor    %fs:0x28,%rcx
    5793:	00 00 
    5795:	74 05                	je     579c <_ZNSt8__detail13__distance_fwIPKSt4pairIKPKcNSt7__cxx1112basic_stringIcSt11char_traitsIcESaIcEEEEEENSt15iterator_traitsIT_E15difference_typeESF_SF_+0x4f>
    5797:	e8 c4 bd ff ff       	callq  1560 <__stack_chk_fail@plt>
    579c:	c9                   	leaveq 
    579d:	c3                   	retq   

000000000000579e <_ZNSt10_HashtableIPKcSt4pairIKS1_NSt7__cxx1112basic_stringIcSt11char_traitsIcESaIcEEEESaISA_ENSt8__detail10_Select1stESt8equal_toIS1_ESt4hashIS1_ENSC_18_Mod_range_hashingENSC_20_Default_ranged_hashENSC_20_Prime_rehash_policyENSC_17_Hashtable_traitsILb0ELb0ELb1EEEE19_M_allocate_bucketsEm>:
    579e:	55                   	push   %rbp
    579f:	48 89 e5             	mov    %rsp,%rbp
    57a2:	48 83 ec 10          	sub    $0x10,%rsp
    57a6:	48 89 7d f8          	mov    %rdi,-0x8(%rbp)
    57aa:	48 89 75 f0          	mov    %rsi,-0x10(%rbp)
    57ae:	48 83 7d f0 01       	cmpq   $0x1,-0x10(%rbp)
    57b3:	0f 94 c0             	sete   %al
    57b6:	0f b6 c0             	movzbl %al,%eax
    57b9:	48 85 c0             	test   %rax,%rax
    57bc:	74 16                	je     57d4 <_ZNSt10_HashtableIPKcSt4pairIKS1_NSt7__cxx1112basic_stringIcSt11char_traitsIcESaIcEEEESaISA_ENSt8__detail10_Select1stESt8equal_toIS1_ESt4hashIS1_ENSC_18_Mod_range_hashingENSC_20_Default_ranged_hashENSC_20_Prime_rehash_policyENSC_17_Hashtable_traitsILb0ELb0ELb1EEEE19_M_allocate_bucketsEm+0x36>
    57be:	48 8b 45 f8          	mov    -0x8(%rbp),%rax
    57c2:	48 c7 40 30 00 00 00 	movq   $0x0,0x30(%rax)
    57c9:	00 
    57ca:	48 8b 45 f8          	mov    -0x8(%rbp),%rax
    57ce:	48 83 c0 30          	add    $0x30,%rax
    57d2:	eb 13                	jmp    57e7 <_ZNSt10_HashtableIPKcSt4pairIKS1_NSt7__cxx1112basic_stringIcSt11char_traitsIcESaIcEEEESaISA_ENSt8__detail10_Select1stESt8equal_toIS1_ESt4hashIS1_ENSC_18_Mod_range_hashingENSC_20_Default_ranged_hashENSC_20_Prime_rehash_policyENSC_17_Hashtable_traitsILb0ELb0ELb1EEEE19_M_allocate_bucketsEm+0x49>
    57d4:	48 8b 55 f0          	mov    -0x10(%rbp),%rdx
    57d8:	48 8b 45 f8          	mov    -0x8(%rbp),%rax
    57dc:	48 89 d6             	mov    %rdx,%rsi
    57df:	48 89 c7             	mov    %rax,%rdi
    57e2:	e8 53 0c 00 00       	callq  643a <_ZNSt8__detail16_Hashtable_allocISaINS_10_Hash_nodeISt4pairIKPKcNSt7__cxx1112basic_stringIcSt11char_traitsIcESaIcEEEELb0EEEEE19_M_allocate_bucketsEm>
    57e7:	c9                   	leaveq 
    57e8:	c3                   	retq   
    57e9:	90                   	nop

00000000000057ea <_ZNSt8__detail12_Insert_baseIPKcSt4pairIKS2_NSt7__cxx1112basic_stringIcSt11char_traitsIcESaIcEEEESaISB_ENS_10_Select1stESt8equal_toIS2_ESt4hashIS2_ENS_18_Mod_range_hashingENS_20_Default_ranged_hashENS_20_Prime_rehash_policyENS_17_Hashtable_traitsILb0ELb0ELb1EEEE6insertERKSB_>:
    57ea:	55                   	push   %rbp
    57eb:	48 89 e5             	mov    %rsp,%rbp
    57ee:	53                   	push   %rbx
    57ef:	48 83 ec 38          	sub    $0x38,%rsp
    57f3:	48 89 7d c8          	mov    %rdi,-0x38(%rbp)
    57f7:	48 89 75 c0          	mov    %rsi,-0x40(%rbp)
    57fb:	64 48 8b 04 25 28 00 	mov    %fs:0x28,%rax
    5802:	00 00 
    5804:	48 89 45 e8          	mov    %rax,-0x18(%rbp)
    5808:	31 c0                	xor    %eax,%eax
    580a:	48 8b 45 c8          	mov    -0x38(%rbp),%rax
    580e:	48 89 c7             	mov    %rax,%rdi
    5811:	e8 f0 0c 00 00       	callq  6506 <_ZNSt8__detail12_Insert_baseIPKcSt4pairIKS2_NSt7__cxx1112basic_stringIcSt11char_traitsIcESaIcEEEESaISB_ENS_10_Select1stESt8equal_toIS2_ESt4hashIS2_ENS_18_Mod_range_hashingENS_20_Default_ranged_hashENS_20_Prime_rehash_policyENS_17_Hashtable_traitsILb0ELb0ELb1EEEE20_M_conjure_hashtableEv>
    5816:	48 89 45 e0          	mov    %rax,-0x20(%rbp)
    581a:	48 8b 55 e0          	mov    -0x20(%rbp),%rdx
    581e:	48 8d 45 d8          	lea    -0x28(%rbp),%rax
    5822:	48 89 d6             	mov    %rdx,%rsi
    5825:	48 89 c7             	mov    %rax,%rdi
    5828:	e8 e7 0c 00 00       	callq  6514 <_ZNSt8__detail10_AllocNodeISaINS_10_Hash_nodeISt4pairIKPKcNSt7__cxx1112basic_stringIcSt11char_traitsIcESaIcEEEELb0EEEEEC1ERNS_16_Hashtable_allocISE_EE>
    582d:	48 8d 55 d8          	lea    -0x28(%rbp),%rdx
    5831:	48 8b 4d c0          	mov    -0x40(%rbp),%rcx
    5835:	48 8b 45 e0          	mov    -0x20(%rbp),%rax
    5839:	48 83 ec 08          	sub    $0x8,%rsp
    583d:	53                   	push   %rbx
    583e:	48 89 ce             	mov    %rcx,%rsi
    5841:	48 89 c7             	mov    %rax,%rdi
    5844:	e8 f3 0c 00 00       	callq  653c <_ZNSt10_HashtableIPKcSt4pairIKS1_NSt7__cxx1112basic_stringIcSt11char_traitsIcESaIcEEEESaISA_ENSt8__detail10_Select1stESt8equal_toIS1_ESt4hashIS1_ENSC_18_Mod_range_hashingENSC_20_Default_ranged_hashENSC_20_Prime_rehash_policyENSC_17_Hashtable_traitsILb0ELb0ELb1EEEE9_M_insertIRKSA_NSC_10_AllocNodeISaINSC_10_Hash_nodeISA_Lb0EEEEEEEES2_INSC_14_Node_iteratorISA_Lb0ELb0EEEbEOT_RKT0_St17integral_constantIbLb1EE>
    5849:	48 83 c4 10          	add    $0x10,%rsp
    584d:	48 8b 5d e8          	mov    -0x18(%rbp),%rbx
    5851:	64 48 33 1c 25 28 00 	xor    %fs:0x28,%rbx
    5858:	00 00 
    585a:	74 05                	je     5861 <_ZNSt8__detail12_Insert_baseIPKcSt4pairIKS2_NSt7__cxx1112basic_stringIcSt11char_traitsIcESaIcEEEESaISB_ENS_10_Select1stESt8equal_toIS2_ESt4hashIS2_ENS_18_Mod_range_hashingENS_20_Default_ranged_hashENS_20_Prime_rehash_policyENS_17_Hashtable_traitsILb0ELb0ELb1EEEE6insertERKSB_+0x77>
    585c:	e8 ff bc ff ff       	callq  1560 <__stack_chk_fail@plt>
    5861:	48 8b 5d f8          	mov    -0x8(%rbp),%rbx
    5865:	c9                   	leaveq 
    5866:	c3                   	retq   
    5867:	90                   	nop

0000000000005868 <_ZNKSt8__detail10_Hash_nodeISt4pairIKPKcNSt7__cxx1112basic_stringIcSt11char_traitsIcESaIcEEEELb0EE7_M_nextEv>:
    5868:	55                   	push   %rbp
    5869:	48 89 e5             	mov    %rsp,%rbp
    586c:	48 89 7d f8          	mov    %rdi,-0x8(%rbp)
    5870:	48 8b 45 f8          	mov    -0x8(%rbp),%rax
    5874:	48 8b 00             	mov    (%rax),%rax
    5877:	5d                   	pop    %rbp
    5878:	c3                   	retq   
    5879:	90                   	nop

000000000000587a <_ZNSt8__detail16_Hashtable_allocISaINS_10_Hash_nodeISt4pairIKPKcNSt7__cxx1112basic_stringIcSt11char_traitsIcESaIcEEEELb0EEEEE18_M_deallocate_nodeEPSD_>:
    587a:	55                   	push   %rbp
    587b:	48 89 e5             	mov    %rsp,%rbp
    587e:	53                   	push   %rbx
    587f:	48 83 ec 38          	sub    $0x38,%rsp
    5883:	48 89 7d c8          	mov    %rdi,-0x38(%rbp)
    5887:	48 89 75 c0          	mov    %rsi,-0x40(%rbp)
    588b:	64 48 8b 04 25 28 00 	mov    %fs:0x28,%rax
    5892:	00 00 
    5894:	48 89 45 e8          	mov    %rax,-0x18(%rbp)
    5898:	31 c0                	xor    %eax,%eax
    589a:	48 8b 45 c0          	mov    -0x40(%rbp),%rax
    589e:	48 89 c7             	mov    %rax,%rdi
    58a1:	e8 c7 0d 00 00       	callq  666d <_ZNSt14pointer_traitsIPNSt8__detail10_Hash_nodeISt4pairIKPKcNSt7__cxx1112basic_stringIcSt11char_traitsIcESaIcEEEELb0EEEE10pointer_toERSD_>
    58a6:	48 89 45 e0          	mov    %rax,-0x20(%rbp)
    58aa:	48 8b 45 c8          	mov    -0x38(%rbp),%rax
    58ae:	48 89 c7             	mov    %rax,%rdi
    58b1:	e8 d2 0d 00 00       	callq  6688 <_ZNSt8__detail16_Hashtable_allocISaINS_10_Hash_nodeISt4pairIKPKcNSt7__cxx1112basic_stringIcSt11char_traitsIcESaIcEEEELb0EEEEE17_M_node_allocatorEv>
    58b6:	48 89 c2             	mov    %rax,%rdx
    58b9:	48 8d 45 df          	lea    -0x21(%rbp),%rax
    58bd:	48 89 d6             	mov    %rdx,%rsi
    58c0:	48 89 c7             	mov    %rax,%rdi
    58c3:	e8 da 0d 00 00       	callq  66a2 <_ZNSaISt4pairIKPKcNSt7__cxx1112basic_stringIcSt11char_traitsIcESaIcEEEEEC1INSt8__detail10_Hash_nodeIS9_Lb0EEEEERKSaIT_E>
    58c8:	48 8b 45 c0          	mov    -0x40(%rbp),%rax
    58cc:	48 89 c7             	mov    %rax,%rdi
    58cf:	e8 e6 fc ff ff       	callq  55ba <_ZNSt8__detail21_Hash_node_value_baseISt4pairIKPKcNSt7__cxx1112basic_stringIcSt11char_traitsIcESaIcEEEEE9_M_valptrEv>
    58d4:	48 89 c2             	mov    %rax,%rdx
    58d7:	48 8d 45 df          	lea    -0x21(%rbp),%rax
    58db:	48 89 d6             	mov    %rdx,%rsi
    58de:	48 89 c7             	mov    %rax,%rdi
    58e1:	e8 db 0d 00 00       	callq  66c1 <_ZNSt16allocator_traitsISaISt4pairIKPKcNSt7__cxx1112basic_stringIcSt11char_traitsIcESaIcEEEEEE7destroyISA_EEvRSB_PT_>
    58e6:	48 8b 45 c8          	mov    -0x38(%rbp),%rax
    58ea:	48 89 c7             	mov    %rax,%rdi
    58ed:	e8 96 0d 00 00       	callq  6688 <_ZNSt8__detail16_Hashtable_allocISaINS_10_Hash_nodeISt4pairIKPKcNSt7__cxx1112basic_stringIcSt11char_traitsIcESaIcEEEELb0EEEEE17_M_node_allocatorEv>
    58f2:	48 89 c1             	mov    %rax,%rcx
    58f5:	48 8b 45 e0          	mov    -0x20(%rbp),%rax
    58f9:	ba 01 00 00 00       	mov    $0x1,%edx
    58fe:	48 89 c6             	mov    %rax,%rsi
    5901:	48 89 cf             	mov    %rcx,%rdi
    5904:	e8 de 0d 00 00       	callq  66e7 <_ZNSt16allocator_traitsISaINSt8__detail10_Hash_nodeISt4pairIKPKcNSt7__cxx1112basic_stringIcSt11char_traitsIcESaIcEEEELb0EEEEE10deallocateERSE_PSD_m>
    5909:	48 8d 45 df          	lea    -0x21(%rbp),%rax
    590d:	48 89 c7             	mov    %rax,%rdi
    5910:	e8 8b ea ff ff       	callq  43a0 <_ZNSaISt4pairIKPKcNSt7__cxx1112basic_stringIcSt11char_traitsIcESaIcEEEEED1Ev>
    5915:	90                   	nop
    5916:	48 8b 45 e8          	mov    -0x18(%rbp),%rax
    591a:	64 48 33 04 25 28 00 	xor    %fs:0x28,%rax
    5921:	00 00 
    5923:	74 21                	je     5946 <_ZNSt8__detail16_Hashtable_allocISaINS_10_Hash_nodeISt4pairIKPKcNSt7__cxx1112basic_stringIcSt11char_traitsIcESaIcEEEELb0EEEEE18_M_deallocate_nodeEPSD_+0xcc>
    5925:	eb 1a                	jmp    5941 <_ZNSt8__detail16_Hashtable_allocISaINS_10_Hash_nodeISt4pairIKPKcNSt7__cxx1112basic_stringIcSt11char_traitsIcESaIcEEEELb0EEEEE18_M_deallocate_nodeEPSD_+0xc7>
    5927:	48 89 c3             	mov    %rax,%rbx
    592a:	48 8d 45 df          	lea    -0x21(%rbp),%rax
    592e:	48 89 c7             	mov    %rax,%rdi
    5931:	e8 6a ea ff ff       	callq  43a0 <_ZNSaISt4pairIKPKcNSt7__cxx1112basic_stringIcSt11char_traitsIcESaIcEEEEED1Ev>
    5936:	48 89 d8             	mov    %rbx,%rax
    5939:	48 89 c7             	mov    %rax,%rdi
    593c:	e8 bf bc ff ff       	callq  1600 <_Unwind_Resume@plt>
    5941:	e8 1a bc ff ff       	callq  1560 <__stack_chk_fail@plt>
    5946:	48 83 c4 38          	add    $0x38,%rsp
    594a:	5b                   	pop    %rbx
    594b:	5d                   	pop    %rbp
    594c:	c3                   	retq   
    594d:	90                   	nop

000000000000594e <_ZNKSt10_HashtableIPKcSt4pairIKS1_NSt7__cxx1112basic_stringIcSt11char_traitsIcESaIcEEEESaISA_ENSt8__detail10_Select1stESt8equal_toIS1_ESt4hashIS1_ENSC_18_Mod_range_hashingENSC_20_Default_ranged_hashENSC_20_Prime_rehash_policyENSC_17_Hashtable_traitsILb0ELb0ELb1EEEE21_M_uses_single_bucketEPPNSC_15_Hash_node_baseE>:
    594e:	55                   	push   %rbp
    594f:	48 89 e5             	mov    %rsp,%rbp
    5952:	48 89 7d f8          	mov    %rdi,-0x8(%rbp)
    5956:	48 89 75 f0          	mov    %rsi,-0x10(%rbp)
    595a:	48 8b 45 f8          	mov    -0x8(%rbp),%rax
    595e:	48 83 c0 30          	add    $0x30,%rax
    5962:	48 39 45 f0          	cmp    %rax,-0x10(%rbp)
    5966:	0f 94 c0             	sete   %al
    5969:	0f b6 c0             	movzbl %al,%eax
    596c:	48 85 c0             	test   %rax,%rax
    596f:	0f 95 c0             	setne  %al
    5972:	5d                   	pop    %rbp
    5973:	c3                   	retq   

0000000000005974 <_ZNSt8__detail16_Hashtable_allocISaINS_10_Hash_nodeISt4pairIKPKcNSt7__cxx1112basic_stringIcSt11char_traitsIcESaIcEEEELb0EEEEE21_M_deallocate_bucketsEPPNS_15_Hash_node_baseEm>:
    5974:	55                   	push   %rbp
    5975:	48 89 e5             	mov    %rsp,%rbp
    5978:	53                   	push   %rbx
    5979:	48 83 ec 48          	sub    $0x48,%rsp
    597d:	48 89 7d c8          	mov    %rdi,-0x38(%rbp)
    5981:	48 89 75 c0          	mov    %rsi,-0x40(%rbp)
    5985:	48 89 55 b8          	mov    %rdx,-0x48(%rbp)
    5989:	64 48 8b 04 25 28 00 	mov    %fs:0x28,%rax
    5990:	00 00 
    5992:	48 89 45 e8          	mov    %rax,-0x18(%rbp)
    5996:	31 c0                	xor    %eax,%eax
    5998:	48 8b 45 c0          	mov    -0x40(%rbp),%rax
    599c:	48 89 c7             	mov    %rax,%rdi
    599f:	e8 71 0d 00 00       	callq  6715 <_ZNSt14pointer_traitsIPPNSt8__detail15_Hash_node_baseEE10pointer_toERS2_>
    59a4:	48 89 45 e0          	mov    %rax,-0x20(%rbp)
    59a8:	48 8b 45 c8          	mov    -0x38(%rbp),%rax
    59ac:	48 89 c7             	mov    %rax,%rdi
    59af:	e8 d4 0c 00 00       	callq  6688 <_ZNSt8__detail16_Hashtable_allocISaINS_10_Hash_nodeISt4pairIKPKcNSt7__cxx1112basic_stringIcSt11char_traitsIcESaIcEEEELb0EEEEE17_M_node_allocatorEv>
    59b4:	48 89 c2             	mov    %rax,%rdx
    59b7:	48 8d 45 df          	lea    -0x21(%rbp),%rax
    59bb:	48 89 d6             	mov    %rdx,%rsi
    59be:	48 89 c7             	mov    %rax,%rdi
    59c1:	e8 6a 0d 00 00       	callq  6730 <_ZNSaIPNSt8__detail15_Hash_node_baseEEC1INS_10_Hash_nodeISt4pairIKPKcNSt7__cxx1112basic_stringIcSt11char_traitsIcESaIcEEEELb0EEEEERKSaIT_E>
    59c6:	48 8b 55 b8          	mov    -0x48(%rbp),%rdx
    59ca:	48 8b 4d e0          	mov    -0x20(%rbp),%rcx
    59ce:	48 8d 45 df          	lea    -0x21(%rbp),%rax
    59d2:	48 89 ce             	mov    %rcx,%rsi
    59d5:	48 89 c7             	mov    %rax,%rdi
    59d8:	e8 8e 0d 00 00       	callq  676b <_ZNSt16allocator_traitsISaIPNSt8__detail15_Hash_node_baseEEE10deallocateERS3_PS2_m>
    59dd:	48 8d 45 df          	lea    -0x21(%rbp),%rax
    59e1:	48 89 c7             	mov    %rax,%rdi
    59e4:	e8 67 0d 00 00       	callq  6750 <_ZNSaIPNSt8__detail15_Hash_node_baseEED1Ev>
    59e9:	90                   	nop
    59ea:	48 8b 45 e8          	mov    -0x18(%rbp),%rax
    59ee:	64 48 33 04 25 28 00 	xor    %fs:0x28,%rax
    59f5:	00 00 
    59f7:	74 21                	je     5a1a <_ZNSt8__detail16_Hashtable_allocISaINS_10_Hash_nodeISt4pairIKPKcNSt7__cxx1112basic_stringIcSt11char_traitsIcESaIcEEEELb0EEEEE21_M_deallocate_bucketsEPPNS_15_Hash_node_baseEm+0xa6>
    59f9:	eb 1a                	jmp    5a15 <_ZNSt8__detail16_Hashtable_allocISaINS_10_Hash_nodeISt4pairIKPKcNSt7__cxx1112basic_stringIcSt11char_traitsIcESaIcEEEELb0EEEEE21_M_deallocate_bucketsEPPNS_15_Hash_node_baseEm+0xa1>
    59fb:	48 89 c3             	mov    %rax,%rbx
    59fe:	48 8d 45 df          	lea    -0x21(%rbp),%rax
    5a02:	48 89 c7             	mov    %rax,%rdi
    5a05:	e8 46 0d 00 00       	callq  6750 <_ZNSaIPNSt8__detail15_Hash_node_baseEED1Ev>
    5a0a:	48 89 d8             	mov    %rbx,%rax
    5a0d:	48 89 c7             	mov    %rax,%rdi
    5a10:	e8 eb bb ff ff       	callq  1600 <_Unwind_Resume@plt>
    5a15:	e8 46 bb ff ff       	callq  1560 <__stack_chk_fail@plt>
    5a1a:	48 83 c4 48          	add    $0x48,%rsp
    5a1e:	5b                   	pop    %rbx
    5a1f:	5d                   	pop    %rbp
    5a20:	c3                   	retq   
    5a21:	90                   	nop

0000000000005a22 <_ZNSt10_HashtableIiSt4pairIKiNSt7__cxx1112basic_stringIcSt11char_traitsIcESaIcEEEESaIS8_ENSt8__detail10_Select1stESt8equal_toIiESt4hashIiENSA_18_Mod_range_hashingENSA_20_Default_ranged_hashENSA_20_Prime_rehash_policyENSA_17_Hashtable_traitsILb0ELb0ELb1EEEEC1ERKSF_RKSG_RKSH_RKSD_RKSB_RKS9_>:
    5a22:	55                   	push   %rbp
    5a23:	48 89 e5             	mov    %rsp,%rbp
    5a26:	53                   	push   %rbx
    5a27:	48 83 ec 58          	sub    $0x58,%rsp
    5a2b:	48 89 7d d8          	mov    %rdi,-0x28(%rbp)
    5a2f:	48 89 75 d0          	mov    %rsi,-0x30(%rbp)
    5a33:	48 89 55 c8          	mov    %rdx,-0x38(%rbp)
    5a37:	48 89 4d c0          	mov    %rcx,-0x40(%rbp)
    5a3b:	4c 89 45 b8          	mov    %r8,-0x48(%rbp)
    5a3f:	4c 89 4d b0          	mov    %r9,-0x50(%rbp)
    5a43:	48 8b 45 10          	mov    0x10(%rbp),%rax
    5a47:	48 89 45 a8          	mov    %rax,-0x58(%rbp)
    5a4b:	64 48 8b 04 25 28 00 	mov    %fs:0x28,%rax
    5a52:	00 00 
    5a54:	48 89 45 e8          	mov    %rax,-0x18(%rbp)
    5a58:	31 c0                	xor    %eax,%eax
    5a5a:	4c 8b 45 b8          	mov    -0x48(%rbp),%r8
    5a5e:	48 8b 7d c0          	mov    -0x40(%rbp),%rdi
    5a62:	48 8b 4d c8          	mov    -0x38(%rbp),%rcx
    5a66:	48 8b 55 d0          	mov    -0x30(%rbp),%rdx
    5a6a:	48 8b 75 b0          	mov    -0x50(%rbp),%rsi
    5a6e:	48 8b 45 d8          	mov    -0x28(%rbp),%rax
    5a72:	4d 89 c1             	mov    %r8,%r9
    5a75:	49 89 f8             	mov    %rdi,%r8
    5a78:	48 89 c7             	mov    %rax,%rdi
    5a7b:	e8 3a 0d 00 00       	callq  67ba <_ZNSt8__detail15_Hashtable_baseIiSt4pairIKiNSt7__cxx1112basic_stringIcSt11char_traitsIcESaIcEEEENS_10_Select1stESt8equal_toIiESt4hashIiENS_18_Mod_range_hashingENS_20_Default_ranged_hashENS_17_Hashtable_traitsILb0ELb0ELb1EEEEC1ERKSA_RKSE_RKSF_RKSG_RKSC_>
    5a80:	48 8b 55 a8          	mov    -0x58(%rbp),%rdx
    5a84:	48 8d 45 e7          	lea    -0x19(%rbp),%rax
    5a88:	48 89 d6             	mov    %rdx,%rsi
    5a8b:	48 89 c7             	mov    %rax,%rdi
    5a8e:	e8 07 0d 00 00       	callq  679a <_ZNSaINSt8__detail10_Hash_nodeISt4pairIKiNSt7__cxx1112basic_stringIcSt11char_traitsIcESaIcEEEELb0EEEEC1IS9_EERKSaIT_E>
    5a93:	48 8d 55 e7          	lea    -0x19(%rbp),%rdx
    5a97:	48 8b 45 d8          	mov    -0x28(%rbp),%rax
    5a9b:	48 89 d6             	mov    %rdx,%rsi
    5a9e:	48 89 c7             	mov    %rax,%rdi
    5aa1:	e8 78 0d 00 00       	callq  681e <_ZNSt8__detail16_Hashtable_allocISaINS_10_Hash_nodeISt4pairIKiNSt7__cxx1112basic_stringIcSt11char_traitsIcESaIcEEEELb0EEEEEC1ISC_EEOT_>
    5aa6:	48 8d 45 e7          	lea    -0x19(%rbp),%rax
    5aaa:	48 89 c7             	mov    %rax,%rdi
    5aad:	e8 14 f0 ff ff       	callq  4ac6 <_ZNSaINSt8__detail10_Hash_nodeISt4pairIKiNSt7__cxx1112basic_stringIcSt11char_traitsIcESaIcEEEELb0EEEED1Ev>
    5ab2:	48 8b 45 d8          	mov    -0x28(%rbp),%rax
    5ab6:	48 8d 50 30          	lea    0x30(%rax),%rdx
    5aba:	48 8b 45 d8          	mov    -0x28(%rbp),%rax
    5abe:	48 89 10             	mov    %rdx,(%rax)
    5ac1:	48 8b 45 d8          	mov    -0x28(%rbp),%rax
    5ac5:	48 c7 40 08 01 00 00 	movq   $0x1,0x8(%rax)
    5acc:	00 
    5acd:	48 8b 45 d8          	mov    -0x28(%rbp),%rax
    5ad1:	48 83 c0 10          	add    $0x10,%rax
    5ad5:	48 89 c7             	mov    %rax,%rdi
    5ad8:	e8 b1 d3 ff ff       	callq  2e8e <_ZNSt8__detail15_Hash_node_baseC1Ev>
    5add:	48 8b 45 d8          	mov    -0x28(%rbp),%rax
    5ae1:	48 c7 40 18 00 00 00 	movq   $0x0,0x18(%rax)
    5ae8:	00 
    5ae9:	48 8b 45 d8          	mov    -0x28(%rbp),%rax
    5aed:	48 83 c0 20          	add    $0x20,%rax
    5af1:	f3 0f 10 05 77 48 00 	movss  0x4877(%rip),%xmm0        # a370 <_ZStL6ignore+0x2de>
    5af8:	00 
    5af9:	48 89 c7             	mov    %rax,%rdi
    5afc:	e8 c5 d3 ff ff       	callq  2ec6 <_ZNSt8__detail20_Prime_rehash_policyC1Ef>
    5b01:	48 8b 45 d8          	mov    -0x28(%rbp),%rax
    5b05:	48 c7 40 30 00 00 00 	movq   $0x0,0x30(%rax)
    5b0c:	00 
    5b0d:	90                   	nop
    5b0e:	48 8b 45 e8          	mov    -0x18(%rbp),%rax
    5b12:	64 48 33 04 25 28 00 	xor    %fs:0x28,%rax
    5b19:	00 00 
    5b1b:	74 21                	je     5b3e <_ZNSt10_HashtableIiSt4pairIKiNSt7__cxx1112basic_stringIcSt11char_traitsIcESaIcEEEESaIS8_ENSt8__detail10_Select1stESt8equal_toIiESt4hashIiENSA_18_Mod_range_hashingENSA_20_Default_ranged_hashENSA_20_Prime_rehash_policyENSA_17_Hashtable_traitsILb0ELb0ELb1EEEEC1ERKSF_RKSG_RKSH_RKSD_RKSB_RKS9_+0x11c>
    5b1d:	eb 1a                	jmp    5b39 <_ZNSt10_HashtableIiSt4pairIKiNSt7__cxx1112basic_stringIcSt11char_traitsIcESaIcEEEESaIS8_ENSt8__detail10_Select1stESt8equal_toIiESt4hashIiENSA_18_Mod_range_hashingENSA_20_Default_ranged_hashENSA_20_Prime_rehash_policyENSA_17_Hashtable_traitsILb0ELb0ELb1EEEEC1ERKSF_RKSG_RKSH_RKSD_RKSB_RKS9_+0x117>
    5b1f:	48 89 c3             	mov    %rax,%rbx
    5b22:	48 8d 45 e7          	lea    -0x19(%rbp),%rax
    5b26:	48 89 c7             	mov    %rax,%rdi
    5b29:	e8 98 ef ff ff       	callq  4ac6 <_ZNSaINSt8__detail10_Hash_nodeISt4pairIKiNSt7__cxx1112basic_stringIcSt11char_traitsIcESaIcEEEELb0EEEED1Ev>
    5b2e:	48 89 d8             	mov    %rbx,%rax
    5b31:	48 89 c7             	mov    %rax,%rdi
    5b34:	e8 c7 ba ff ff       	callq  1600 <_Unwind_Resume@plt>
    5b39:	e8 22 ba ff ff       	callq  1560 <__stack_chk_fail@plt>
    5b3e:	48 83 c4 58          	add    $0x58,%rsp
    5b42:	5b                   	pop    %rbx
    5b43:	5d                   	pop    %rbp
    5b44:	c3                   	retq   

0000000000005b45 <_ZNSt8__detail13__distance_fwIPKSt4pairIKiNSt7__cxx1112basic_stringIcSt11char_traitsIcESaIcEEEEEENSt15iterator_traitsIT_E15difference_typeESD_SD_>:
    5b45:	55                   	push   %rbp
    5b46:	48 89 e5             	mov    %rsp,%rbp
    5b49:	48 83 ec 20          	sub    $0x20,%rsp
    5b4d:	48 89 7d e8          	mov    %rdi,-0x18(%rbp)
    5b51:	48 89 75 e0          	mov    %rsi,-0x20(%rbp)
    5b55:	64 48 8b 04 25 28 00 	mov    %fs:0x28,%rax
    5b5c:	00 00 
    5b5e:	48 89 45 f8          	mov    %rax,-0x8(%rbp)
    5b62:	31 c0                	xor    %eax,%eax
    5b64:	48 8b 55 e0          	mov    -0x20(%rbp),%rdx
    5b68:	48 8b 45 e8          	mov    -0x18(%rbp),%rax
    5b6c:	48 83 ec 08          	sub    $0x8,%rsp
    5b70:	51                   	push   %rcx
    5b71:	48 89 d6             	mov    %rdx,%rsi
    5b74:	48 89 c7             	mov    %rax,%rdi
    5b77:	e8 d3 0c 00 00       	callq  684f <_ZNSt8__detail13__distance_fwIPKSt4pairIKiNSt7__cxx1112basic_stringIcSt11char_traitsIcESaIcEEEEEENSt15iterator_traitsIT_E15difference_typeESD_SD_St20forward_iterator_tag>
    5b7c:	48 83 c4 10          	add    $0x10,%rsp
    5b80:	48 8b 4d f8          	mov    -0x8(%rbp),%rcx
    5b84:	64 48 33 0c 25 28 00 	xor    %fs:0x28,%rcx
    5b8b:	00 00 
    5b8d:	74 05                	je     5b94 <_ZNSt8__detail13__distance_fwIPKSt4pairIKiNSt7__cxx1112basic_stringIcSt11char_traitsIcESaIcEEEEEENSt15iterator_traitsIT_E15difference_typeESD_SD_+0x4f>
    5b8f:	e8 cc b9 ff ff       	callq  1560 <__stack_chk_fail@plt>
    5b94:	c9                   	leaveq 
    5b95:	c3                   	retq   

0000000000005b96 <_ZNSt10_HashtableIiSt4pairIKiNSt7__cxx1112basic_stringIcSt11char_traitsIcESaIcEEEESaIS8_ENSt8__detail10_Select1stESt8equal_toIiESt4hashIiENSA_18_Mod_range_hashingENSA_20_Default_ranged_hashENSA_20_Prime_rehash_policyENSA_17_Hashtable_traitsILb0ELb0ELb1EEEE19_M_allocate_bucketsEm>:
    5b96:	55                   	push   %rbp
    5b97:	48 89 e5             	mov    %rsp,%rbp
    5b9a:	48 83 ec 10          	sub    $0x10,%rsp
    5b9e:	48 89 7d f8          	mov    %rdi,-0x8(%rbp)
    5ba2:	48 89 75 f0          	mov    %rsi,-0x10(%rbp)
    5ba6:	48 83 7d f0 01       	cmpq   $0x1,-0x10(%rbp)
    5bab:	0f 94 c0             	sete   %al
    5bae:	0f b6 c0             	movzbl %al,%eax
    5bb1:	48 85 c0             	test   %rax,%rax
    5bb4:	74 16                	je     5bcc <_ZNSt10_HashtableIiSt4pairIKiNSt7__cxx1112basic_stringIcSt11char_traitsIcESaIcEEEESaIS8_ENSt8__detail10_Select1stESt8equal_toIiESt4hashIiENSA_18_Mod_range_hashingENSA_20_Default_ranged_hashENSA_20_Prime_rehash_policyENSA_17_Hashtable_traitsILb0ELb0ELb1EEEE19_M_allocate_bucketsEm+0x36>
    5bb6:	48 8b 45 f8          	mov    -0x8(%rbp),%rax
    5bba:	48 c7 40 30 00 00 00 	movq   $0x0,0x30(%rax)
    5bc1:	00 
    5bc2:	48 8b 45 f8          	mov    -0x8(%rbp),%rax
    5bc6:	48 83 c0 30          	add    $0x30,%rax
    5bca:	eb 13                	jmp    5bdf <_ZNSt10_HashtableIiSt4pairIKiNSt7__cxx1112basic_stringIcSt11char_traitsIcESaIcEEEESaIS8_ENSt8__detail10_Select1stESt8equal_toIiESt4hashIiENSA_18_Mod_range_hashingENSA_20_Default_ranged_hashENSA_20_Prime_rehash_policyENSA_17_Hashtable_traitsILb0ELb0ELb1EEEE19_M_allocate_bucketsEm+0x49>
    5bcc:	48 8b 55 f0          	mov    -0x10(%rbp),%rdx
    5bd0:	48 8b 45 f8          	mov    -0x8(%rbp),%rax
    5bd4:	48 89 d6             	mov    %rdx,%rsi
    5bd7:	48 89 c7             	mov    %rax,%rdi
    5bda:	e8 95 0c 00 00       	callq  6874 <_ZNSt8__detail16_Hashtable_allocISaINS_10_Hash_nodeISt4pairIKiNSt7__cxx1112basic_stringIcSt11char_traitsIcESaIcEEEELb0EEEEE19_M_allocate_bucketsEm>
    5bdf:	c9                   	leaveq 
    5be0:	c3                   	retq   
    5be1:	90                   	nop

0000000000005be2 <_ZNSt8__detail12_Insert_baseIiSt4pairIKiNSt7__cxx1112basic_stringIcSt11char_traitsIcESaIcEEEESaIS9_ENS_10_Select1stESt8equal_toIiESt4hashIiENS_18_Mod_range_hashingENS_20_Default_ranged_hashENS_20_Prime_rehash_policyENS_17_Hashtable_traitsILb0ELb0ELb1EEEE6insertERKS9_>:
    5be2:	55                   	push   %rbp
    5be3:	48 89 e5             	mov    %rsp,%rbp
    5be6:	53                   	push   %rbx
    5be7:	48 83 ec 38          	sub    $0x38,%rsp
    5beb:	48 89 7d c8          	mov    %rdi,-0x38(%rbp)
    5bef:	48 89 75 c0          	mov    %rsi,-0x40(%rbp)
    5bf3:	64 48 8b 04 25 28 00 	mov    %fs:0x28,%rax
    5bfa:	00 00 
    5bfc:	48 89 45 e8          	mov    %rax,-0x18(%rbp)
    5c00:	31 c0                	xor    %eax,%eax
    5c02:	48 8b 45 c8          	mov    -0x38(%rbp),%rax
    5c06:	48 89 c7             	mov    %rax,%rdi
    5c09:	e8 32 0d 00 00       	callq  6940 <_ZNSt8__detail12_Insert_baseIiSt4pairIKiNSt7__cxx1112basic_stringIcSt11char_traitsIcESaIcEEEESaIS9_ENS_10_Select1stESt8equal_toIiESt4hashIiENS_18_Mod_range_hashingENS_20_Default_ranged_hashENS_20_Prime_rehash_policyENS_17_Hashtable_traitsILb0ELb0ELb1EEEE20_M_conjure_hashtableEv>
    5c0e:	48 89 45 e0          	mov    %rax,-0x20(%rbp)
    5c12:	48 8b 55 e0          	mov    -0x20(%rbp),%rdx
    5c16:	48 8d 45 d8          	lea    -0x28(%rbp),%rax
    5c1a:	48 89 d6             	mov    %rdx,%rsi
    5c1d:	48 89 c7             	mov    %rax,%rdi
    5c20:	e8 29 0d 00 00       	callq  694e <_ZNSt8__detail10_AllocNodeISaINS_10_Hash_nodeISt4pairIKiNSt7__cxx1112basic_stringIcSt11char_traitsIcESaIcEEEELb0EEEEEC1ERNS_16_Hashtable_allocISC_EE>
    5c25:	48 8d 55 d8          	lea    -0x28(%rbp),%rdx
    5c29:	48 8b 4d c0          	mov    -0x40(%rbp),%rcx
    5c2d:	48 8b 45 e0          	mov    -0x20(%rbp),%rax
    5c31:	48 83 ec 08          	sub    $0x8,%rsp
    5c35:	53                   	push   %rbx
    5c36:	48 89 ce             	mov    %rcx,%rsi
    5c39:	48 89 c7             	mov    %rax,%rdi
    5c3c:	e8 35 0d 00 00       	callq  6976 <_ZNSt10_HashtableIiSt4pairIKiNSt7__cxx1112basic_stringIcSt11char_traitsIcESaIcEEEESaIS8_ENSt8__detail10_Select1stESt8equal_toIiESt4hashIiENSA_18_Mod_range_hashingENSA_20_Default_ranged_hashENSA_20_Prime_rehash_policyENSA_17_Hashtable_traitsILb0ELb0ELb1EEEE9_M_insertIRKS8_NSA_10_AllocNodeISaINSA_10_Hash_nodeIS8_Lb0EEEEEEEES0_INSA_14_Node_iteratorIS8_Lb0ELb0EEEbEOT_RKT0_St17integral_constantIbLb1EE>
    5c41:	48 83 c4 10          	add    $0x10,%rsp
    5c45:	48 8b 5d e8          	mov    -0x18(%rbp),%rbx
    5c49:	64 48 33 1c 25 28 00 	xor    %fs:0x28,%rbx
    5c50:	00 00 
    5c52:	74 05                	je     5c59 <_ZNSt8__detail12_Insert_baseIiSt4pairIKiNSt7__cxx1112basic_stringIcSt11char_traitsIcESaIcEEEESaIS9_ENS_10_Select1stESt8equal_toIiESt4hashIiENS_18_Mod_range_hashingENS_20_Default_ranged_hashENS_20_Prime_rehash_policyENS_17_Hashtable_traitsILb0ELb0ELb1EEEE6insertERKS9_+0x77>
    5c54:	e8 07 b9 ff ff       	callq  1560 <__stack_chk_fail@plt>
    5c59:	48 8b 5d f8          	mov    -0x8(%rbp),%rbx
    5c5d:	c9                   	leaveq 
    5c5e:	c3                   	retq   
    5c5f:	90                   	nop

0000000000005c60 <_ZNKSt8__detail10_Hash_nodeISt4pairIKiNSt7__cxx1112basic_stringIcSt11char_traitsIcESaIcEEEELb0EE7_M_nextEv>:
    5c60:	55                   	push   %rbp
    5c61:	48 89 e5             	mov    %rsp,%rbp
    5c64:	48 89 7d f8          	mov    %rdi,-0x8(%rbp)
    5c68:	48 8b 45 f8          	mov    -0x8(%rbp),%rax
    5c6c:	48 8b 00             	mov    (%rax),%rax
    5c6f:	5d                   	pop    %rbp
    5c70:	c3                   	retq   
    5c71:	90                   	nop

0000000000005c72 <_ZNSt8__detail16_Hashtable_allocISaINS_10_Hash_nodeISt4pairIKiNSt7__cxx1112basic_stringIcSt11char_traitsIcESaIcEEEELb0EEEEE18_M_deallocate_nodeEPSB_>:
    5c72:	55                   	push   %rbp
    5c73:	48 89 e5             	mov    %rsp,%rbp
    5c76:	53                   	push   %rbx
    5c77:	48 83 ec 38          	sub    $0x38,%rsp
    5c7b:	48 89 7d c8          	mov    %rdi,-0x38(%rbp)
    5c7f:	48 89 75 c0          	mov    %rsi,-0x40(%rbp)
    5c83:	64 48 8b 04 25 28 00 	mov    %fs:0x28,%rax
    5c8a:	00 00 
    5c8c:	48 89 45 e8          	mov    %rax,-0x18(%rbp)
    5c90:	31 c0                	xor    %eax,%eax
    5c92:	48 8b 45 c0          	mov    -0x40(%rbp),%rax
    5c96:	48 89 c7             	mov    %rax,%rdi
    5c99:	e8 09 0e 00 00       	callq  6aa7 <_ZNSt14pointer_traitsIPNSt8__detail10_Hash_nodeISt4pairIKiNSt7__cxx1112basic_stringIcSt11char_traitsIcESaIcEEEELb0EEEE10pointer_toERSB_>
    5c9e:	48 89 45 e0          	mov    %rax,-0x20(%rbp)
    5ca2:	48 8b 45 c8          	mov    -0x38(%rbp),%rax
    5ca6:	48 89 c7             	mov    %rax,%rdi
    5ca9:	e8 14 0e 00 00       	callq  6ac2 <_ZNSt8__detail16_Hashtable_allocISaINS_10_Hash_nodeISt4pairIKiNSt7__cxx1112basic_stringIcSt11char_traitsIcESaIcEEEELb0EEEEE17_M_node_allocatorEv>
    5cae:	48 89 c2             	mov    %rax,%rdx
    5cb1:	48 8d 45 df          	lea    -0x21(%rbp),%rax
    5cb5:	48 89 d6             	mov    %rdx,%rsi
    5cb8:	48 89 c7             	mov    %rax,%rdi
    5cbb:	e8 1c 0e 00 00       	callq  6adc <_ZNSaISt4pairIKiNSt7__cxx1112basic_stringIcSt11char_traitsIcESaIcEEEEEC1INSt8__detail10_Hash_nodeIS7_Lb0EEEEERKSaIT_E>
    5cc0:	48 8b 45 c0          	mov    -0x40(%rbp),%rax
    5cc4:	48 89 c7             	mov    %rax,%rdi
    5cc7:	e8 30 0e 00 00       	callq  6afc <_ZNSt8__detail21_Hash_node_value_baseISt4pairIKiNSt7__cxx1112basic_stringIcSt11char_traitsIcESaIcEEEEE9_M_valptrEv>
    5ccc:	48 89 c2             	mov    %rax,%rdx
    5ccf:	48 8d 45 df          	lea    -0x21(%rbp),%rax
    5cd3:	48 89 d6             	mov    %rdx,%rsi
    5cd6:	48 89 c7             	mov    %rax,%rdi
    5cd9:	e8 3c 0e 00 00       	callq  6b1a <_ZNSt16allocator_traitsISaISt4pairIKiNSt7__cxx1112basic_stringIcSt11char_traitsIcESaIcEEEEEE7destroyIS8_EEvRS9_PT_>
    5cde:	48 8b 45 c8          	mov    -0x38(%rbp),%rax
    5ce2:	48 89 c7             	mov    %rax,%rdi
    5ce5:	e8 d8 0d 00 00       	callq  6ac2 <_ZNSt8__detail16_Hashtable_allocISaINS_10_Hash_nodeISt4pairIKiNSt7__cxx1112basic_stringIcSt11char_traitsIcESaIcEEEELb0EEEEE17_M_node_allocatorEv>
    5cea:	48 89 c1             	mov    %rax,%rcx
    5ced:	48 8b 45 e0          	mov    -0x20(%rbp),%rax
    5cf1:	ba 01 00 00 00       	mov    $0x1,%edx
    5cf6:	48 89 c6             	mov    %rax,%rsi
    5cf9:	48 89 cf             	mov    %rcx,%rdi
    5cfc:	e8 3f 0e 00 00       	callq  6b40 <_ZNSt16allocator_traitsISaINSt8__detail10_Hash_nodeISt4pairIKiNSt7__cxx1112basic_stringIcSt11char_traitsIcESaIcEEEELb0EEEEE10deallocateERSC_PSB_m>
    5d01:	48 8d 45 df          	lea    -0x21(%rbp),%rax
    5d05:	48 89 c7             	mov    %rax,%rdi
    5d08:	e8 95 e7 ff ff       	callq  44a2 <_ZNSaISt4pairIKiNSt7__cxx1112basic_stringIcSt11char_traitsIcESaIcEEEEED1Ev>
    5d0d:	90                   	nop
    5d0e:	48 8b 45 e8          	mov    -0x18(%rbp),%rax
    5d12:	64 48 33 04 25 28 00 	xor    %fs:0x28,%rax
    5d19:	00 00 
    5d1b:	74 21                	je     5d3e <_ZNSt8__detail16_Hashtable_allocISaINS_10_Hash_nodeISt4pairIKiNSt7__cxx1112basic_stringIcSt11char_traitsIcESaIcEEEELb0EEEEE18_M_deallocate_nodeEPSB_+0xcc>
    5d1d:	eb 1a                	jmp    5d39 <_ZNSt8__detail16_Hashtable_allocISaINS_10_Hash_nodeISt4pairIKiNSt7__cxx1112basic_stringIcSt11char_traitsIcESaIcEEEELb0EEEEE18_M_deallocate_nodeEPSB_+0xc7>
    5d1f:	48 89 c3             	mov    %rax,%rbx
    5d22:	48 8d 45 df          	lea    -0x21(%rbp),%rax
    5d26:	48 89 c7             	mov    %rax,%rdi
    5d29:	e8 74 e7 ff ff       	callq  44a2 <_ZNSaISt4pairIKiNSt7__cxx1112basic_stringIcSt11char_traitsIcESaIcEEEEED1Ev>
    5d2e:	48 89 d8             	mov    %rbx,%rax
    5d31:	48 89 c7             	mov    %rax,%rdi
    5d34:	e8 c7 b8 ff ff       	callq  1600 <_Unwind_Resume@plt>
    5d39:	e8 22 b8 ff ff       	callq  1560 <__stack_chk_fail@plt>
    5d3e:	48 83 c4 38          	add    $0x38,%rsp
    5d42:	5b                   	pop    %rbx
    5d43:	5d                   	pop    %rbp
    5d44:	c3                   	retq   
    5d45:	90                   	nop

0000000000005d46 <_ZNKSt10_HashtableIiSt4pairIKiNSt7__cxx1112basic_stringIcSt11char_traitsIcESaIcEEEESaIS8_ENSt8__detail10_Select1stESt8equal_toIiESt4hashIiENSA_18_Mod_range_hashingENSA_20_Default_ranged_hashENSA_20_Prime_rehash_policyENSA_17_Hashtable_traitsILb0ELb0ELb1EEEE21_M_uses_single_bucketEPPNSA_15_Hash_node_baseE>:
    5d46:	55                   	push   %rbp
    5d47:	48 89 e5             	mov    %rsp,%rbp
    5d4a:	48 89 7d f8          	mov    %rdi,-0x8(%rbp)
    5d4e:	48 89 75 f0          	mov    %rsi,-0x10(%rbp)
    5d52:	48 8b 45 f8          	mov    -0x8(%rbp),%rax
    5d56:	48 83 c0 30          	add    $0x30,%rax
    5d5a:	48 39 45 f0          	cmp    %rax,-0x10(%rbp)
    5d5e:	0f 94 c0             	sete   %al
    5d61:	0f b6 c0             	movzbl %al,%eax
    5d64:	48 85 c0             	test   %rax,%rax
    5d67:	0f 95 c0             	setne  %al
    5d6a:	5d                   	pop    %rbp
    5d6b:	c3                   	retq   

0000000000005d6c <_ZNSt8__detail16_Hashtable_allocISaINS_10_Hash_nodeISt4pairIKiNSt7__cxx1112basic_stringIcSt11char_traitsIcESaIcEEEELb0EEEEE21_M_deallocate_bucketsEPPNS_15_Hash_node_baseEm>:
    5d6c:	55                   	push   %rbp
    5d6d:	48 89 e5             	mov    %rsp,%rbp
    5d70:	53                   	push   %rbx
    5d71:	48 83 ec 48          	sub    $0x48,%rsp
    5d75:	48 89 7d c8          	mov    %rdi,-0x38(%rbp)
    5d79:	48 89 75 c0          	mov    %rsi,-0x40(%rbp)
    5d7d:	48 89 55 b8          	mov    %rdx,-0x48(%rbp)
    5d81:	64 48 8b 04 25 28 00 	mov    %fs:0x28,%rax
    5d88:	00 00 
    5d8a:	48 89 45 e8          	mov    %rax,-0x18(%rbp)
    5d8e:	31 c0                	xor    %eax,%eax
    5d90:	48 8b 45 c0          	mov    -0x40(%rbp),%rax
    5d94:	48 89 c7             	mov    %rax,%rdi
    5d97:	e8 79 09 00 00       	callq  6715 <_ZNSt14pointer_traitsIPPNSt8__detail15_Hash_node_baseEE10pointer_toERS2_>
    5d9c:	48 89 45 e0          	mov    %rax,-0x20(%rbp)
    5da0:	48 8b 45 c8          	mov    -0x38(%rbp),%rax
    5da4:	48 89 c7             	mov    %rax,%rdi
    5da7:	e8 16 0d 00 00       	callq  6ac2 <_ZNSt8__detail16_Hashtable_allocISaINS_10_Hash_nodeISt4pairIKiNSt7__cxx1112basic_stringIcSt11char_traitsIcESaIcEEEELb0EEEEE17_M_node_allocatorEv>
    5dac:	48 89 c2             	mov    %rax,%rdx
    5daf:	48 8d 45 df          	lea    -0x21(%rbp),%rax
    5db3:	48 89 d6             	mov    %rdx,%rsi
    5db6:	48 89 c7             	mov    %rax,%rdi
    5db9:	e8 b0 0d 00 00       	callq  6b6e <_ZNSaIPNSt8__detail15_Hash_node_baseEEC1INS_10_Hash_nodeISt4pairIKiNSt7__cxx1112basic_stringIcSt11char_traitsIcESaIcEEEELb0EEEEERKSaIT_E>
    5dbe:	48 8b 55 b8          	mov    -0x48(%rbp),%rdx
    5dc2:	48 8b 4d e0          	mov    -0x20(%rbp),%rcx
    5dc6:	48 8d 45 df          	lea    -0x21(%rbp),%rax
    5dca:	48 89 ce             	mov    %rcx,%rsi
    5dcd:	48 89 c7             	mov    %rax,%rdi
    5dd0:	e8 96 09 00 00       	callq  676b <_ZNSt16allocator_traitsISaIPNSt8__detail15_Hash_node_baseEEE10deallocateERS3_PS2_m>
    5dd5:	48 8d 45 df          	lea    -0x21(%rbp),%rax
    5dd9:	48 89 c7             	mov    %rax,%rdi
    5ddc:	e8 6f 09 00 00       	callq  6750 <_ZNSaIPNSt8__detail15_Hash_node_baseEED1Ev>
    5de1:	90                   	nop
    5de2:	48 8b 45 e8          	mov    -0x18(%rbp),%rax
    5de6:	64 48 33 04 25 28 00 	xor    %fs:0x28,%rax
    5ded:	00 00 
    5def:	74 21                	je     5e12 <_ZNSt8__detail16_Hashtable_allocISaINS_10_Hash_nodeISt4pairIKiNSt7__cxx1112basic_stringIcSt11char_traitsIcESaIcEEEELb0EEEEE21_M_deallocate_bucketsEPPNS_15_Hash_node_baseEm+0xa6>
    5df1:	eb 1a                	jmp    5e0d <_ZNSt8__detail16_Hashtable_allocISaINS_10_Hash_nodeISt4pairIKiNSt7__cxx1112basic_stringIcSt11char_traitsIcESaIcEEEELb0EEEEE21_M_deallocate_bucketsEPPNS_15_Hash_node_baseEm+0xa1>
    5df3:	48 89 c3             	mov    %rax,%rbx
    5df6:	48 8d 45 df          	lea    -0x21(%rbp),%rax
    5dfa:	48 89 c7             	mov    %rax,%rdi
    5dfd:	e8 4e 09 00 00       	callq  6750 <_ZNSaIPNSt8__detail15_Hash_node_baseEED1Ev>
    5e02:	48 89 d8             	mov    %rbx,%rax
    5e05:	48 89 c7             	mov    %rax,%rdi
    5e08:	e8 f3 b7 ff ff       	callq  1600 <_Unwind_Resume@plt>
    5e0d:	e8 4e b7 ff ff       	callq  1560 <__stack_chk_fail@plt>
    5e12:	48 83 c4 48          	add    $0x48,%rsp
    5e16:	5b                   	pop    %rbx
    5e17:	5d                   	pop    %rbp
    5e18:	c3                   	retq   
    5e19:	90                   	nop

0000000000005e1a <_ZNSt10_HashtableINSt7__cxx1112basic_stringIcSt11char_traitsIcESaIcEEESt4pairIKS5_mESaIS8_ENSt8__detail10_Select1stESt8equal_toIS5_ESt4hashIS5_ENSA_18_Mod_range_hashingENSA_20_Default_ranged_hashENSA_20_Prime_rehash_policyENSA_17_Hashtable_traitsILb1ELb0ELb1EEEEC1ERKSF_RKSG_RKSH_RKSD_RKSB_RKS9_>:
    5e1a:	55                   	push   %rbp
    5e1b:	48 89 e5             	mov    %rsp,%rbp
    5e1e:	53                   	push   %rbx
    5e1f:	48 83 ec 58          	sub    $0x58,%rsp
    5e23:	48 89 7d d8          	mov    %rdi,-0x28(%rbp)
    5e27:	48 89 75 d0          	mov    %rsi,-0x30(%rbp)
    5e2b:	48 89 55 c8          	mov    %rdx,-0x38(%rbp)
    5e2f:	48 89 4d c0          	mov    %rcx,-0x40(%rbp)
    5e33:	4c 89 45 b8          	mov    %r8,-0x48(%rbp)
    5e37:	4c 89 4d b0          	mov    %r9,-0x50(%rbp)
    5e3b:	48 8b 45 10          	mov    0x10(%rbp),%rax
    5e3f:	48 89 45 a8          	mov    %rax,-0x58(%rbp)
    5e43:	64 48 8b 04 25 28 00 	mov    %fs:0x28,%rax
    5e4a:	00 00 
    5e4c:	48 89 45 e8          	mov    %rax,-0x18(%rbp)
    5e50:	31 c0                	xor    %eax,%eax
    5e52:	4c 8b 45 b8          	mov    -0x48(%rbp),%r8
    5e56:	48 8b 7d c0          	mov    -0x40(%rbp),%rdi
    5e5a:	48 8b 4d c8          	mov    -0x38(%rbp),%rcx
    5e5e:	48 8b 55 d0          	mov    -0x30(%rbp),%rdx
    5e62:	48 8b 75 b0          	mov    -0x50(%rbp),%rsi
    5e66:	48 8b 45 d8          	mov    -0x28(%rbp),%rax
    5e6a:	4d 89 c1             	mov    %r8,%r9
    5e6d:	49 89 f8             	mov    %rdi,%r8
    5e70:	48 89 c7             	mov    %rax,%rdi
    5e73:	e8 36 0d 00 00       	callq  6bae <_ZNSt8__detail15_Hashtable_baseINSt7__cxx1112basic_stringIcSt11char_traitsIcESaIcEEESt4pairIKS6_mENS_10_Select1stESt8equal_toIS6_ESt4hashIS6_ENS_18_Mod_range_hashingENS_20_Default_ranged_hashENS_17_Hashtable_traitsILb1ELb0ELb1EEEEC1ERKSA_RKSE_RKSF_RKSG_RKSC_>
    5e78:	48 8b 55 a8          	mov    -0x58(%rbp),%rdx
    5e7c:	48 8d 45 e7          	lea    -0x19(%rbp),%rax
    5e80:	48 89 d6             	mov    %rdx,%rsi
    5e83:	48 89 c7             	mov    %rax,%rdi
    5e86:	e8 03 0d 00 00       	callq  6b8e <_ZNSaINSt8__detail10_Hash_nodeISt4pairIKNSt7__cxx1112basic_stringIcSt11char_traitsIcESaIcEEEmELb1EEEEC1IS9_EERKSaIT_E>
    5e8b:	48 8d 55 e7          	lea    -0x19(%rbp),%rdx
    5e8f:	48 8b 45 d8          	mov    -0x28(%rbp),%rax
    5e93:	48 89 d6             	mov    %rdx,%rsi
    5e96:	48 89 c7             	mov    %rax,%rdi
    5e99:	e8 74 0d 00 00       	callq  6c12 <_ZNSt8__detail16_Hashtable_allocISaINS_10_Hash_nodeISt4pairIKNSt7__cxx1112basic_stringIcSt11char_traitsIcESaIcEEEmELb1EEEEEC1ISC_EEOT_>
    5e9e:	48 8d 45 e7          	lea    -0x19(%rbp),%rax
    5ea2:	48 89 c7             	mov    %rax,%rdi
    5ea5:	e8 f4 ed ff ff       	callq  4c9e <_ZNSaINSt8__detail10_Hash_nodeISt4pairIKNSt7__cxx1112basic_stringIcSt11char_traitsIcESaIcEEEmELb1EEEED1Ev>
    5eaa:	48 8b 45 d8          	mov    -0x28(%rbp),%rax
    5eae:	48 8d 50 30          	lea    0x30(%rax),%rdx
    5eb2:	48 8b 45 d8          	mov    -0x28(%rbp),%rax
    5eb6:	48 89 10             	mov    %rdx,(%rax)
    5eb9:	48 8b 45 d8          	mov    -0x28(%rbp),%rax
    5ebd:	48 c7 40 08 01 00 00 	movq   $0x1,0x8(%rax)
    5ec4:	00 
    5ec5:	48 8b 45 d8          	mov    -0x28(%rbp),%rax
    5ec9:	48 83 c0 10          	add    $0x10,%rax
    5ecd:	48 89 c7             	mov    %rax,%rdi
    5ed0:	e8 b9 cf ff ff       	callq  2e8e <_ZNSt8__detail15_Hash_node_baseC1Ev>
    5ed5:	48 8b 45 d8          	mov    -0x28(%rbp),%rax
    5ed9:	48 c7 40 18 00 00 00 	movq   $0x0,0x18(%rax)
    5ee0:	00 
    5ee1:	48 8b 45 d8          	mov    -0x28(%rbp),%rax
    5ee5:	48 83 c0 20          	add    $0x20,%rax
    5ee9:	f3 0f 10 05 7f 44 00 	movss  0x447f(%rip),%xmm0        # a370 <_ZStL6ignore+0x2de>
    5ef0:	00 
    5ef1:	48 89 c7             	mov    %rax,%rdi
    5ef4:	e8 cd cf ff ff       	callq  2ec6 <_ZNSt8__detail20_Prime_rehash_policyC1Ef>
    5ef9:	48 8b 45 d8          	mov    -0x28(%rbp),%rax
    5efd:	48 c7 40 30 00 00 00 	movq   $0x0,0x30(%rax)
    5f04:	00 
    5f05:	90                   	nop
    5f06:	48 8b 45 e8          	mov    -0x18(%rbp),%rax
    5f0a:	64 48 33 04 25 28 00 	xor    %fs:0x28,%rax
    5f11:	00 00 
    5f13:	74 21                	je     5f36 <_ZNSt10_HashtableINSt7__cxx1112basic_stringIcSt11char_traitsIcESaIcEEESt4pairIKS5_mESaIS8_ENSt8__detail10_Select1stESt8equal_toIS5_ESt4hashIS5_ENSA_18_Mod_range_hashingENSA_20_Default_ranged_hashENSA_20_Prime_rehash_policyENSA_17_Hashtable_traitsILb1ELb0ELb1EEEEC1ERKSF_RKSG_RKSH_RKSD_RKSB_RKS9_+0x11c>
    5f15:	eb 1a                	jmp    5f31 <_ZNSt10_HashtableINSt7__cxx1112basic_stringIcSt11char_traitsIcESaIcEEESt4pairIKS5_mESaIS8_ENSt8__detail10_Select1stESt8equal_toIS5_ESt4hashIS5_ENSA_18_Mod_range_hashingENSA_20_Default_ranged_hashENSA_20_Prime_rehash_policyENSA_17_Hashtable_traitsILb1ELb0ELb1EEEEC1ERKSF_RKSG_RKSH_RKSD_RKSB_RKS9_+0x117>
    5f17:	48 89 c3             	mov    %rax,%rbx
    5f1a:	48 8d 45 e7          	lea    -0x19(%rbp),%rax
    5f1e:	48 89 c7             	mov    %rax,%rdi
    5f21:	e8 78 ed ff ff       	callq  4c9e <_ZNSaINSt8__detail10_Hash_nodeISt4pairIKNSt7__cxx1112basic_stringIcSt11char_traitsIcESaIcEEEmELb1EEEED1Ev>
    5f26:	48 89 d8             	mov    %rbx,%rax
    5f29:	48 89 c7             	mov    %rax,%rdi
    5f2c:	e8 cf b6 ff ff       	callq  1600 <_Unwind_Resume@plt>
    5f31:	e8 2a b6 ff ff       	callq  1560 <__stack_chk_fail@plt>
    5f36:	48 83 c4 58          	add    $0x58,%rsp
    5f3a:	5b                   	pop    %rbx
    5f3b:	5d                   	pop    %rbp
    5f3c:	c3                   	retq   

0000000000005f3d <_ZNSt8__detail13__distance_fwIPKSt4pairIKNSt7__cxx1112basic_stringIcSt11char_traitsIcESaIcEEEmEEENSt15iterator_traitsIT_E15difference_typeESD_SD_>:
    5f3d:	55                   	push   %rbp
    5f3e:	48 89 e5             	mov    %rsp,%rbp
    5f41:	48 83 ec 20          	sub    $0x20,%rsp
    5f45:	48 89 7d e8          	mov    %rdi,-0x18(%rbp)
    5f49:	48 89 75 e0          	mov    %rsi,-0x20(%rbp)
    5f4d:	64 48 8b 04 25 28 00 	mov    %fs:0x28,%rax
    5f54:	00 00 
    5f56:	48 89 45 f8          	mov    %rax,-0x8(%rbp)
    5f5a:	31 c0                	xor    %eax,%eax
    5f5c:	48 8b 55 e0          	mov    -0x20(%rbp),%rdx
    5f60:	48 8b 45 e8          	mov    -0x18(%rbp),%rax
    5f64:	48 83 ec 08          	sub    $0x8,%rsp
    5f68:	51                   	push   %rcx
    5f69:	48 89 d6             	mov    %rdx,%rsi
    5f6c:	48 89 c7             	mov    %rax,%rdi
    5f6f:	e8 cf 0c 00 00       	callq  6c43 <_ZNSt8__detail13__distance_fwIPKSt4pairIKNSt7__cxx1112basic_stringIcSt11char_traitsIcESaIcEEEmEEENSt15iterator_traitsIT_E15difference_typeESD_SD_St20forward_iterator_tag>
    5f74:	48 83 c4 10          	add    $0x10,%rsp
    5f78:	48 8b 4d f8          	mov    -0x8(%rbp),%rcx
    5f7c:	64 48 33 0c 25 28 00 	xor    %fs:0x28,%rcx
    5f83:	00 00 
    5f85:	74 05                	je     5f8c <_ZNSt8__detail13__distance_fwIPKSt4pairIKNSt7__cxx1112basic_stringIcSt11char_traitsIcESaIcEEEmEEENSt15iterator_traitsIT_E15difference_typeESD_SD_+0x4f>
    5f87:	e8 d4 b5 ff ff       	callq  1560 <__stack_chk_fail@plt>
    5f8c:	c9                   	leaveq 
    5f8d:	c3                   	retq   

0000000000005f8e <_ZNSt10_HashtableINSt7__cxx1112basic_stringIcSt11char_traitsIcESaIcEEESt4pairIKS5_mESaIS8_ENSt8__detail10_Select1stESt8equal_toIS5_ESt4hashIS5_ENSA_18_Mod_range_hashingENSA_20_Default_ranged_hashENSA_20_Prime_rehash_policyENSA_17_Hashtable_traitsILb1ELb0ELb1EEEE19_M_allocate_bucketsEm>:
    5f8e:	55                   	push   %rbp
    5f8f:	48 89 e5             	mov    %rsp,%rbp
    5f92:	48 83 ec 10          	sub    $0x10,%rsp
    5f96:	48 89 7d f8          	mov    %rdi,-0x8(%rbp)
    5f9a:	48 89 75 f0          	mov    %rsi,-0x10(%rbp)
    5f9e:	48 83 7d f0 01       	cmpq   $0x1,-0x10(%rbp)
    5fa3:	0f 94 c0             	sete   %al
    5fa6:	0f b6 c0             	movzbl %al,%eax
    5fa9:	48 85 c0             	test   %rax,%rax
    5fac:	74 16                	je     5fc4 <_ZNSt10_HashtableINSt7__cxx1112basic_stringIcSt11char_traitsIcESaIcEEESt4pairIKS5_mESaIS8_ENSt8__detail10_Select1stESt8equal_toIS5_ESt4hashIS5_ENSA_18_Mod_range_hashingENSA_20_Default_ranged_hashENSA_20_Prime_rehash_policyENSA_17_Hashtable_traitsILb1ELb0ELb1EEEE19_M_allocate_bucketsEm+0x36>
    5fae:	48 8b 45 f8          	mov    -0x8(%rbp),%rax
    5fb2:	48 c7 40 30 00 00 00 	movq   $0x0,0x30(%rax)
    5fb9:	00 
    5fba:	48 8b 45 f8          	mov    -0x8(%rbp),%rax
    5fbe:	48 83 c0 30          	add    $0x30,%rax
    5fc2:	eb 13                	jmp    5fd7 <_ZNSt10_HashtableINSt7__cxx1112basic_stringIcSt11char_traitsIcESaIcEEESt4pairIKS5_mESaIS8_ENSt8__detail10_Select1stESt8equal_toIS5_ESt4hashIS5_ENSA_18_Mod_range_hashingENSA_20_Default_ranged_hashENSA_20_Prime_rehash_policyENSA_17_Hashtable_traitsILb1ELb0ELb1EEEE19_M_allocate_bucketsEm+0x49>
    5fc4:	48 8b 55 f0          	mov    -0x10(%rbp),%rdx
    5fc8:	48 8b 45 f8          	mov    -0x8(%rbp),%rax
    5fcc:	48 89 d6             	mov    %rdx,%rsi
    5fcf:	48 89 c7             	mov    %rax,%rdi
    5fd2:	e8 91 0c 00 00       	callq  6c68 <_ZNSt8__detail16_Hashtable_allocISaINS_10_Hash_nodeISt4pairIKNSt7__cxx1112basic_stringIcSt11char_traitsIcESaIcEEEmELb1EEEEE19_M_allocate_bucketsEm>
    5fd7:	c9                   	leaveq 
    5fd8:	c3                   	retq   
    5fd9:	90                   	nop

0000000000005fda <_ZNSt8__detail12_Insert_baseINSt7__cxx1112basic_stringIcSt11char_traitsIcESaIcEEESt4pairIKS6_mESaIS9_ENS_10_Select1stESt8equal_toIS6_ESt4hashIS6_ENS_18_Mod_range_hashingENS_20_Default_ranged_hashENS_20_Prime_rehash_policyENS_17_Hashtable_traitsILb1ELb0ELb1EEEE6insertERKS9_>:
    5fda:	55                   	push   %rbp
    5fdb:	48 89 e5             	mov    %rsp,%rbp
    5fde:	53                   	push   %rbx
    5fdf:	48 83 ec 38          	sub    $0x38,%rsp
    5fe3:	48 89 7d c8          	mov    %rdi,-0x38(%rbp)
    5fe7:	48 89 75 c0          	mov    %rsi,-0x40(%rbp)
    5feb:	64 48 8b 04 25 28 00 	mov    %fs:0x28,%rax
    5ff2:	00 00 
    5ff4:	48 89 45 e8          	mov    %rax,-0x18(%rbp)
    5ff8:	31 c0                	xor    %eax,%eax
    5ffa:	48 8b 45 c8          	mov    -0x38(%rbp),%rax
    5ffe:	48 89 c7             	mov    %rax,%rdi
    6001:	e8 2e 0d 00 00       	callq  6d34 <_ZNSt8__detail12_Insert_baseINSt7__cxx1112basic_stringIcSt11char_traitsIcESaIcEEESt4pairIKS6_mESaIS9_ENS_10_Select1stESt8equal_toIS6_ESt4hashIS6_ENS_18_Mod_range_hashingENS_20_Default_ranged_hashENS_20_Prime_rehash_policyENS_17_Hashtable_traitsILb1ELb0ELb1EEEE20_M_conjure_hashtableEv>
    6006:	48 89 45 e0          	mov    %rax,-0x20(%rbp)
    600a:	48 8b 55 e0          	mov    -0x20(%rbp),%rdx
    600e:	48 8d 45 d8          	lea    -0x28(%rbp),%rax
    6012:	48 89 d6             	mov    %rdx,%rsi
    6015:	48 89 c7             	mov    %rax,%rdi
    6018:	e8 25 0d 00 00       	callq  6d42 <_ZNSt8__detail10_AllocNodeISaINS_10_Hash_nodeISt4pairIKNSt7__cxx1112basic_stringIcSt11char_traitsIcESaIcEEEmELb1EEEEEC1ERNS_16_Hashtable_allocISC_EE>
    601d:	48 8d 55 d8          	lea    -0x28(%rbp),%rdx
    6021:	48 8b 4d c0          	mov    -0x40(%rbp),%rcx
    6025:	48 8b 45 e0          	mov    -0x20(%rbp),%rax
    6029:	48 83 ec 08          	sub    $0x8,%rsp
    602d:	53                   	push   %rbx
    602e:	48 89 ce             	mov    %rcx,%rsi
    6031:	48 89 c7             	mov    %rax,%rdi
    6034:	e8 31 0d 00 00       	callq  6d6a <_ZNSt10_HashtableINSt7__cxx1112basic_stringIcSt11char_traitsIcESaIcEEESt4pairIKS5_mESaIS8_ENSt8__detail10_Select1stESt8equal_toIS5_ESt4hashIS5_ENSA_18_Mod_range_hashingENSA_20_Default_ranged_hashENSA_20_Prime_rehash_policyENSA_17_Hashtable_traitsILb1ELb0ELb1EEEE9_M_insertIRKS8_NSA_10_AllocNodeISaINSA_10_Hash_nodeIS8_Lb1EEEEEEEES6_INSA_14_Node_iteratorIS8_Lb0ELb1EEEbEOT_RKT0_St17integral_constantIbLb1EE>
    6039:	48 83 c4 10          	add    $0x10,%rsp
    603d:	48 8b 5d e8          	mov    -0x18(%rbp),%rbx
    6041:	64 48 33 1c 25 28 00 	xor    %fs:0x28,%rbx
    6048:	00 00 
    604a:	74 05                	je     6051 <_ZNSt8__detail12_Insert_baseINSt7__cxx1112basic_stringIcSt11char_traitsIcESaIcEEESt4pairIKS6_mESaIS9_ENS_10_Select1stESt8equal_toIS6_ESt4hashIS6_ENS_18_Mod_range_hashingENS_20_Default_ranged_hashENS_20_Prime_rehash_policyENS_17_Hashtable_traitsILb1ELb0ELb1EEEE6insertERKS9_+0x77>
    604c:	e8 0f b5 ff ff       	callq  1560 <__stack_chk_fail@plt>
    6051:	48 8b 5d f8          	mov    -0x8(%rbp),%rbx
    6055:	c9                   	leaveq 
    6056:	c3                   	retq   
    6057:	90                   	nop

0000000000006058 <_ZNSt8__detail16_Hashtable_allocISaINS_10_Hash_nodeISt4pairIKNSt7__cxx1112basic_stringIcSt11char_traitsIcESaIcEEEmELb1EEEEE18_M_deallocate_nodeEPSB_>:
    6058:	55                   	push   %rbp
    6059:	48 89 e5             	mov    %rsp,%rbp
    605c:	53                   	push   %rbx
    605d:	48 83 ec 38          	sub    $0x38,%rsp
    6061:	48 89 7d c8          	mov    %rdi,-0x38(%rbp)
    6065:	48 89 75 c0          	mov    %rsi,-0x40(%rbp)
    6069:	64 48 8b 04 25 28 00 	mov    %fs:0x28,%rax
    6070:	00 00 
    6072:	48 89 45 e8          	mov    %rax,-0x18(%rbp)
    6076:	31 c0                	xor    %eax,%eax
    6078:	48 8b 45 c0          	mov    -0x40(%rbp),%rax
    607c:	48 89 c7             	mov    %rax,%rdi
    607f:	e8 17 0e 00 00       	callq  6e9b <_ZNSt14pointer_traitsIPNSt8__detail10_Hash_nodeISt4pairIKNSt7__cxx1112basic_stringIcSt11char_traitsIcESaIcEEEmELb1EEEE10pointer_toERSB_>
    6084:	48 89 45 e0          	mov    %rax,-0x20(%rbp)
    6088:	48 8b 45 c8          	mov    -0x38(%rbp),%rax
    608c:	48 89 c7             	mov    %rax,%rdi
    608f:	e8 22 0e 00 00       	callq  6eb6 <_ZNSt8__detail16_Hashtable_allocISaINS_10_Hash_nodeISt4pairIKNSt7__cxx1112basic_stringIcSt11char_traitsIcESaIcEEEmELb1EEEEE17_M_node_allocatorEv>
    6094:	48 89 c2             	mov    %rax,%rdx
    6097:	48 8d 45 df          	lea    -0x21(%rbp),%rax
    609b:	48 89 d6             	mov    %rdx,%rsi
    609e:	48 89 c7             	mov    %rax,%rdi
    60a1:	e8 2a 0e 00 00       	callq  6ed0 <_ZNSaISt4pairIKNSt7__cxx1112basic_stringIcSt11char_traitsIcESaIcEEEmEEC1INSt8__detail10_Hash_nodeIS7_Lb1EEEEERKSaIT_E>
    60a6:	48 8b 45 c0          	mov    -0x40(%rbp),%rax
    60aa:	48 89 c7             	mov    %rax,%rdi
    60ad:	e8 a6 ed ff ff       	callq  4e58 <_ZNSt8__detail21_Hash_node_value_baseISt4pairIKNSt7__cxx1112basic_stringIcSt11char_traitsIcESaIcEEEmEE9_M_valptrEv>
    60b2:	48 89 c2             	mov    %rax,%rdx
    60b5:	48 8d 45 df          	lea    -0x21(%rbp),%rax
    60b9:	48 89 d6             	mov    %rdx,%rsi
    60bc:	48 89 c7             	mov    %rax,%rdi
    60bf:	e8 2b 0e 00 00       	callq  6eef <_ZNSt16allocator_traitsISaISt4pairIKNSt7__cxx1112basic_stringIcSt11char_traitsIcESaIcEEEmEEE7destroyIS8_EEvRS9_PT_>
    60c4:	48 8b 45 c8          	mov    -0x38(%rbp),%rax
    60c8:	48 89 c7             	mov    %rax,%rdi
    60cb:	e8 e6 0d 00 00       	callq  6eb6 <_ZNSt8__detail16_Hashtable_allocISaINS_10_Hash_nodeISt4pairIKNSt7__cxx1112basic_stringIcSt11char_traitsIcESaIcEEEmELb1EEEEE17_M_node_allocatorEv>
    60d0:	48 89 c1             	mov    %rax,%rcx
    60d3:	48 8b 45 e0          	mov    -0x20(%rbp),%rax
    60d7:	ba 01 00 00 00       	mov    $0x1,%edx
    60dc:	48 89 c6             	mov    %rax,%rsi
    60df:	48 89 cf             	mov    %rcx,%rdi
    60e2:	e8 2e 0e 00 00       	callq  6f15 <_ZNSt16allocator_traitsISaINSt8__detail10_Hash_nodeISt4pairIKNSt7__cxx1112basic_stringIcSt11char_traitsIcESaIcEEEmELb1EEEEE10deallocateERSC_PSB_m>
    60e7:	48 8d 45 df          	lea    -0x21(%rbp),%rax
    60eb:	48 89 c7             	mov    %rax,%rdi
    60ee:	e8 b1 e4 ff ff       	callq  45a4 <_ZNSaISt4pairIKNSt7__cxx1112basic_stringIcSt11char_traitsIcESaIcEEEmEED1Ev>
    60f3:	90                   	nop
    60f4:	48 8b 45 e8          	mov    -0x18(%rbp),%rax
    60f8:	64 48 33 04 25 28 00 	xor    %fs:0x28,%rax
    60ff:	00 00 
    6101:	74 21                	je     6124 <_ZNSt8__detail16_Hashtable_allocISaINS_10_Hash_nodeISt4pairIKNSt7__cxx1112basic_stringIcSt11char_traitsIcESaIcEEEmELb1EEEEE18_M_deallocate_nodeEPSB_+0xcc>
    6103:	eb 1a                	jmp    611f <_ZNSt8__detail16_Hashtable_allocISaINS_10_Hash_nodeISt4pairIKNSt7__cxx1112basic_stringIcSt11char_traitsIcESaIcEEEmELb1EEEEE18_M_deallocate_nodeEPSB_+0xc7>
    6105:	48 89 c3             	mov    %rax,%rbx
    6108:	48 8d 45 df          	lea    -0x21(%rbp),%rax
    610c:	48 89 c7             	mov    %rax,%rdi
    610f:	e8 90 e4 ff ff       	callq  45a4 <_ZNSaISt4pairIKNSt7__cxx1112basic_stringIcSt11char_traitsIcESaIcEEEmEED1Ev>
    6114:	48 89 d8             	mov    %rbx,%rax
    6117:	48 89 c7             	mov    %rax,%rdi
    611a:	e8 e1 b4 ff ff       	callq  1600 <_Unwind_Resume@plt>
    611f:	e8 3c b4 ff ff       	callq  1560 <__stack_chk_fail@plt>
    6124:	48 83 c4 38          	add    $0x38,%rsp
    6128:	5b                   	pop    %rbx
    6129:	5d                   	pop    %rbp
    612a:	c3                   	retq   
    612b:	90                   	nop

000000000000612c <_ZNKSt10_HashtableINSt7__cxx1112basic_stringIcSt11char_traitsIcESaIcEEESt4pairIKS5_mESaIS8_ENSt8__detail10_Select1stESt8equal_toIS5_ESt4hashIS5_ENSA_18_Mod_range_hashingENSA_20_Default_ranged_hashENSA_20_Prime_rehash_policyENSA_17_Hashtable_traitsILb1ELb0ELb1EEEE21_M_uses_single_bucketEPPNSA_15_Hash_node_baseE>:
    612c:	55                   	push   %rbp
    612d:	48 89 e5             	mov    %rsp,%rbp
    6130:	48 89 7d f8          	mov    %rdi,-0x8(%rbp)
    6134:	48 89 75 f0          	mov    %rsi,-0x10(%rbp)
    6138:	48 8b 45 f8          	mov    -0x8(%rbp),%rax
    613c:	48 83 c0 30          	add    $0x30,%rax
    6140:	48 39 45 f0          	cmp    %rax,-0x10(%rbp)
    6144:	0f 94 c0             	sete   %al
    6147:	0f b6 c0             	movzbl %al,%eax
    614a:	48 85 c0             	test   %rax,%rax
    614d:	0f 95 c0             	setne  %al
    6150:	5d                   	pop    %rbp
    6151:	c3                   	retq   

0000000000006152 <_ZNSt8__detail16_Hashtable_allocISaINS_10_Hash_nodeISt4pairIKNSt7__cxx1112basic_stringIcSt11char_traitsIcESaIcEEEmELb1EEEEE21_M_deallocate_bucketsEPPNS_15_Hash_node_baseEm>:
    6152:	55                   	push   %rbp
    6153:	48 89 e5             	mov    %rsp,%rbp
    6156:	53                   	push   %rbx
    6157:	48 83 ec 48          	sub    $0x48,%rsp
    615b:	48 89 7d c8          	mov    %rdi,-0x38(%rbp)
    615f:	48 89 75 c0          	mov    %rsi,-0x40(%rbp)
    6163:	48 89 55 b8          	mov    %rdx,-0x48(%rbp)
    6167:	64 48 8b 04 25 28 00 	mov    %fs:0x28,%rax
    616e:	00 00 
    6170:	48 89 45 e8          	mov    %rax,-0x18(%rbp)
    6174:	31 c0                	xor    %eax,%eax
    6176:	48 8b 45 c0          	mov    -0x40(%rbp),%rax
    617a:	48 89 c7             	mov    %rax,%rdi
    617d:	e8 93 05 00 00       	callq  6715 <_ZNSt14pointer_traitsIPPNSt8__detail15_Hash_node_baseEE10pointer_toERS2_>
    6182:	48 89 45 e0          	mov    %rax,-0x20(%rbp)
    6186:	48 8b 45 c8          	mov    -0x38(%rbp),%rax
    618a:	48 89 c7             	mov    %rax,%rdi
    618d:	e8 24 0d 00 00       	callq  6eb6 <_ZNSt8__detail16_Hashtable_allocISaINS_10_Hash_nodeISt4pairIKNSt7__cxx1112basic_stringIcSt11char_traitsIcESaIcEEEmELb1EEEEE17_M_node_allocatorEv>
    6192:	48 89 c2             	mov    %rax,%rdx
    6195:	48 8d 45 df          	lea    -0x21(%rbp),%rax
    6199:	48 89 d6             	mov    %rdx,%rsi
    619c:	48 89 c7             	mov    %rax,%rdi
    619f:	e8 a0 0d 00 00       	callq  6f44 <_ZNSaIPNSt8__detail15_Hash_node_baseEEC1INS_10_Hash_nodeISt4pairIKNSt7__cxx1112basic_stringIcSt11char_traitsIcESaIcEEEmELb1EEEEERKSaIT_E>
    61a4:	48 8b 55 b8          	mov    -0x48(%rbp),%rdx
    61a8:	48 8b 4d e0          	mov    -0x20(%rbp),%rcx
    61ac:	48 8d 45 df          	lea    -0x21(%rbp),%rax
    61b0:	48 89 ce             	mov    %rcx,%rsi
    61b3:	48 89 c7             	mov    %rax,%rdi
    61b6:	e8 b0 05 00 00       	callq  676b <_ZNSt16allocator_traitsISaIPNSt8__detail15_Hash_node_baseEEE10deallocateERS3_PS2_m>
    61bb:	48 8d 45 df          	lea    -0x21(%rbp),%rax
    61bf:	48 89 c7             	mov    %rax,%rdi
    61c2:	e8 89 05 00 00       	callq  6750 <_ZNSaIPNSt8__detail15_Hash_node_baseEED1Ev>
    61c7:	90                   	nop
    61c8:	48 8b 45 e8          	mov    -0x18(%rbp),%rax
    61cc:	64 48 33 04 25 28 00 	xor    %fs:0x28,%rax
    61d3:	00 00 
    61d5:	74 21                	je     61f8 <_ZNSt8__detail16_Hashtable_allocISaINS_10_Hash_nodeISt4pairIKNSt7__cxx1112basic_stringIcSt11char_traitsIcESaIcEEEmELb1EEEEE21_M_deallocate_bucketsEPPNS_15_Hash_node_baseEm+0xa6>
    61d7:	eb 1a                	jmp    61f3 <_ZNSt8__detail16_Hashtable_allocISaINS_10_Hash_nodeISt4pairIKNSt7__cxx1112basic_stringIcSt11char_traitsIcESaIcEEEmELb1EEEEE21_M_deallocate_bucketsEPPNS_15_Hash_node_baseEm+0xa1>
    61d9:	48 89 c3             	mov    %rax,%rbx
    61dc:	48 8d 45 df          	lea    -0x21(%rbp),%rax
    61e0:	48 89 c7             	mov    %rax,%rdi
    61e3:	e8 68 05 00 00       	callq  6750 <_ZNSaIPNSt8__detail15_Hash_node_baseEED1Ev>
    61e8:	48 89 d8             	mov    %rbx,%rax
    61eb:	48 89 c7             	mov    %rax,%rdi
    61ee:	e8 0d b4 ff ff       	callq  1600 <_Unwind_Resume@plt>
    61f3:	e8 68 b3 ff ff       	callq  1560 <__stack_chk_fail@plt>
    61f8:	48 83 c4 48          	add    $0x48,%rsp
    61fc:	5b                   	pop    %rbx
    61fd:	5d                   	pop    %rbp
    61fe:	c3                   	retq   
    61ff:	90                   	nop

0000000000006200 <_ZNKSt8__detail15_Hash_code_baseIPKcSt4pairIKS2_NSt7__cxx1112basic_stringIcSt11char_traitsIcESaIcEEEENS_10_Select1stESt4hashIS2_ENS_18_Mod_range_hashingENS_20_Default_ranged_hashELb0EE12_M_hash_codeERS4_>:
    6200:	55                   	push   %rbp
    6201:	48 89 e5             	mov    %rsp,%rbp
    6204:	48 83 ec 10          	sub    $0x10,%rsp
    6208:	48 89 7d f8          	mov    %rdi,-0x8(%rbp)
    620c:	48 89 75 f0          	mov    %rsi,-0x10(%rbp)
    6210:	48 8b 45 f8          	mov    -0x8(%rbp),%rax
    6214:	48 89 c7             	mov    %rax,%rdi
    6217:	e8 48 0d 00 00       	callq  6f64 <_ZNKSt8__detail15_Hash_code_baseIPKcSt4pairIKS2_NSt7__cxx1112basic_stringIcSt11char_traitsIcESaIcEEEENS_10_Select1stESt4hashIS2_ENS_18_Mod_range_hashingENS_20_Default_ranged_hashELb0EE5_M_h1Ev>
    621c:	48 89 c2             	mov    %rax,%rdx
    621f:	48 8b 45 f0          	mov    -0x10(%rbp),%rax
    6223:	48 8b 00             	mov    (%rax),%rax
    6226:	48 89 c6             	mov    %rax,%rsi
    6229:	48 89 d7             	mov    %rdx,%rdi
    622c:	e8 4d 0d 00 00       	callq  6f7e <_ZNKSt4hashIPKcEclES1_>
    6231:	c9                   	leaveq 
    6232:	c3                   	retq   
    6233:	90                   	nop

0000000000006234 <_ZNKSt10_HashtableIPKcSt4pairIKS1_NSt7__cxx1112basic_stringIcSt11char_traitsIcESaIcEEEESaISA_ENSt8__detail10_Select1stESt8equal_toIS1_ESt4hashIS1_ENSC_18_Mod_range_hashingENSC_20_Default_ranged_hashENSC_20_Prime_rehash_policyENSC_17_Hashtable_traitsILb0ELb0ELb1EEEE15_M_bucket_indexERS3_m>:
    6234:	55                   	push   %rbp
    6235:	48 89 e5             	mov    %rsp,%rbp
    6238:	48 83 ec 20          	sub    $0x20,%rsp
    623c:	48 89 7d f8          	mov    %rdi,-0x8(%rbp)
    6240:	48 89 75 f0          	mov    %rsi,-0x10(%rbp)
    6244:	48 89 55 e8          	mov    %rdx,-0x18(%rbp)
    6248:	48 8b 45 f8          	mov    -0x8(%rbp),%rax
    624c:	48 8b 48 08          	mov    0x8(%rax),%rcx
    6250:	48 8b 55 e8          	mov    -0x18(%rbp),%rdx
    6254:	48 8b 75 f0          	mov    -0x10(%rbp),%rsi
    6258:	48 8b 45 f8          	mov    -0x8(%rbp),%rax
    625c:	48 89 c7             	mov    %rax,%rdi
    625f:	e8 2c 0d 00 00       	callq  6f90 <_ZNKSt8__detail15_Hash_code_baseIPKcSt4pairIKS2_NSt7__cxx1112basic_stringIcSt11char_traitsIcESaIcEEEENS_10_Select1stESt4hashIS2_ENS_18_Mod_range_hashingENS_20_Default_ranged_hashELb0EE15_M_bucket_indexERS4_mm>
    6264:	c9                   	leaveq 
    6265:	c3                   	retq   

0000000000006266 <_ZNKSt10_HashtableIPKcSt4pairIKS1_NSt7__cxx1112basic_stringIcSt11char_traitsIcESaIcEEEESaISA_ENSt8__detail10_Select1stESt8equal_toIS1_ESt4hashIS1_ENSC_18_Mod_range_hashingENSC_20_Default_ranged_hashENSC_20_Prime_rehash_policyENSC_17_Hashtable_traitsILb0ELb0ELb1EEEE12_M_find_nodeEmRS3_m>:
    6266:	55                   	push   %rbp
    6267:	48 89 e5             	mov    %rsp,%rbp
    626a:	48 83 ec 30          	sub    $0x30,%rsp
    626e:	48 89 7d e8          	mov    %rdi,-0x18(%rbp)
    6272:	48 89 75 e0          	mov    %rsi,-0x20(%rbp)
    6276:	48 89 55 d8          	mov    %rdx,-0x28(%rbp)
    627a:	48 89 4d d0          	mov    %rcx,-0x30(%rbp)
    627e:	48 8b 4d d0          	mov    -0x30(%rbp),%rcx
    6282:	48 8b 55 d8          	mov    -0x28(%rbp),%rdx
    6286:	48 8b 75 e0          	mov    -0x20(%rbp),%rsi
    628a:	48 8b 45 e8          	mov    -0x18(%rbp),%rax
    628e:	48 89 c7             	mov    %rax,%rdi
    6291:	e8 36 0d 00 00       	callq  6fcc <_ZNKSt10_HashtableIPKcSt4pairIKS1_NSt7__cxx1112basic_stringIcSt11char_traitsIcESaIcEEEESaISA_ENSt8__detail10_Select1stESt8equal_toIS1_ESt4hashIS1_ENSC_18_Mod_range_hashingENSC_20_Default_ranged_hashENSC_20_Prime_rehash_policyENSC_17_Hashtable_traitsILb0ELb0ELb1EEEE19_M_find_before_nodeEmRS3_m>
    6296:	48 89 45 f8          	mov    %rax,-0x8(%rbp)
    629a:	48 83 7d f8 00       	cmpq   $0x0,-0x8(%rbp)
    629f:	74 09                	je     62aa <_ZNKSt10_HashtableIPKcSt4pairIKS1_NSt7__cxx1112basic_stringIcSt11char_traitsIcESaIcEEEESaISA_ENSt8__detail10_Select1stESt8equal_toIS1_ESt4hashIS1_ENSC_18_Mod_range_hashingENSC_20_Default_ranged_hashENSC_20_Prime_rehash_policyENSC_17_Hashtable_traitsILb0ELb0ELb1EEEE12_M_find_nodeEmRS3_m+0x44>
    62a1:	48 8b 45 f8          	mov    -0x8(%rbp),%rax
    62a5:	48 8b 00             	mov    (%rax),%rax
    62a8:	eb 05                	jmp    62af <_ZNKSt10_HashtableIPKcSt4pairIKS1_NSt7__cxx1112basic_stringIcSt11char_traitsIcESaIcEEEESaISA_ENSt8__detail10_Select1stESt8equal_toIS1_ESt4hashIS1_ENSC_18_Mod_range_hashingENSC_20_Default_ranged_hashENSC_20_Prime_rehash_policyENSC_17_Hashtable_traitsILb0ELb0ELb1EEEE12_M_find_nodeEmRS3_m+0x49>
    62aa:	b8 00 00 00 00       	mov    $0x0,%eax
    62af:	c9                   	leaveq 
    62b0:	c3                   	retq   
    62b1:	90                   	nop

00000000000062b2 <_ZNSt8__detail14_Node_iteratorISt4pairIKPKcNSt7__cxx1112basic_stringIcSt11char_traitsIcESaIcEEEELb0ELb0EEC1EPNS_10_Hash_nodeISB_Lb0EEE>:
    62b2:	55                   	push   %rbp
    62b3:	48 89 e5             	mov    %rsp,%rbp
    62b6:	48 83 ec 10          	sub    $0x10,%rsp
    62ba:	48 89 7d f8          	mov    %rdi,-0x8(%rbp)
    62be:	48 89 75 f0          	mov    %rsi,-0x10(%rbp)
    62c2:	48 8b 45 f8          	mov    -0x8(%rbp),%rax
    62c6:	48 8b 55 f0          	mov    -0x10(%rbp),%rdx
    62ca:	48 89 d6             	mov    %rdx,%rsi
    62cd:	48 89 c7             	mov    %rax,%rdi
    62d0:	e8 c9 0d 00 00       	callq  709e <_ZNSt8__detail19_Node_iterator_baseISt4pairIKPKcNSt7__cxx1112basic_stringIcSt11char_traitsIcESaIcEEEELb0EEC1EPNS_10_Hash_nodeISB_Lb0EEE>
    62d5:	90                   	nop
    62d6:	c9                   	leaveq 
    62d7:	c3                   	retq   

00000000000062d8 <_ZNSt10_HashtableIPKcSt4pairIKS1_NSt7__cxx1112basic_stringIcSt11char_traitsIcESaIcEEEESaISA_ENSt8__detail10_Select1stESt8equal_toIS1_ESt4hashIS1_ENSC_18_Mod_range_hashingENSC_20_Default_ranged_hashENSC_20_Prime_rehash_policyENSC_17_Hashtable_traitsILb0ELb0ELb1EEEE3endEv>:
    62d8:	55                   	push   %rbp
    62d9:	48 89 e5             	mov    %rsp,%rbp
    62dc:	48 83 ec 20          	sub    $0x20,%rsp
    62e0:	48 89 7d e8          	mov    %rdi,-0x18(%rbp)
    62e4:	64 48 8b 04 25 28 00 	mov    %fs:0x28,%rax
    62eb:	00 00 
    62ed:	48 89 45 f8          	mov    %rax,-0x8(%rbp)
    62f1:	31 c0                	xor    %eax,%eax
    62f3:	48 8d 45 f0          	lea    -0x10(%rbp),%rax
    62f7:	be 00 00 00 00       	mov    $0x0,%esi
    62fc:	48 89 c7             	mov    %rax,%rdi
    62ff:	e8 ae ff ff ff       	callq  62b2 <_ZNSt8__detail14_Node_iteratorISt4pairIKPKcNSt7__cxx1112basic_stringIcSt11char_traitsIcESaIcEEEELb0ELb0EEC1EPNS_10_Hash_nodeISB_Lb0EEE>
    6304:	48 8b 45 f0          	mov    -0x10(%rbp),%rax
    6308:	48 8b 55 f8          	mov    -0x8(%rbp),%rdx
    630c:	64 48 33 14 25 28 00 	xor    %fs:0x28,%rdx
    6313:	00 00 
    6315:	74 05                	je     631c <_ZNSt10_HashtableIPKcSt4pairIKS1_NSt7__cxx1112basic_stringIcSt11char_traitsIcESaIcEEEESaISA_ENSt8__detail10_Select1stESt8equal_toIS1_ESt4hashIS1_ENSC_18_Mod_range_hashingENSC_20_Default_ranged_hashENSC_20_Prime_rehash_policyENSC_17_Hashtable_traitsILb0ELb0ELb1EEEE3endEv+0x44>
    6317:	e8 44 b2 ff ff       	callq  1560 <__stack_chk_fail@plt>
    631c:	c9                   	leaveq 
    631d:	c3                   	retq   

000000000000631e <_ZN9__gnu_cxx16__aligned_bufferISt4pairIKPKcNSt7__cxx1112basic_stringIcSt11char_traitsIcESaIcEEEEE6_M_ptrEv>:
    631e:	55                   	push   %rbp
    631f:	48 89 e5             	mov    %rsp,%rbp
    6322:	48 83 ec 10          	sub    $0x10,%rsp
    6326:	48 89 7d f8          	mov    %rdi,-0x8(%rbp)
    632a:	48 8b 45 f8          	mov    -0x8(%rbp),%rax
    632e:	48 89 c7             	mov    %rax,%rdi
    6331:	e8 82 0d 00 00       	callq  70b8 <_ZN9__gnu_cxx16__aligned_bufferISt4pairIKPKcNSt7__cxx1112basic_stringIcSt11char_traitsIcESaIcEEEEE7_M_addrEv>
    6336:	c9                   	leaveq 
    6337:	c3                   	retq   

0000000000006338 <_ZNSt8__detail19_Node_iterator_baseISt4pairIKNSt7__cxx1112basic_stringIcSt11char_traitsIcESaIcEEEmELb1EEC1EPNS_10_Hash_nodeIS9_Lb1EEE>:
    6338:	55                   	push   %rbp
    6339:	48 89 e5             	mov    %rsp,%rbp
    633c:	48 89 7d f8          	mov    %rdi,-0x8(%rbp)
    6340:	48 89 75 f0          	mov    %rsi,-0x10(%rbp)
    6344:	48 8b 45 f8          	mov    -0x8(%rbp),%rax
    6348:	48 8b 55 f0          	mov    -0x10(%rbp),%rdx
    634c:	48 89 10             	mov    %rdx,(%rax)
    634f:	90                   	nop
    6350:	5d                   	pop    %rbp
    6351:	c3                   	retq   

0000000000006352 <_ZN9__gnu_cxx16__aligned_bufferISt4pairIKNSt7__cxx1112basic_stringIcSt11char_traitsIcESaIcEEEmEE7_M_addrEv>:
    6352:	55                   	push   %rbp
    6353:	48 89 e5             	mov    %rsp,%rbp
    6356:	48 89 7d f8          	mov    %rdi,-0x8(%rbp)
    635a:	48 8b 45 f8          	mov    -0x8(%rbp),%rax
    635e:	5d                   	pop    %rbp
    635f:	c3                   	retq   

0000000000006360 <_ZNSaINSt8__detail10_Hash_nodeISt4pairIKPKcNSt7__cxx1112basic_stringIcSt11char_traitsIcESaIcEEEELb0EEEEC1ISB_EERKSaIT_E>:
    6360:	55                   	push   %rbp
    6361:	48 89 e5             	mov    %rsp,%rbp
    6364:	48 83 ec 10          	sub    $0x10,%rsp
    6368:	48 89 7d f8          	mov    %rdi,-0x8(%rbp)
    636c:	48 89 75 f0          	mov    %rsi,-0x10(%rbp)
    6370:	48 8b 45 f8          	mov    -0x8(%rbp),%rax
    6374:	48 89 c7             	mov    %rax,%rdi
    6377:	e8 4a 0d 00 00       	callq  70c6 <_ZN9__gnu_cxx13new_allocatorINSt8__detail10_Hash_nodeISt4pairIKPKcNSt7__cxx1112basic_stringIcSt11char_traitsIcESaIcEEEELb0EEEEC1Ev>
    637c:	90                   	nop
    637d:	c9                   	leaveq 
    637e:	c3                   	retq   
    637f:	90                   	nop

0000000000006380 <_ZNSt8__detail15_Hashtable_baseIPKcSt4pairIKS2_NSt7__cxx1112basic_stringIcSt11char_traitsIcESaIcEEEENS_10_Select1stESt8equal_toIS2_ESt4hashIS2_ENS_18_Mod_range_hashingENS_20_Default_ranged_hashENS_17_Hashtable_traitsILb0ELb0ELb1EEEEC1ERKSC_RKSG_RKSH_RKSI_RKSE_>:
    6380:	55                   	push   %rbp
    6381:	48 89 e5             	mov    %rsp,%rbp
    6384:	48 83 ec 30          	sub    $0x30,%rsp
    6388:	48 89 7d f8          	mov    %rdi,-0x8(%rbp)
    638c:	48 89 75 f0          	mov    %rsi,-0x10(%rbp)
    6390:	48 89 55 e8          	mov    %rdx,-0x18(%rbp)
    6394:	48 89 4d e0          	mov    %rcx,-0x20(%rbp)
    6398:	4c 89 45 d8          	mov    %r8,-0x28(%rbp)
    639c:	4c 89 4d d0          	mov    %r9,-0x30(%rbp)
    63a0:	48 8b 7d d8          	mov    -0x28(%rbp),%rdi
    63a4:	48 8b 4d e0          	mov    -0x20(%rbp),%rcx
    63a8:	48 8b 55 e8          	mov    -0x18(%rbp),%rdx
    63ac:	48 8b 75 f0          	mov    -0x10(%rbp),%rsi
    63b0:	48 8b 45 f8          	mov    -0x8(%rbp),%rax
    63b4:	49 89 f8             	mov    %rdi,%r8
    63b7:	48 89 c7             	mov    %rax,%rdi
    63ba:	e8 13 0d 00 00       	callq  70d2 <_ZNSt8__detail15_Hash_code_baseIPKcSt4pairIKS2_NSt7__cxx1112basic_stringIcSt11char_traitsIcESaIcEEEENS_10_Select1stESt4hashIS2_ENS_18_Mod_range_hashingENS_20_Default_ranged_hashELb0EEC1ERKSC_RKSE_RKSF_RKSG_>
    63bf:	48 8b 55 d0          	mov    -0x30(%rbp),%rdx
    63c3:	48 8b 45 f8          	mov    -0x8(%rbp),%rax
    63c7:	48 89 d6             	mov    %rdx,%rsi
    63ca:	48 89 c7             	mov    %rax,%rdi
    63cd:	e8 66 0d 00 00       	callq  7138 <_ZNSt8__detail21_Hashtable_ebo_helperILi0ESt8equal_toIPKcELb1EEC1IRKS4_EEOT_>
    63d2:	90                   	nop
    63d3:	c9                   	leaveq 
    63d4:	c3                   	retq   

00000000000063d5 <_ZSt7forwardISaINSt8__detail10_Hash_nodeISt4pairIKPKcNSt7__cxx1112basic_stringIcSt11char_traitsIcESaIcEEEELb0EEEEEOT_RNSt16remove_referenceISF_E4typeE>:
    63d5:	55                   	push   %rbp
    63d6:	48 89 e5             	mov    %rsp,%rbp
    63d9:	48 89 7d f8          	mov    %rdi,-0x8(%rbp)
    63dd:	48 8b 45 f8          	mov    -0x8(%rbp),%rax
    63e1:	5d                   	pop    %rbp
    63e2:	c3                   	retq   
    63e3:	90                   	nop

00000000000063e4 <_ZNSt8__detail16_Hashtable_allocISaINS_10_Hash_nodeISt4pairIKPKcNSt7__cxx1112basic_stringIcSt11char_traitsIcESaIcEEEELb0EEEEEC1ISE_EEOT_>:
    63e4:	55                   	push   %rbp
    63e5:	48 89 e5             	mov    %rsp,%rbp
    63e8:	48 83 ec 10          	sub    $0x10,%rsp
    63ec:	48 89 7d f8          	mov    %rdi,-0x8(%rbp)
    63f0:	48 89 75 f0          	mov    %rsi,-0x10(%rbp)
    63f4:	48 8b 45 f0          	mov    -0x10(%rbp),%rax
    63f8:	48 89 c7             	mov    %rax,%rdi
    63fb:	e8 d5 ff ff ff       	callq  63d5 <_ZSt7forwardISaINSt8__detail10_Hash_nodeISt4pairIKPKcNSt7__cxx1112basic_stringIcSt11char_traitsIcESaIcEEEELb0EEEEEOT_RNSt16remove_referenceISF_E4typeE>
    6400:	48 89 c2             	mov    %rax,%rdx
    6403:	48 8b 45 f8          	mov    -0x8(%rbp),%rax
    6407:	48 89 d6             	mov    %rdx,%rsi
    640a:	48 89 c7             	mov    %rax,%rdi
    640d:	e8 46 0d 00 00       	callq  7158 <_ZNSt8__detail21_Hashtable_ebo_helperILi0ESaINS_10_Hash_nodeISt4pairIKPKcNSt7__cxx1112basic_stringIcSt11char_traitsIcESaIcEEEELb0EEEELb1EEC1ISE_EEOT_>
    6412:	90                   	nop
    6413:	c9                   	leaveq 
    6414:	c3                   	retq   

0000000000006415 <_ZNSt8__detail13__distance_fwIPKSt4pairIKPKcNSt7__cxx1112basic_stringIcSt11char_traitsIcESaIcEEEEEENSt15iterator_traitsIT_E15difference_typeESF_SF_St20forward_iterator_tag>:
    6415:	55                   	push   %rbp
    6416:	48 89 e5             	mov    %rsp,%rbp
    6419:	48 83 ec 10          	sub    $0x10,%rsp
    641d:	48 89 7d f8          	mov    %rdi,-0x8(%rbp)
    6421:	48 89 75 f0          	mov    %rsi,-0x10(%rbp)
    6425:	48 8b 55 f0          	mov    -0x10(%rbp),%rdx
    6429:	48 8b 45 f8          	mov    -0x8(%rbp),%rax
    642d:	48 89 d6             	mov    %rdx,%rsi
    6430:	48 89 c7             	mov    %rax,%rdi
    6433:	e8 5b 0d 00 00       	callq  7193 <_ZSt8distanceIPKSt4pairIKPKcNSt7__cxx1112basic_stringIcSt11char_traitsIcESaIcEEEEENSt15iterator_traitsIT_E15difference_typeESE_SE_>
    6438:	c9                   	leaveq 
    6439:	c3                   	retq   

000000000000643a <_ZNSt8__detail16_Hashtable_allocISaINS_10_Hash_nodeISt4pairIKPKcNSt7__cxx1112basic_stringIcSt11char_traitsIcESaIcEEEELb0EEEEE19_M_allocate_bucketsEm>:
    643a:	55                   	push   %rbp
    643b:	48 89 e5             	mov    %rsp,%rbp
    643e:	53                   	push   %rbx
    643f:	48 83 ec 38          	sub    $0x38,%rsp
    6443:	48 89 7d c8          	mov    %rdi,-0x38(%rbp)
    6447:	48 89 75 c0          	mov    %rsi,-0x40(%rbp)
    644b:	64 48 8b 04 25 28 00 	mov    %fs:0x28,%rax
    6452:	00 00 
    6454:	48 89 45 e8          	mov    %rax,-0x18(%rbp)
    6458:	31 c0                	xor    %eax,%eax
    645a:	48 8b 45 c8          	mov    -0x38(%rbp),%rax
    645e:	48 89 c7             	mov    %rax,%rdi
    6461:	e8 22 02 00 00       	callq  6688 <_ZNSt8__detail16_Hashtable_allocISaINS_10_Hash_nodeISt4pairIKPKcNSt7__cxx1112basic_stringIcSt11char_traitsIcESaIcEEEELb0EEEEE17_M_node_allocatorEv>
    6466:	48 89 c2             	mov    %rax,%rdx
    6469:	48 8d 45 d7          	lea    -0x29(%rbp),%rax
    646d:	48 89 d6             	mov    %rdx,%rsi
    6470:	48 89 c7             	mov    %rax,%rdi
    6473:	e8 b8 02 00 00       	callq  6730 <_ZNSaIPNSt8__detail15_Hash_node_baseEEC1INS_10_Hash_nodeISt4pairIKPKcNSt7__cxx1112basic_stringIcSt11char_traitsIcESaIcEEEELb0EEEEERKSaIT_E>
    6478:	48 8b 55 c0          	mov    -0x40(%rbp),%rdx
    647c:	48 8d 45 d7          	lea    -0x29(%rbp),%rax
    6480:	48 89 d6             	mov    %rdx,%rsi
    6483:	48 89 c7             	mov    %rax,%rdi
    6486:	e8 6a 0d 00 00       	callq  71f5 <_ZNSt16allocator_traitsISaIPNSt8__detail15_Hash_node_baseEEE8allocateERS3_m>
    648b:	48 89 45 d8          	mov    %rax,-0x28(%rbp)
    648f:	48 8b 45 d8          	mov    -0x28(%rbp),%rax
    6493:	48 89 c7             	mov    %rax,%rdi
    6496:	e8 84 0d 00 00       	callq  721f <_ZSt11__addressofIPNSt8__detail15_Hash_node_baseEEPT_RS3_>
    649b:	48 89 45 e0          	mov    %rax,-0x20(%rbp)
    649f:	48 8b 45 c0          	mov    -0x40(%rbp),%rax
    64a3:	48 8d 14 c5 00 00 00 	lea    0x0(,%rax,8),%rdx
    64aa:	00 
    64ab:	48 8b 45 e0          	mov    -0x20(%rbp),%rax
    64af:	be 00 00 00 00       	mov    $0x0,%esi
    64b4:	48 89 c7             	mov    %rax,%rdi
    64b7:	e8 e4 af ff ff       	callq  14a0 <memset@plt>
    64bc:	48 8b 5d e0          	mov    -0x20(%rbp),%rbx
    64c0:	48 8d 45 d7          	lea    -0x29(%rbp),%rax
    64c4:	48 89 c7             	mov    %rax,%rdi
    64c7:	e8 84 02 00 00       	callq  6750 <_ZNSaIPNSt8__detail15_Hash_node_baseEED1Ev>
    64cc:	48 89 d8             	mov    %rbx,%rax
    64cf:	48 8b 4d e8          	mov    -0x18(%rbp),%rcx
    64d3:	64 48 33 0c 25 28 00 	xor    %fs:0x28,%rcx
    64da:	00 00 
    64dc:	74 21                	je     64ff <_ZNSt8__detail16_Hashtable_allocISaINS_10_Hash_nodeISt4pairIKPKcNSt7__cxx1112basic_stringIcSt11char_traitsIcESaIcEEEELb0EEEEE19_M_allocate_bucketsEm+0xc5>
    64de:	eb 1a                	jmp    64fa <_ZNSt8__detail16_Hashtable_allocISaINS_10_Hash_nodeISt4pairIKPKcNSt7__cxx1112basic_stringIcSt11char_traitsIcESaIcEEEELb0EEEEE19_M_allocate_bucketsEm+0xc0>
    64e0:	48 89 c3             	mov    %rax,%rbx
    64e3:	48 8d 45 d7          	lea    -0x29(%rbp),%rax
    64e7:	48 89 c7             	mov    %rax,%rdi
    64ea:	e8 61 02 00 00       	callq  6750 <_ZNSaIPNSt8__detail15_Hash_node_baseEED1Ev>
    64ef:	48 89 d8             	mov    %rbx,%rax
    64f2:	48 89 c7             	mov    %rax,%rdi
    64f5:	e8 06 b1 ff ff       	callq  1600 <_Unwind_Resume@plt>
    64fa:	e8 61 b0 ff ff       	callq  1560 <__stack_chk_fail@plt>
    64ff:	48 83 c4 38          	add    $0x38,%rsp
    6503:	5b                   	pop    %rbx
    6504:	5d                   	pop    %rbp
    6505:	c3                   	retq   

0000000000006506 <_ZNSt8__detail12_Insert_baseIPKcSt4pairIKS2_NSt7__cxx1112basic_stringIcSt11char_traitsIcESaIcEEEESaISB_ENS_10_Select1stESt8equal_toIS2_ESt4hashIS2_ENS_18_Mod_range_hashingENS_20_Default_ranged_hashENS_20_Prime_rehash_policyENS_17_Hashtable_traitsILb0ELb0ELb1EEEE20_M_conjure_hashtableEv>:
    6506:	55                   	push   %rbp
    6507:	48 89 e5             	mov    %rsp,%rbp
    650a:	48 89 7d f8          	mov    %rdi,-0x8(%rbp)
    650e:	48 8b 45 f8          	mov    -0x8(%rbp),%rax
    6512:	5d                   	pop    %rbp
    6513:	c3                   	retq   

0000000000006514 <_ZNSt8__detail10_AllocNodeISaINS_10_Hash_nodeISt4pairIKPKcNSt7__cxx1112basic_stringIcSt11char_traitsIcESaIcEEEELb0EEEEEC1ERNS_16_Hashtable_allocISE_EE>:
    6514:	55                   	push   %rbp
    6515:	48 89 e5             	mov    %rsp,%rbp
    6518:	48 89 7d f8          	mov    %rdi,-0x8(%rbp)
    651c:	48 89 75 f0          	mov    %rsi,-0x10(%rbp)
    6520:	48 8b 45 f8          	mov    -0x8(%rbp),%rax
    6524:	48 8b 55 f0          	mov    -0x10(%rbp),%rdx
    6528:	48 89 10             	mov    %rdx,(%rax)
    652b:	90                   	nop
    652c:	5d                   	pop    %rbp
    652d:	c3                   	retq   

000000000000652e <_ZSt7forwardIRKSt4pairIKPKcNSt7__cxx1112basic_stringIcSt11char_traitsIcESaIcEEEEEOT_RNSt16remove_referenceISD_E4typeE>:
    652e:	55                   	push   %rbp
    652f:	48 89 e5             	mov    %rsp,%rbp
    6532:	48 89 7d f8          	mov    %rdi,-0x8(%rbp)
    6536:	48 8b 45 f8          	mov    -0x8(%rbp),%rax
    653a:	5d                   	pop    %rbp
    653b:	c3                   	retq   

000000000000653c <_ZNSt10_HashtableIPKcSt4pairIKS1_NSt7__cxx1112basic_stringIcSt11char_traitsIcESaIcEEEESaISA_ENSt8__detail10_Select1stESt8equal_toIS1_ESt4hashIS1_ENSC_18_Mod_range_hashingENSC_20_Default_ranged_hashENSC_20_Prime_rehash_policyENSC_17_Hashtable_traitsILb0ELb0ELb1EEEE9_M_insertIRKSA_NSC_10_AllocNodeISaINSC_10_Hash_nodeISA_Lb0EEEEEEEES2_INSC_14_Node_iteratorISA_Lb0ELb0EEEbEOT_RKT0_St17integral_constantIbLb1EE>:
    653c:	55                   	push   %rbp
    653d:	48 89 e5             	mov    %rsp,%rbp
    6540:	48 83 ec 60          	sub    $0x60,%rsp
    6544:	48 89 7d b8          	mov    %rdi,-0x48(%rbp)
    6548:	48 89 75 b0          	mov    %rsi,-0x50(%rbp)
    654c:	48 89 55 a8          	mov    %rdx,-0x58(%rbp)
    6550:	64 48 8b 04 25 28 00 	mov    %fs:0x28,%rax
    6557:	00 00 
    6559:	48 89 45 f8          	mov    %rax,-0x8(%rbp)
    655d:	31 c0                	xor    %eax,%eax
    655f:	48 8b 45 b8          	mov    -0x48(%rbp),%rax
    6563:	48 89 c7             	mov    %rax,%rdi
    6566:	e8 c3 0c 00 00       	callq  722e <_ZNSt8__detail15_Hash_code_baseIPKcSt4pairIKS2_NSt7__cxx1112basic_stringIcSt11char_traitsIcESaIcEEEENS_10_Select1stESt4hashIS2_ENS_18_Mod_range_hashingENS_20_Default_ranged_hashELb0EE10_M_extractEv>
    656b:	48 89 c2             	mov    %rax,%rdx
    656e:	48 8b 45 b0          	mov    -0x50(%rbp),%rax
    6572:	48 89 c6             	mov    %rax,%rsi
    6575:	48 89 d7             	mov    %rdx,%rdi
    6578:	e8 cb 0c 00 00       	callq  7248 <_ZNKSt8__detail10_Select1stclIRKSt4pairIKPKcNSt7__cxx1112basic_stringIcSt11char_traitsIcESaIcEEEEEEDTcl3getILi0EEcl7forwardIT_Efp_EEEOSF_>
    657d:	48 89 45 d8          	mov    %rax,-0x28(%rbp)
    6581:	48 8b 55 d8          	mov    -0x28(%rbp),%rdx
    6585:	48 8b 45 b8          	mov    -0x48(%rbp),%rax
    6589:	48 89 d6             	mov    %rdx,%rsi
    658c:	48 89 c7             	mov    %rax,%rdi
    658f:	e8 6c fc ff ff       	callq  6200 <_ZNKSt8__detail15_Hash_code_baseIPKcSt4pairIKS2_NSt7__cxx1112basic_stringIcSt11char_traitsIcESaIcEEEENS_10_Select1stESt4hashIS2_ENS_18_Mod_range_hashingENS_20_Default_ranged_hashELb0EE12_M_hash_codeERS4_>
    6594:	48 89 45 e0          	mov    %rax,-0x20(%rbp)
    6598:	48 8b 55 e0          	mov    -0x20(%rbp),%rdx
    659c:	48 8b 4d d8          	mov    -0x28(%rbp),%rcx
    65a0:	48 8b 45 b8          	mov    -0x48(%rbp),%rax
    65a4:	48 89 ce             	mov    %rcx,%rsi
    65a7:	48 89 c7             	mov    %rax,%rdi
    65aa:	e8 85 fc ff ff       	callq  6234 <_ZNKSt10_HashtableIPKcSt4pairIKS1_NSt7__cxx1112basic_stringIcSt11char_traitsIcESaIcEEEESaISA_ENSt8__detail10_Select1stESt8equal_toIS1_ESt4hashIS1_ENSC_18_Mod_range_hashingENSC_20_Default_ranged_hashENSC_20_Prime_rehash_policyENSC_17_Hashtable_traitsILb0ELb0ELb1EEEE15_M_bucket_indexERS3_m>
    65af:	48 89 45 e8          	mov    %rax,-0x18(%rbp)
    65b3:	48 8b 4d e0          	mov    -0x20(%rbp),%rcx
    65b7:	48 8b 55 d8          	mov    -0x28(%rbp),%rdx
    65bb:	48 8b 75 e8          	mov    -0x18(%rbp),%rsi
    65bf:	48 8b 45 b8          	mov    -0x48(%rbp),%rax
    65c3:	48 89 c7             	mov    %rax,%rdi
    65c6:	e8 9b fc ff ff       	callq  6266 <_ZNKSt10_HashtableIPKcSt4pairIKS1_NSt7__cxx1112basic_stringIcSt11char_traitsIcESaIcEEEESaISA_ENSt8__detail10_Select1stESt8equal_toIS1_ESt4hashIS1_ENSC_18_Mod_range_hashingENSC_20_Default_ranged_hashENSC_20_Prime_rehash_policyENSC_17_Hashtable_traitsILb0ELb0ELb1EEEE12_M_find_nodeEmRS3_m>
    65cb:	48 89 45 f0          	mov    %rax,-0x10(%rbp)
    65cf:	48 83 7d f0 00       	cmpq   $0x0,-0x10(%rbp)
    65d4:	74 2c                	je     6602 <_ZNSt10_HashtableIPKcSt4pairIKS1_NSt7__cxx1112basic_stringIcSt11char_traitsIcESaIcEEEESaISA_ENSt8__detail10_Select1stESt8equal_toIS1_ESt4hashIS1_ENSC_18_Mod_range_hashingENSC_20_Default_ranged_hashENSC_20_Prime_rehash_policyENSC_17_Hashtable_traitsILb0ELb0ELb1EEEE9_M_insertIRKSA_NSC_10_AllocNodeISaINSC_10_Hash_nodeISA_Lb0EEEEEEEES2_INSC_14_Node_iteratorISA_Lb0ELb0EEEbEOT_RKT0_St17integral_constantIbLb1EE+0xc6>
    65d6:	c6 45 cf 00          	movb   $0x0,-0x31(%rbp)
    65da:	48 8b 55 f0          	mov    -0x10(%rbp),%rdx
    65de:	48 8d 45 d0          	lea    -0x30(%rbp),%rax
    65e2:	48 89 d6             	mov    %rdx,%rsi
    65e5:	48 89 c7             	mov    %rax,%rdi
    65e8:	e8 c5 fc ff ff       	callq  62b2 <_ZNSt8__detail14_Node_iteratorISt4pairIKPKcNSt7__cxx1112basic_stringIcSt11char_traitsIcESaIcEEEELb0ELb0EEC1EPNS_10_Hash_nodeISB_Lb0EEE>
    65ed:	48 8d 55 cf          	lea    -0x31(%rbp),%rdx
    65f1:	48 8d 45 d0          	lea    -0x30(%rbp),%rax
    65f5:	48 89 d6             	mov    %rdx,%rsi
    65f8:	48 89 c7             	mov    %rax,%rdi
    65fb:	e8 7c 0c 00 00       	callq  727c <_ZSt9make_pairINSt8__detail14_Node_iteratorISt4pairIKPKcNSt7__cxx1112basic_stringIcSt11char_traitsIcESaIcEEEELb0ELb0EEEbES2_INSt17__decay_and_stripIT_E6__typeENSE_IT0_E6__typeEEOSF_OSI_>
    6600:	eb 55                	jmp    6657 <_ZNSt10_HashtableIPKcSt4pairIKS1_NSt7__cxx1112basic_stringIcSt11char_traitsIcESaIcEEEESaISA_ENSt8__detail10_Select1stESt8equal_toIS1_ESt4hashIS1_ENSC_18_Mod_range_hashingENSC_20_Default_ranged_hashENSC_20_Prime_rehash_policyENSC_17_Hashtable_traitsILb0ELb0ELb1EEEE9_M_insertIRKSA_NSC_10_AllocNodeISaINSC_10_Hash_nodeISA_Lb0EEEEEEEES2_INSC_14_Node_iteratorISA_Lb0ELb0EEEbEOT_RKT0_St17integral_constantIbLb1EE+0x11b>
    6602:	48 8b 45 b0          	mov    -0x50(%rbp),%rax
    6606:	48 89 c7             	mov    %rax,%rdi
    6609:	e8 20 ff ff ff       	callq  652e <_ZSt7forwardIRKSt4pairIKPKcNSt7__cxx1112basic_stringIcSt11char_traitsIcESaIcEEEEEOT_RNSt16remove_referenceISD_E4typeE>
    660e:	48 89 c2             	mov    %rax,%rdx
    6611:	48 8b 45 a8          	mov    -0x58(%rbp),%rax
    6615:	48 89 d6             	mov    %rdx,%rsi
    6618:	48 89 c7             	mov    %rax,%rdi
    661b:	e8 d0 0c 00 00       	callq  72f0 <_ZNKSt8__detail10_AllocNodeISaINS_10_Hash_nodeISt4pairIKPKcNSt7__cxx1112basic_stringIcSt11char_traitsIcESaIcEEEELb0EEEEEclIRKSC_EEPSD_OT_>
    6620:	48 89 45 f0          	mov    %rax,-0x10(%rbp)
    6624:	c6 45 cf 01          	movb   $0x1,-0x31(%rbp)
    6628:	48 8b 4d f0          	mov    -0x10(%rbp),%rcx
    662c:	48 8b 55 e0          	mov    -0x20(%rbp),%rdx
    6630:	48 8b 75 e8          	mov    -0x18(%rbp),%rsi
    6634:	48 8b 45 b8          	mov    -0x48(%rbp),%rax
    6638:	48 89 c7             	mov    %rax,%rdi
    663b:	e8 f4 0c 00 00       	callq  7334 <_ZNSt10_HashtableIPKcSt4pairIKS1_NSt7__cxx1112basic_stringIcSt11char_traitsIcESaIcEEEESaISA_ENSt8__detail10_Select1stESt8equal_toIS1_ESt4hashIS1_ENSC_18_Mod_range_hashingENSC_20_Default_ranged_hashENSC_20_Prime_rehash_policyENSC_17_Hashtable_traitsILb0ELb0ELb1EEEE21_M_insert_unique_nodeEmmPNSC_10_Hash_nodeISA_Lb0EEE>
    6640:	48 89 45 d0          	mov    %rax,-0x30(%rbp)
    6644:	48 8d 55 cf          	lea    -0x31(%rbp),%rdx
    6648:	48 8d 45 d0          	lea    -0x30(%rbp),%rax
    664c:	48 89 d6             	mov    %rdx,%rsi
    664f:	48 89 c7             	mov    %rax,%rdi
    6652:	e8 25 0c 00 00       	callq  727c <_ZSt9make_pairINSt8__detail14_Node_iteratorISt4pairIKPKcNSt7__cxx1112basic_stringIcSt11char_traitsIcESaIcEEEELb0ELb0EEEbES2_INSt17__decay_and_stripIT_E6__typeENSE_IT0_E6__typeEEOSF_OSI_>
    6657:	48 8b 4d f8          	mov    -0x8(%rbp),%rcx
    665b:	64 48 33 0c 25 28 00 	xor    %fs:0x28,%rcx
    6662:	00 00 
    6664:	74 05                	je     666b <_ZNSt10_HashtableIPKcSt4pairIKS1_NSt7__cxx1112basic_stringIcSt11char_traitsIcESaIcEEEESaISA_ENSt8__detail10_Select1stESt8equal_toIS1_ESt4hashIS1_ENSC_18_Mod_range_hashingENSC_20_Default_ranged_hashENSC_20_Prime_rehash_policyENSC_17_Hashtable_traitsILb0ELb0ELb1EEEE9_M_insertIRKSA_NSC_10_AllocNodeISaINSC_10_Hash_nodeISA_Lb0EEEEEEEES2_INSC_14_Node_iteratorISA_Lb0ELb0EEEbEOT_RKT0_St17integral_constantIbLb1EE+0x12f>
    6666:	e8 f5 ae ff ff       	callq  1560 <__stack_chk_fail@plt>
    666b:	c9                   	leaveq 
    666c:	c3                   	retq   

000000000000666d <_ZNSt14pointer_traitsIPNSt8__detail10_Hash_nodeISt4pairIKPKcNSt7__cxx1112basic_stringIcSt11char_traitsIcESaIcEEEELb0EEEE10pointer_toERSD_>:
    666d:	55                   	push   %rbp
    666e:	48 89 e5             	mov    %rsp,%rbp
    6671:	48 83 ec 10          	sub    $0x10,%rsp
    6675:	48 89 7d f8          	mov    %rdi,-0x8(%rbp)
    6679:	48 8b 45 f8          	mov    -0x8(%rbp),%rax
    667d:	48 89 c7             	mov    %rax,%rdi
    6680:	e8 2c 0e 00 00       	callq  74b1 <_ZSt9addressofINSt8__detail10_Hash_nodeISt4pairIKPKcNSt7__cxx1112basic_stringIcSt11char_traitsIcESaIcEEEELb0EEEEPT_RSE_>
    6685:	c9                   	leaveq 
    6686:	c3                   	retq   
    6687:	90                   	nop

0000000000006688 <_ZNSt8__detail16_Hashtable_allocISaINS_10_Hash_nodeISt4pairIKPKcNSt7__cxx1112basic_stringIcSt11char_traitsIcESaIcEEEELb0EEEEE17_M_node_allocatorEv>:
    6688:	55                   	push   %rbp
    6689:	48 89 e5             	mov    %rsp,%rbp
    668c:	48 83 ec 10          	sub    $0x10,%rsp
    6690:	48 89 7d f8          	mov    %rdi,-0x8(%rbp)
    6694:	48 8b 45 f8          	mov    -0x8(%rbp),%rax
    6698:	48 89 c7             	mov    %rax,%rdi
    669b:	e8 2b 0e 00 00       	callq  74cb <_ZNSt8__detail21_Hashtable_ebo_helperILi0ESaINS_10_Hash_nodeISt4pairIKPKcNSt7__cxx1112basic_stringIcSt11char_traitsIcESaIcEEEELb0EEEELb1EE6_S_getERSF_>
    66a0:	c9                   	leaveq 
    66a1:	c3                   	retq   

00000000000066a2 <_ZNSaISt4pairIKPKcNSt7__cxx1112basic_stringIcSt11char_traitsIcESaIcEEEEEC1INSt8__detail10_Hash_nodeIS9_Lb0EEEEERKSaIT_E>:
    66a2:	55                   	push   %rbp
    66a3:	48 89 e5             	mov    %rsp,%rbp
    66a6:	48 83 ec 10          	sub    $0x10,%rsp
    66aa:	48 89 7d f8          	mov    %rdi,-0x8(%rbp)
    66ae:	48 89 75 f0          	mov    %rsi,-0x10(%rbp)
    66b2:	48 8b 45 f8          	mov    -0x8(%rbp),%rax
    66b6:	48 89 c7             	mov    %rax,%rdi
    66b9:	e8 0c e1 ff ff       	callq  47ca <_ZN9__gnu_cxx13new_allocatorISt4pairIKPKcNSt7__cxx1112basic_stringIcSt11char_traitsIcESaIcEEEEEC1Ev>
    66be:	90                   	nop
    66bf:	c9                   	leaveq 
    66c0:	c3                   	retq   

00000000000066c1 <_ZNSt16allocator_traitsISaISt4pairIKPKcNSt7__cxx1112basic_stringIcSt11char_traitsIcESaIcEEEEEE7destroyISA_EEvRSB_PT_>:
    66c1:	55                   	push   %rbp
    66c2:	48 89 e5             	mov    %rsp,%rbp
    66c5:	48 83 ec 10          	sub    $0x10,%rsp
    66c9:	48 89 7d f8          	mov    %rdi,-0x8(%rbp)
    66cd:	48 89 75 f0          	mov    %rsi,-0x10(%rbp)
    66d1:	48 8b 55 f0          	mov    -0x10(%rbp),%rdx
    66d5:	48 8b 45 f8          	mov    -0x8(%rbp),%rax
    66d9:	48 89 d6             	mov    %rdx,%rsi
    66dc:	48 89 c7             	mov    %rax,%rdi
    66df:	e8 f6 0d 00 00       	callq  74da <_ZN9__gnu_cxx13new_allocatorISt4pairIKPKcNSt7__cxx1112basic_stringIcSt11char_traitsIcESaIcEEEEE7destroyISB_EEvPT_>
    66e4:	90                   	nop
    66e5:	c9                   	leaveq 
    66e6:	c3                   	retq   

00000000000066e7 <_ZNSt16allocator_traitsISaINSt8__detail10_Hash_nodeISt4pairIKPKcNSt7__cxx1112basic_stringIcSt11char_traitsIcESaIcEEEELb0EEEEE10deallocateERSE_PSD_m>:
    66e7:	55                   	push   %rbp
    66e8:	48 89 e5             	mov    %rsp,%rbp
    66eb:	48 83 ec 20          	sub    $0x20,%rsp
    66ef:	48 89 7d f8          	mov    %rdi,-0x8(%rbp)
    66f3:	48 89 75 f0          	mov    %rsi,-0x10(%rbp)
    66f7:	48 89 55 e8          	mov    %rdx,-0x18(%rbp)
    66fb:	48 8b 55 e8          	mov    -0x18(%rbp),%rdx
    66ff:	48 8b 4d f0          	mov    -0x10(%rbp),%rcx
    6703:	48 8b 45 f8          	mov    -0x8(%rbp),%rax
    6707:	48 89 ce             	mov    %rcx,%rsi
    670a:	48 89 c7             	mov    %rax,%rdi
    670d:	e8 e8 0d 00 00       	callq  74fa <_ZN9__gnu_cxx13new_allocatorINSt8__detail10_Hash_nodeISt4pairIKPKcNSt7__cxx1112basic_stringIcSt11char_traitsIcESaIcEEEELb0EEEE10deallocateEPSE_m>
    6712:	90                   	nop
    6713:	c9                   	leaveq 
    6714:	c3                   	retq   

0000000000006715 <_ZNSt14pointer_traitsIPPNSt8__detail15_Hash_node_baseEE10pointer_toERS2_>:
    6715:	55                   	push   %rbp
    6716:	48 89 e5             	mov    %rsp,%rbp
    6719:	48 83 ec 10          	sub    $0x10,%rsp
    671d:	48 89 7d f8          	mov    %rdi,-0x8(%rbp)
    6721:	48 8b 45 f8          	mov    -0x8(%rbp),%rax
    6725:	48 89 c7             	mov    %rax,%rdi
    6728:	e8 f0 0d 00 00       	callq  751d <_ZSt9addressofIPNSt8__detail15_Hash_node_baseEEPT_RS3_>
    672d:	c9                   	leaveq 
    672e:	c3                   	retq   
    672f:	90                   	nop

0000000000006730 <_ZNSaIPNSt8__detail15_Hash_node_baseEEC1INS_10_Hash_nodeISt4pairIKPKcNSt7__cxx1112basic_stringIcSt11char_traitsIcESaIcEEEELb0EEEEERKSaIT_E>:
    6730:	55                   	push   %rbp
    6731:	48 89 e5             	mov    %rsp,%rbp
    6734:	48 83 ec 10          	sub    $0x10,%rsp
    6738:	48 89 7d f8          	mov    %rdi,-0x8(%rbp)
    673c:	48 89 75 f0          	mov    %rsi,-0x10(%rbp)
    6740:	48 8b 45 f8          	mov    -0x8(%rbp),%rax
    6744:	48 89 c7             	mov    %rax,%rdi
    6747:	e8 ec 0d 00 00       	callq  7538 <_ZN9__gnu_cxx13new_allocatorIPNSt8__detail15_Hash_node_baseEEC1Ev>
    674c:	90                   	nop
    674d:	c9                   	leaveq 
    674e:	c3                   	retq   
    674f:	90                   	nop

0000000000006750 <_ZNSaIPNSt8__detail15_Hash_node_baseEED1Ev>:
    6750:	55                   	push   %rbp
    6751:	48 89 e5             	mov    %rsp,%rbp
    6754:	48 83 ec 10          	sub    $0x10,%rsp
    6758:	48 89 7d f8          	mov    %rdi,-0x8(%rbp)
    675c:	48 8b 45 f8          	mov    -0x8(%rbp),%rax
    6760:	48 89 c7             	mov    %rax,%rdi
    6763:	e8 dc 0d 00 00       	callq  7544 <_ZN9__gnu_cxx13new_allocatorIPNSt8__detail15_Hash_node_baseEED1Ev>
    6768:	90                   	nop
    6769:	c9                   	leaveq 
    676a:	c3                   	retq   

000000000000676b <_ZNSt16allocator_traitsISaIPNSt8__detail15_Hash_node_baseEEE10deallocateERS3_PS2_m>:
    676b:	55                   	push   %rbp
    676c:	48 89 e5             	mov    %rsp,%rbp
    676f:	48 83 ec 20          	sub    $0x20,%rsp
    6773:	48 89 7d f8          	mov    %rdi,-0x8(%rbp)
    6777:	48 89 75 f0          	mov    %rsi,-0x10(%rbp)
    677b:	48 89 55 e8          	mov    %rdx,-0x18(%rbp)
    677f:	48 8b 55 e8          	mov    -0x18(%rbp),%rdx
    6783:	48 8b 4d f0          	mov    -0x10(%rbp),%rcx
    6787:	48 8b 45 f8          	mov    -0x8(%rbp),%rax
    678b:	48 89 ce             	mov    %rcx,%rsi
    678e:	48 89 c7             	mov    %rax,%rdi
    6791:	e8 ba 0d 00 00       	callq  7550 <_ZN9__gnu_cxx13new_allocatorIPNSt8__detail15_Hash_node_baseEE10deallocateEPS3_m>
    6796:	90                   	nop
    6797:	c9                   	leaveq 
    6798:	c3                   	retq   
    6799:	90                   	nop

000000000000679a <_ZNSaINSt8__detail10_Hash_nodeISt4pairIKiNSt7__cxx1112basic_stringIcSt11char_traitsIcESaIcEEEELb0EEEEC1IS9_EERKSaIT_E>:
    679a:	55                   	push   %rbp
    679b:	48 89 e5             	mov    %rsp,%rbp
    679e:	48 83 ec 10          	sub    $0x10,%rsp
    67a2:	48 89 7d f8          	mov    %rdi,-0x8(%rbp)
    67a6:	48 89 75 f0          	mov    %rsi,-0x10(%rbp)
    67aa:	48 8b 45 f8          	mov    -0x8(%rbp),%rax
    67ae:	48 89 c7             	mov    %rax,%rdi
    67b1:	e8 be 0d 00 00       	callq  7574 <_ZN9__gnu_cxx13new_allocatorINSt8__detail10_Hash_nodeISt4pairIKiNSt7__cxx1112basic_stringIcSt11char_traitsIcESaIcEEEELb0EEEEC1Ev>
    67b6:	90                   	nop
    67b7:	c9                   	leaveq 
    67b8:	c3                   	retq   
    67b9:	90                   	nop

00000000000067ba <_ZNSt8__detail15_Hashtable_baseIiSt4pairIKiNSt7__cxx1112basic_stringIcSt11char_traitsIcESaIcEEEENS_10_Select1stESt8equal_toIiESt4hashIiENS_18_Mod_range_hashingENS_20_Default_ranged_hashENS_17_Hashtable_traitsILb0ELb0ELb1EEEEC1ERKSA_RKSE_RKSF_RKSG_RKSC_>:
    67ba:	55                   	push   %rbp
    67bb:	48 89 e5             	mov    %rsp,%rbp
    67be:	48 83 ec 30          	sub    $0x30,%rsp
    67c2:	48 89 7d f8          	mov    %rdi,-0x8(%rbp)
    67c6:	48 89 75 f0          	mov    %rsi,-0x10(%rbp)
    67ca:	48 89 55 e8          	mov    %rdx,-0x18(%rbp)
    67ce:	48 89 4d e0          	mov    %rcx,-0x20(%rbp)
    67d2:	4c 89 45 d8          	mov    %r8,-0x28(%rbp)
    67d6:	4c 89 4d d0          	mov    %r9,-0x30(%rbp)
    67da:	48 8b 7d d8          	mov    -0x28(%rbp),%rdi
    67de:	48 8b 4d e0          	mov    -0x20(%rbp),%rcx
    67e2:	48 8b 55 e8          	mov    -0x18(%rbp),%rdx
    67e6:	48 8b 75 f0          	mov    -0x10(%rbp),%rsi
    67ea:	48 8b 45 f8          	mov    -0x8(%rbp),%rax
    67ee:	49 89 f8             	mov    %rdi,%r8
    67f1:	48 89 c7             	mov    %rax,%rdi
    67f4:	e8 87 0d 00 00       	callq  7580 <_ZNSt8__detail15_Hash_code_baseIiSt4pairIKiNSt7__cxx1112basic_stringIcSt11char_traitsIcESaIcEEEENS_10_Select1stESt4hashIiENS_18_Mod_range_hashingENS_20_Default_ranged_hashELb0EEC1ERKSA_RKSC_RKSD_RKSE_>
    67f9:	48 8b 55 d0          	mov    -0x30(%rbp),%rdx
    67fd:	48 8b 45 f8          	mov    -0x8(%rbp),%rax
    6801:	48 89 d6             	mov    %rdx,%rsi
    6804:	48 89 c7             	mov    %rax,%rdi
    6807:	e8 da 0d 00 00       	callq  75e6 <_ZNSt8__detail21_Hashtable_ebo_helperILi0ESt8equal_toIiELb1EEC1IRKS2_EEOT_>
    680c:	90                   	nop
    680d:	c9                   	leaveq 
    680e:	c3                   	retq   

000000000000680f <_ZSt7forwardISaINSt8__detail10_Hash_nodeISt4pairIKiNSt7__cxx1112basic_stringIcSt11char_traitsIcESaIcEEEELb0EEEEEOT_RNSt16remove_referenceISD_E4typeE>:
    680f:	55                   	push   %rbp
    6810:	48 89 e5             	mov    %rsp,%rbp
    6813:	48 89 7d f8          	mov    %rdi,-0x8(%rbp)
    6817:	48 8b 45 f8          	mov    -0x8(%rbp),%rax
    681b:	5d                   	pop    %rbp
    681c:	c3                   	retq   
    681d:	90                   	nop

000000000000681e <_ZNSt8__detail16_Hashtable_allocISaINS_10_Hash_nodeISt4pairIKiNSt7__cxx1112basic_stringIcSt11char_traitsIcESaIcEEEELb0EEEEEC1ISC_EEOT_>:
    681e:	55                   	push   %rbp
    681f:	48 89 e5             	mov    %rsp,%rbp
    6822:	48 83 ec 10          	sub    $0x10,%rsp
    6826:	48 89 7d f8          	mov    %rdi,-0x8(%rbp)
    682a:	48 89 75 f0          	mov    %rsi,-0x10(%rbp)
    682e:	48 8b 45 f0          	mov    -0x10(%rbp),%rax
    6832:	48 89 c7             	mov    %rax,%rdi
    6835:	e8 d5 ff ff ff       	callq  680f <_ZSt7forwardISaINSt8__detail10_Hash_nodeISt4pairIKiNSt7__cxx1112basic_stringIcSt11char_traitsIcESaIcEEEELb0EEEEEOT_RNSt16remove_referenceISD_E4typeE>
    683a:	48 89 c2             	mov    %rax,%rdx
    683d:	48 8b 45 f8          	mov    -0x8(%rbp),%rax
    6841:	48 89 d6             	mov    %rdx,%rsi
    6844:	48 89 c7             	mov    %rax,%rdi
    6847:	e8 ba 0d 00 00       	callq  7606 <_ZNSt8__detail21_Hashtable_ebo_helperILi0ESaINS_10_Hash_nodeISt4pairIKiNSt7__cxx1112basic_stringIcSt11char_traitsIcESaIcEEEELb0EEEELb1EEC1ISC_EEOT_>
    684c:	90                   	nop
    684d:	c9                   	leaveq 
    684e:	c3                   	retq   

000000000000684f <_ZNSt8__detail13__distance_fwIPKSt4pairIKiNSt7__cxx1112basic_stringIcSt11char_traitsIcESaIcEEEEEENSt15iterator_traitsIT_E15difference_typeESD_SD_St20forward_iterator_tag>:
    684f:	55                   	push   %rbp
    6850:	48 89 e5             	mov    %rsp,%rbp
    6853:	48 83 ec 10          	sub    $0x10,%rsp
    6857:	48 89 7d f8          	mov    %rdi,-0x8(%rbp)
    685b:	48 89 75 f0          	mov    %rsi,-0x10(%rbp)
    685f:	48 8b 55 f0          	mov    -0x10(%rbp),%rdx
    6863:	48 8b 45 f8          	mov    -0x8(%rbp),%rax
    6867:	48 89 d6             	mov    %rdx,%rsi
    686a:	48 89 c7             	mov    %rax,%rdi
    686d:	e8 cf 0d 00 00       	callq  7641 <_ZSt8distanceIPKSt4pairIKiNSt7__cxx1112basic_stringIcSt11char_traitsIcESaIcEEEEENSt15iterator_traitsIT_E15difference_typeESC_SC_>
    6872:	c9                   	leaveq 
    6873:	c3                   	retq   

0000000000006874 <_ZNSt8__detail16_Hashtable_allocISaINS_10_Hash_nodeISt4pairIKiNSt7__cxx1112basic_stringIcSt11char_traitsIcESaIcEEEELb0EEEEE19_M_allocate_bucketsEm>:
    6874:	55                   	push   %rbp
    6875:	48 89 e5             	mov    %rsp,%rbp
    6878:	53                   	push   %rbx
    6879:	48 83 ec 38          	sub    $0x38,%rsp
    687d:	48 89 7d c8          	mov    %rdi,-0x38(%rbp)
    6881:	48 89 75 c0          	mov    %rsi,-0x40(%rbp)
    6885:	64 48 8b 04 25 28 00 	mov    %fs:0x28,%rax
    688c:	00 00 
    688e:	48 89 45 e8          	mov    %rax,-0x18(%rbp)
    6892:	31 c0                	xor    %eax,%eax
    6894:	48 8b 45 c8          	mov    -0x38(%rbp),%rax
    6898:	48 89 c7             	mov    %rax,%rdi
    689b:	e8 22 02 00 00       	callq  6ac2 <_ZNSt8__detail16_Hashtable_allocISaINS_10_Hash_nodeISt4pairIKiNSt7__cxx1112basic_stringIcSt11char_traitsIcESaIcEEEELb0EEEEE17_M_node_allocatorEv>
    68a0:	48 89 c2             	mov    %rax,%rdx
    68a3:	48 8d 45 d7          	lea    -0x29(%rbp),%rax
    68a7:	48 89 d6             	mov    %rdx,%rsi
    68aa:	48 89 c7             	mov    %rax,%rdi
    68ad:	e8 bc 02 00 00       	callq  6b6e <_ZNSaIPNSt8__detail15_Hash_node_baseEEC1INS_10_Hash_nodeISt4pairIKiNSt7__cxx1112basic_stringIcSt11char_traitsIcESaIcEEEELb0EEEEERKSaIT_E>
    68b2:	48 8b 55 c0          	mov    -0x40(%rbp),%rdx
    68b6:	48 8d 45 d7          	lea    -0x29(%rbp),%rax
    68ba:	48 89 d6             	mov    %rdx,%rsi
    68bd:	48 89 c7             	mov    %rax,%rdi
    68c0:	e8 30 09 00 00       	callq  71f5 <_ZNSt16allocator_traitsISaIPNSt8__detail15_Hash_node_baseEEE8allocateERS3_m>
    68c5:	48 89 45 d8          	mov    %rax,-0x28(%rbp)
    68c9:	48 8b 45 d8          	mov    -0x28(%rbp),%rax
    68cd:	48 89 c7             	mov    %rax,%rdi
    68d0:	e8 4a 09 00 00       	callq  721f <_ZSt11__addressofIPNSt8__detail15_Hash_node_baseEEPT_RS3_>
    68d5:	48 89 45 e0          	mov    %rax,-0x20(%rbp)
    68d9:	48 8b 45 c0          	mov    -0x40(%rbp),%rax
    68dd:	48 8d 14 c5 00 00 00 	lea    0x0(,%rax,8),%rdx
    68e4:	00 
    68e5:	48 8b 45 e0          	mov    -0x20(%rbp),%rax
    68e9:	be 00 00 00 00       	mov    $0x0,%esi
    68ee:	48 89 c7             	mov    %rax,%rdi
    68f1:	e8 aa ab ff ff       	callq  14a0 <memset@plt>
    68f6:	48 8b 5d e0          	mov    -0x20(%rbp),%rbx
    68fa:	48 8d 45 d7          	lea    -0x29(%rbp),%rax
    68fe:	48 89 c7             	mov    %rax,%rdi
    6901:	e8 4a fe ff ff       	callq  6750 <_ZNSaIPNSt8__detail15_Hash_node_baseEED1Ev>
    6906:	48 89 d8             	mov    %rbx,%rax
    6909:	48 8b 4d e8          	mov    -0x18(%rbp),%rcx
    690d:	64 48 33 0c 25 28 00 	xor    %fs:0x28,%rcx
    6914:	00 00 
    6916:	74 21                	je     6939 <_ZNSt8__detail16_Hashtable_allocISaINS_10_Hash_nodeISt4pairIKiNSt7__cxx1112basic_stringIcSt11char_traitsIcESaIcEEEELb0EEEEE19_M_allocate_bucketsEm+0xc5>
    6918:	eb 1a                	jmp    6934 <_ZNSt8__detail16_Hashtable_allocISaINS_10_Hash_nodeISt4pairIKiNSt7__cxx1112basic_stringIcSt11char_traitsIcESaIcEEEELb0EEEEE19_M_allocate_bucketsEm+0xc0>
    691a:	48 89 c3             	mov    %rax,%rbx
    691d:	48 8d 45 d7          	lea    -0x29(%rbp),%rax
    6921:	48 89 c7             	mov    %rax,%rdi
    6924:	e8 27 fe ff ff       	callq  6750 <_ZNSaIPNSt8__detail15_Hash_node_baseEED1Ev>
    6929:	48 89 d8             	mov    %rbx,%rax
    692c:	48 89 c7             	mov    %rax,%rdi
    692f:	e8 cc ac ff ff       	callq  1600 <_Unwind_Resume@plt>
    6934:	e8 27 ac ff ff       	callq  1560 <__stack_chk_fail@plt>
    6939:	48 83 c4 38          	add    $0x38,%rsp
    693d:	5b                   	pop    %rbx
    693e:	5d                   	pop    %rbp
    693f:	c3                   	retq   

0000000000006940 <_ZNSt8__detail12_Insert_baseIiSt4pairIKiNSt7__cxx1112basic_stringIcSt11char_traitsIcESaIcEEEESaIS9_ENS_10_Select1stESt8equal_toIiESt4hashIiENS_18_Mod_range_hashingENS_20_Default_ranged_hashENS_20_Prime_rehash_policyENS_17_Hashtable_traitsILb0ELb0ELb1EEEE20_M_conjure_hashtableEv>:
    6940:	55                   	push   %rbp
    6941:	48 89 e5             	mov    %rsp,%rbp
    6944:	48 89 7d f8          	mov    %rdi,-0x8(%rbp)
    6948:	48 8b 45 f8          	mov    -0x8(%rbp),%rax
    694c:	5d                   	pop    %rbp
    694d:	c3                   	retq   

000000000000694e <_ZNSt8__detail10_AllocNodeISaINS_10_Hash_nodeISt4pairIKiNSt7__cxx1112basic_stringIcSt11char_traitsIcESaIcEEEELb0EEEEEC1ERNS_16_Hashtable_allocISC_EE>:
    694e:	55                   	push   %rbp
    694f:	48 89 e5             	mov    %rsp,%rbp
    6952:	48 89 7d f8          	mov    %rdi,-0x8(%rbp)
    6956:	48 89 75 f0          	mov    %rsi,-0x10(%rbp)
    695a:	48 8b 45 f8          	mov    -0x8(%rbp),%rax
    695e:	48 8b 55 f0          	mov    -0x10(%rbp),%rdx
    6962:	48 89 10             	mov    %rdx,(%rax)
    6965:	90                   	nop
    6966:	5d                   	pop    %rbp
    6967:	c3                   	retq   

0000000000006968 <_ZSt7forwardIRKSt4pairIKiNSt7__cxx1112basic_stringIcSt11char_traitsIcESaIcEEEEEOT_RNSt16remove_referenceISB_E4typeE>:
    6968:	55                   	push   %rbp
    6969:	48 89 e5             	mov    %rsp,%rbp
    696c:	48 89 7d f8          	mov    %rdi,-0x8(%rbp)
    6970:	48 8b 45 f8          	mov    -0x8(%rbp),%rax
    6974:	5d                   	pop    %rbp
    6975:	c3                   	retq   

0000000000006976 <_ZNSt10_HashtableIiSt4pairIKiNSt7__cxx1112basic_stringIcSt11char_traitsIcESaIcEEEESaIS8_ENSt8__detail10_Select1stESt8equal_toIiESt4hashIiENSA_18_Mod_range_hashingENSA_20_Default_ranged_hashENSA_20_Prime_rehash_policyENSA_17_Hashtable_traitsILb0ELb0ELb1EEEE9_M_insertIRKS8_NSA_10_AllocNodeISaINSA_10_Hash_nodeIS8_Lb0EEEEEEEES0_INSA_14_Node_iteratorIS8_Lb0ELb0EEEbEOT_RKT0_St17integral_constantIbLb1EE>:
    6976:	55                   	push   %rbp
    6977:	48 89 e5             	mov    %rsp,%rbp
    697a:	48 83 ec 60          	sub    $0x60,%rsp
    697e:	48 89 7d b8          	mov    %rdi,-0x48(%rbp)
    6982:	48 89 75 b0          	mov    %rsi,-0x50(%rbp)
    6986:	48 89 55 a8          	mov    %rdx,-0x58(%rbp)
    698a:	64 48 8b 04 25 28 00 	mov    %fs:0x28,%rax
    6991:	00 00 
    6993:	48 89 45 f8          	mov    %rax,-0x8(%rbp)
    6997:	31 c0                	xor    %eax,%eax
    6999:	48 8b 45 b8          	mov    -0x48(%rbp),%rax
    699d:	48 89 c7             	mov    %rax,%rdi
    69a0:	e8 ff 0c 00 00       	callq  76a4 <_ZNSt8__detail15_Hash_code_baseIiSt4pairIKiNSt7__cxx1112basic_stringIcSt11char_traitsIcESaIcEEEENS_10_Select1stESt4hashIiENS_18_Mod_range_hashingENS_20_Default_ranged_hashELb0EE10_M_extractEv>
    69a5:	48 89 c2             	mov    %rax,%rdx
    69a8:	48 8b 45 b0          	mov    -0x50(%rbp),%rax
    69ac:	48 89 c6             	mov    %rax,%rsi
    69af:	48 89 d7             	mov    %rdx,%rdi
    69b2:	e8 07 0d 00 00       	callq  76be <_ZNKSt8__detail10_Select1stclIRKSt4pairIKiNSt7__cxx1112basic_stringIcSt11char_traitsIcESaIcEEEEEEDTcl3getILi0EEcl7forwardIT_Efp_EEEOSD_>
    69b7:	48 89 45 d8          	mov    %rax,-0x28(%rbp)
    69bb:	48 8b 55 d8          	mov    -0x28(%rbp),%rdx
    69bf:	48 8b 45 b8          	mov    -0x48(%rbp),%rax
    69c3:	48 89 d6             	mov    %rdx,%rsi
    69c6:	48 89 c7             	mov    %rax,%rdi
    69c9:	e8 16 0d 00 00       	callq  76e4 <_ZNKSt8__detail15_Hash_code_baseIiSt4pairIKiNSt7__cxx1112basic_stringIcSt11char_traitsIcESaIcEEEENS_10_Select1stESt4hashIiENS_18_Mod_range_hashingENS_20_Default_ranged_hashELb0EE12_M_hash_codeERS2_>
    69ce:	48 89 45 e0          	mov    %rax,-0x20(%rbp)
    69d2:	48 8b 55 e0          	mov    -0x20(%rbp),%rdx
    69d6:	48 8b 4d d8          	mov    -0x28(%rbp),%rcx
    69da:	48 8b 45 b8          	mov    -0x48(%rbp),%rax
    69de:	48 89 ce             	mov    %rcx,%rsi
    69e1:	48 89 c7             	mov    %rax,%rdi
    69e4:	e8 2d 0d 00 00       	callq  7716 <_ZNKSt10_HashtableIiSt4pairIKiNSt7__cxx1112basic_stringIcSt11char_traitsIcESaIcEEEESaIS8_ENSt8__detail10_Select1stESt8equal_toIiESt4hashIiENSA_18_Mod_range_hashingENSA_20_Default_ranged_hashENSA_20_Prime_rehash_policyENSA_17_Hashtable_traitsILb0ELb0ELb1EEEE15_M_bucket_indexERS1_m>
    69e9:	48 89 45 e8          	mov    %rax,-0x18(%rbp)
    69ed:	48 8b 4d e0          	mov    -0x20(%rbp),%rcx
    69f1:	48 8b 55 d8          	mov    -0x28(%rbp),%rdx
    69f5:	48 8b 75 e8          	mov    -0x18(%rbp),%rsi
    69f9:	48 8b 45 b8          	mov    -0x48(%rbp),%rax
    69fd:	48 89 c7             	mov    %rax,%rdi
    6a00:	e8 43 0d 00 00       	callq  7748 <_ZNKSt10_HashtableIiSt4pairIKiNSt7__cxx1112basic_stringIcSt11char_traitsIcESaIcEEEESaIS8_ENSt8__detail10_Select1stESt8equal_toIiESt4hashIiENSA_18_Mod_range_hashingENSA_20_Default_ranged_hashENSA_20_Prime_rehash_policyENSA_17_Hashtable_traitsILb0ELb0ELb1EEEE12_M_find_nodeEmRS1_m>
    6a05:	48 89 45 f0          	mov    %rax,-0x10(%rbp)
    6a09:	48 83 7d f0 00       	cmpq   $0x0,-0x10(%rbp)
    6a0e:	74 2c                	je     6a3c <_ZNSt10_HashtableIiSt4pairIKiNSt7__cxx1112basic_stringIcSt11char_traitsIcESaIcEEEESaIS8_ENSt8__detail10_Select1stESt8equal_toIiESt4hashIiENSA_18_Mod_range_hashingENSA_20_Default_ranged_hashENSA_20_Prime_rehash_policyENSA_17_Hashtable_traitsILb0ELb0ELb1EEEE9_M_insertIRKS8_NSA_10_AllocNodeISaINSA_10_Hash_nodeIS8_Lb0EEEEEEEES0_INSA_14_Node_iteratorIS8_Lb0ELb0EEEbEOT_RKT0_St17integral_constantIbLb1EE+0xc6>
    6a10:	c6 45 cf 00          	movb   $0x0,-0x31(%rbp)
    6a14:	48 8b 55 f0          	mov    -0x10(%rbp),%rdx
    6a18:	48 8d 45 d0          	lea    -0x30(%rbp),%rax
    6a1c:	48 89 d6             	mov    %rdx,%rsi
    6a1f:	48 89 c7             	mov    %rax,%rdi
    6a22:	e8 6d 0d 00 00       	callq  7794 <_ZNSt8__detail14_Node_iteratorISt4pairIKiNSt7__cxx1112basic_stringIcSt11char_traitsIcESaIcEEEELb0ELb0EEC1EPNS_10_Hash_nodeIS9_Lb0EEE>
    6a27:	48 8d 55 cf          	lea    -0x31(%rbp),%rdx
    6a2b:	48 8d 45 d0          	lea    -0x30(%rbp),%rax
    6a2f:	48 89 d6             	mov    %rdx,%rsi
    6a32:	48 89 c7             	mov    %rax,%rdi
    6a35:	e8 8e 0d 00 00       	callq  77c8 <_ZSt9make_pairINSt8__detail14_Node_iteratorISt4pairIKiNSt7__cxx1112basic_stringIcSt11char_traitsIcESaIcEEEELb0ELb0EEEbES2_INSt17__decay_and_stripIT_E6__typeENSC_IT0_E6__typeEEOSD_OSG_>
    6a3a:	eb 55                	jmp    6a91 <_ZNSt10_HashtableIiSt4pairIKiNSt7__cxx1112basic_stringIcSt11char_traitsIcESaIcEEEESaIS8_ENSt8__detail10_Select1stESt8equal_toIiESt4hashIiENSA_18_Mod_range_hashingENSA_20_Default_ranged_hashENSA_20_Prime_rehash_policyENSA_17_Hashtable_traitsILb0ELb0ELb1EEEE9_M_insertIRKS8_NSA_10_AllocNodeISaINSA_10_Hash_nodeIS8_Lb0EEEEEEEES0_INSA_14_Node_iteratorIS8_Lb0ELb0EEEbEOT_RKT0_St17integral_constantIbLb1EE+0x11b>
    6a3c:	48 8b 45 b0          	mov    -0x50(%rbp),%rax
    6a40:	48 89 c7             	mov    %rax,%rdi
    6a43:	e8 20 ff ff ff       	callq  6968 <_ZSt7forwardIRKSt4pairIKiNSt7__cxx1112basic_stringIcSt11char_traitsIcESaIcEEEEEOT_RNSt16remove_referenceISB_E4typeE>
    6a48:	48 89 c2             	mov    %rax,%rdx
    6a4b:	48 8b 45 a8          	mov    -0x58(%rbp),%rax
    6a4f:	48 89 d6             	mov    %rdx,%rsi
    6a52:	48 89 c7             	mov    %rax,%rdi
    6a55:	e8 e2 0d 00 00       	callq  783c <_ZNKSt8__detail10_AllocNodeISaINS_10_Hash_nodeISt4pairIKiNSt7__cxx1112basic_stringIcSt11char_traitsIcESaIcEEEELb0EEEEEclIRKSA_EEPSB_OT_>
    6a5a:	48 89 45 f0          	mov    %rax,-0x10(%rbp)
    6a5e:	c6 45 cf 01          	movb   $0x1,-0x31(%rbp)
    6a62:	48 8b 4d f0          	mov    -0x10(%rbp),%rcx
    6a66:	48 8b 55 e0          	mov    -0x20(%rbp),%rdx
    6a6a:	48 8b 75 e8          	mov    -0x18(%rbp),%rsi
    6a6e:	48 8b 45 b8          	mov    -0x48(%rbp),%rax
    6a72:	48 89 c7             	mov    %rax,%rdi
    6a75:	e8 06 0e 00 00       	callq  7880 <_ZNSt10_HashtableIiSt4pairIKiNSt7__cxx1112basic_stringIcSt11char_traitsIcESaIcEEEESaIS8_ENSt8__detail10_Select1stESt8equal_toIiESt4hashIiENSA_18_Mod_range_hashingENSA_20_Default_ranged_hashENSA_20_Prime_rehash_policyENSA_17_Hashtable_traitsILb0ELb0ELb1EEEE21_M_insert_unique_nodeEmmPNSA_10_Hash_nodeIS8_Lb0EEE>
    6a7a:	48 89 45 d0          	mov    %rax,-0x30(%rbp)
    6a7e:	48 8d 55 cf          	lea    -0x31(%rbp),%rdx
    6a82:	48 8d 45 d0          	lea    -0x30(%rbp),%rax
    6a86:	48 89 d6             	mov    %rdx,%rsi
    6a89:	48 89 c7             	mov    %rax,%rdi
    6a8c:	e8 37 0d 00 00       	callq  77c8 <_ZSt9make_pairINSt8__detail14_Node_iteratorISt4pairIKiNSt7__cxx1112basic_stringIcSt11char_traitsIcESaIcEEEELb0ELb0EEEbES2_INSt17__decay_and_stripIT_E6__typeENSC_IT0_E6__typeEEOSD_OSG_>
    6a91:	48 8b 4d f8          	mov    -0x8(%rbp),%rcx
    6a95:	64 48 33 0c 25 28 00 	xor    %fs:0x28,%rcx
    6a9c:	00 00 
    6a9e:	74 05                	je     6aa5 <_ZNSt10_HashtableIiSt4pairIKiNSt7__cxx1112basic_stringIcSt11char_traitsIcESaIcEEEESaIS8_ENSt8__detail10_Select1stESt8equal_toIiESt4hashIiENSA_18_Mod_range_hashingENSA_20_Default_ranged_hashENSA_20_Prime_rehash_policyENSA_17_Hashtable_traitsILb0ELb0ELb1EEEE9_M_insertIRKS8_NSA_10_AllocNodeISaINSA_10_Hash_nodeIS8_Lb0EEEEEEEES0_INSA_14_Node_iteratorIS8_Lb0ELb0EEEbEOT_RKT0_St17integral_constantIbLb1EE+0x12f>
    6aa0:	e8 bb aa ff ff       	callq  1560 <__stack_chk_fail@plt>
    6aa5:	c9                   	leaveq 
    6aa6:	c3                   	retq   

0000000000006aa7 <_ZNSt14pointer_traitsIPNSt8__detail10_Hash_nodeISt4pairIKiNSt7__cxx1112basic_stringIcSt11char_traitsIcESaIcEEEELb0EEEE10pointer_toERSB_>:
    6aa7:	55                   	push   %rbp
    6aa8:	48 89 e5             	mov    %rsp,%rbp
    6aab:	48 83 ec 10          	sub    $0x10,%rsp
    6aaf:	48 89 7d f8          	mov    %rdi,-0x8(%rbp)
    6ab3:	48 8b 45 f8          	mov    -0x8(%rbp),%rax
    6ab7:	48 89 c7             	mov    %rax,%rdi
    6aba:	e8 3e 0f 00 00       	callq  79fd <_ZSt9addressofINSt8__detail10_Hash_nodeISt4pairIKiNSt7__cxx1112basic_stringIcSt11char_traitsIcESaIcEEEELb0EEEEPT_RSC_>
    6abf:	c9                   	leaveq 
    6ac0:	c3                   	retq   
    6ac1:	90                   	nop

0000000000006ac2 <_ZNSt8__detail16_Hashtable_allocISaINS_10_Hash_nodeISt4pairIKiNSt7__cxx1112basic_stringIcSt11char_traitsIcESaIcEEEELb0EEEEE17_M_node_allocatorEv>:
    6ac2:	55                   	push   %rbp
    6ac3:	48 89 e5             	mov    %rsp,%rbp
    6ac6:	48 83 ec 10          	sub    $0x10,%rsp
    6aca:	48 89 7d f8          	mov    %rdi,-0x8(%rbp)
    6ace:	48 8b 45 f8          	mov    -0x8(%rbp),%rax
    6ad2:	48 89 c7             	mov    %rax,%rdi
    6ad5:	e8 3d 0f 00 00       	callq  7a17 <_ZNSt8__detail21_Hashtable_ebo_helperILi0ESaINS_10_Hash_nodeISt4pairIKiNSt7__cxx1112basic_stringIcSt11char_traitsIcESaIcEEEELb0EEEELb1EE6_S_getERSD_>
    6ada:	c9                   	leaveq 
    6adb:	c3                   	retq   

0000000000006adc <_ZNSaISt4pairIKiNSt7__cxx1112basic_stringIcSt11char_traitsIcESaIcEEEEEC1INSt8__detail10_Hash_nodeIS7_Lb0EEEEERKSaIT_E>:
    6adc:	55                   	push   %rbp
    6add:	48 89 e5             	mov    %rsp,%rbp
    6ae0:	48 83 ec 10          	sub    $0x10,%rsp
    6ae4:	48 89 7d f8          	mov    %rdi,-0x8(%rbp)
    6ae8:	48 89 75 f0          	mov    %rsi,-0x10(%rbp)
    6aec:	48 8b 45 f8          	mov    -0x8(%rbp),%rax
    6af0:	48 89 c7             	mov    %rax,%rdi
    6af3:	e8 aa de ff ff       	callq  49a2 <_ZN9__gnu_cxx13new_allocatorISt4pairIKiNSt7__cxx1112basic_stringIcSt11char_traitsIcESaIcEEEEEC1Ev>
    6af8:	90                   	nop
    6af9:	c9                   	leaveq 
    6afa:	c3                   	retq   
    6afb:	90                   	nop

0000000000006afc <_ZNSt8__detail21_Hash_node_value_baseISt4pairIKiNSt7__cxx1112basic_stringIcSt11char_traitsIcESaIcEEEEE9_M_valptrEv>:
    6afc:	55                   	push   %rbp
    6afd:	48 89 e5             	mov    %rsp,%rbp
    6b00:	48 83 ec 10          	sub    $0x10,%rsp
    6b04:	48 89 7d f8          	mov    %rdi,-0x8(%rbp)
    6b08:	48 8b 45 f8          	mov    -0x8(%rbp),%rax
    6b0c:	48 83 c0 08          	add    $0x8,%rax
    6b10:	48 89 c7             	mov    %rax,%rdi
    6b13:	e8 0e 0f 00 00       	callq  7a26 <_ZN9__gnu_cxx16__aligned_bufferISt4pairIKiNSt7__cxx1112basic_stringIcSt11char_traitsIcESaIcEEEEE6_M_ptrEv>
    6b18:	c9                   	leaveq 
    6b19:	c3                   	retq   

0000000000006b1a <_ZNSt16allocator_traitsISaISt4pairIKiNSt7__cxx1112basic_stringIcSt11char_traitsIcESaIcEEEEEE7destroyIS8_EEvRS9_PT_>:
    6b1a:	55                   	push   %rbp
    6b1b:	48 89 e5             	mov    %rsp,%rbp
    6b1e:	48 83 ec 10          	sub    $0x10,%rsp
    6b22:	48 89 7d f8          	mov    %rdi,-0x8(%rbp)
    6b26:	48 89 75 f0          	mov    %rsi,-0x10(%rbp)
    6b2a:	48 8b 55 f0          	mov    -0x10(%rbp),%rdx
    6b2e:	48 8b 45 f8          	mov    -0x8(%rbp),%rax
    6b32:	48 89 d6             	mov    %rdx,%rsi
    6b35:	48 89 c7             	mov    %rax,%rdi
    6b38:	e8 03 0f 00 00       	callq  7a40 <_ZN9__gnu_cxx13new_allocatorISt4pairIKiNSt7__cxx1112basic_stringIcSt11char_traitsIcESaIcEEEEE7destroyIS9_EEvPT_>
    6b3d:	90                   	nop
    6b3e:	c9                   	leaveq 
    6b3f:	c3                   	retq   

0000000000006b40 <_ZNSt16allocator_traitsISaINSt8__detail10_Hash_nodeISt4pairIKiNSt7__cxx1112basic_stringIcSt11char_traitsIcESaIcEEEELb0EEEEE10deallocateERSC_PSB_m>:
    6b40:	55                   	push   %rbp
    6b41:	48 89 e5             	mov    %rsp,%rbp
    6b44:	48 83 ec 20          	sub    $0x20,%rsp
    6b48:	48 89 7d f8          	mov    %rdi,-0x8(%rbp)
    6b4c:	48 89 75 f0          	mov    %rsi,-0x10(%rbp)
    6b50:	48 89 55 e8          	mov    %rdx,-0x18(%rbp)
    6b54:	48 8b 55 e8          	mov    -0x18(%rbp),%rdx
    6b58:	48 8b 4d f0          	mov    -0x10(%rbp),%rcx
    6b5c:	48 8b 45 f8          	mov    -0x8(%rbp),%rax
    6b60:	48 89 ce             	mov    %rcx,%rsi
    6b63:	48 89 c7             	mov    %rax,%rdi
    6b66:	e8 f5 0e 00 00       	callq  7a60 <_ZN9__gnu_cxx13new_allocatorINSt8__detail10_Hash_nodeISt4pairIKiNSt7__cxx1112basic_stringIcSt11char_traitsIcESaIcEEEELb0EEEE10deallocateEPSC_m>
    6b6b:	90                   	nop
    6b6c:	c9                   	leaveq 
    6b6d:	c3                   	retq   

0000000000006b6e <_ZNSaIPNSt8__detail15_Hash_node_baseEEC1INS_10_Hash_nodeISt4pairIKiNSt7__cxx1112basic_stringIcSt11char_traitsIcESaIcEEEELb0EEEEERKSaIT_E>:
    6b6e:	55                   	push   %rbp
    6b6f:	48 89 e5             	mov    %rsp,%rbp
    6b72:	48 83 ec 10          	sub    $0x10,%rsp
    6b76:	48 89 7d f8          	mov    %rdi,-0x8(%rbp)
    6b7a:	48 89 75 f0          	mov    %rsi,-0x10(%rbp)
    6b7e:	48 8b 45 f8          	mov    -0x8(%rbp),%rax
    6b82:	48 89 c7             	mov    %rax,%rdi
    6b85:	e8 ae 09 00 00       	callq  7538 <_ZN9__gnu_cxx13new_allocatorIPNSt8__detail15_Hash_node_baseEEC1Ev>
    6b8a:	90                   	nop
    6b8b:	c9                   	leaveq 
    6b8c:	c3                   	retq   
    6b8d:	90                   	nop

0000000000006b8e <_ZNSaINSt8__detail10_Hash_nodeISt4pairIKNSt7__cxx1112basic_stringIcSt11char_traitsIcESaIcEEEmELb1EEEEC1IS9_EERKSaIT_E>:
    6b8e:	55                   	push   %rbp
    6b8f:	48 89 e5             	mov    %rsp,%rbp
    6b92:	48 83 ec 10          	sub    $0x10,%rsp
    6b96:	48 89 7d f8          	mov    %rdi,-0x8(%rbp)
    6b9a:	48 89 75 f0          	mov    %rsi,-0x10(%rbp)
    6b9e:	48 8b 45 f8          	mov    -0x8(%rbp),%rax
    6ba2:	48 89 c7             	mov    %rax,%rdi
    6ba5:	e8 da 0e 00 00       	callq  7a84 <_ZN9__gnu_cxx13new_allocatorINSt8__detail10_Hash_nodeISt4pairIKNSt7__cxx1112basic_stringIcSt11char_traitsIcESaIcEEEmELb1EEEEC1Ev>
    6baa:	90                   	nop
    6bab:	c9                   	leaveq 
    6bac:	c3                   	retq   
    6bad:	90                   	nop

0000000000006bae <_ZNSt8__detail15_Hashtable_baseINSt7__cxx1112basic_stringIcSt11char_traitsIcESaIcEEESt4pairIKS6_mENS_10_Select1stESt8equal_toIS6_ESt4hashIS6_ENS_18_Mod_range_hashingENS_20_Default_ranged_hashENS_17_Hashtable_traitsILb1ELb0ELb1EEEEC1ERKSA_RKSE_RKSF_RKSG_RKSC_>:
    6bae:	55                   	push   %rbp
    6baf:	48 89 e5             	mov    %rsp,%rbp
    6bb2:	48 83 ec 30          	sub    $0x30,%rsp
    6bb6:	48 89 7d f8          	mov    %rdi,-0x8(%rbp)
    6bba:	48 89 75 f0          	mov    %rsi,-0x10(%rbp)
    6bbe:	48 89 55 e8          	mov    %rdx,-0x18(%rbp)
    6bc2:	48 89 4d e0          	mov    %rcx,-0x20(%rbp)
    6bc6:	4c 89 45 d8          	mov    %r8,-0x28(%rbp)
    6bca:	4c 89 4d d0          	mov    %r9,-0x30(%rbp)
    6bce:	48 8b 7d d8          	mov    -0x28(%rbp),%rdi
    6bd2:	48 8b 4d e0          	mov    -0x20(%rbp),%rcx
    6bd6:	48 8b 55 e8          	mov    -0x18(%rbp),%rdx
    6bda:	48 8b 75 f0          	mov    -0x10(%rbp),%rsi
    6bde:	48 8b 45 f8          	mov    -0x8(%rbp),%rax
    6be2:	49 89 f8             	mov    %rdi,%r8
    6be5:	48 89 c7             	mov    %rax,%rdi
    6be8:	e8 a3 0e 00 00       	callq  7a90 <_ZNSt8__detail15_Hash_code_baseINSt7__cxx1112basic_stringIcSt11char_traitsIcESaIcEEESt4pairIKS6_mENS_10_Select1stESt4hashIS6_ENS_18_Mod_range_hashingENS_20_Default_ranged_hashELb1EEC1ERKSA_RKSC_RKSD_RKSE_>
    6bed:	48 8b 55 d0          	mov    -0x30(%rbp),%rdx
    6bf1:	48 8b 45 f8          	mov    -0x8(%rbp),%rax
    6bf5:	48 89 d6             	mov    %rdx,%rsi
    6bf8:	48 89 c7             	mov    %rax,%rdi
    6bfb:	e8 f6 0e 00 00       	callq  7af6 <_ZNSt8__detail21_Hashtable_ebo_helperILi0ESt8equal_toINSt7__cxx1112basic_stringIcSt11char_traitsIcESaIcEEEELb1EEC1IRKS8_EEOT_>
    6c00:	90                   	nop
    6c01:	c9                   	leaveq 
    6c02:	c3                   	retq   

0000000000006c03 <_ZSt7forwardISaINSt8__detail10_Hash_nodeISt4pairIKNSt7__cxx1112basic_stringIcSt11char_traitsIcESaIcEEEmELb1EEEEEOT_RNSt16remove_referenceISD_E4typeE>:
    6c03:	55                   	push   %rbp
    6c04:	48 89 e5             	mov    %rsp,%rbp
    6c07:	48 89 7d f8          	mov    %rdi,-0x8(%rbp)
    6c0b:	48 8b 45 f8          	mov    -0x8(%rbp),%rax
    6c0f:	5d                   	pop    %rbp
    6c10:	c3                   	retq   
    6c11:	90                   	nop

0000000000006c12 <_ZNSt8__detail16_Hashtable_allocISaINS_10_Hash_nodeISt4pairIKNSt7__cxx1112basic_stringIcSt11char_traitsIcESaIcEEEmELb1EEEEEC1ISC_EEOT_>:
    6c12:	55                   	push   %rbp
    6c13:	48 89 e5             	mov    %rsp,%rbp
    6c16:	48 83 ec 10          	sub    $0x10,%rsp
    6c1a:	48 89 7d f8          	mov    %rdi,-0x8(%rbp)
    6c1e:	48 89 75 f0          	mov    %rsi,-0x10(%rbp)
    6c22:	48 8b 45 f0          	mov    -0x10(%rbp),%rax
    6c26:	48 89 c7             	mov    %rax,%rdi
    6c29:	e8 d5 ff ff ff       	callq  6c03 <_ZSt7forwardISaINSt8__detail10_Hash_nodeISt4pairIKNSt7__cxx1112basic_stringIcSt11char_traitsIcESaIcEEEmELb1EEEEEOT_RNSt16remove_referenceISD_E4typeE>
    6c2e:	48 89 c2             	mov    %rax,%rdx
    6c31:	48 8b 45 f8          	mov    -0x8(%rbp),%rax
    6c35:	48 89 d6             	mov    %rdx,%rsi
    6c38:	48 89 c7             	mov    %rax,%rdi
    6c3b:	e8 d6 0e 00 00       	callq  7b16 <_ZNSt8__detail21_Hashtable_ebo_helperILi0ESaINS_10_Hash_nodeISt4pairIKNSt7__cxx1112basic_stringIcSt11char_traitsIcESaIcEEEmELb1EEEELb1EEC1ISC_EEOT_>
    6c40:	90                   	nop
    6c41:	c9                   	leaveq 
    6c42:	c3                   	retq   

0000000000006c43 <_ZNSt8__detail13__distance_fwIPKSt4pairIKNSt7__cxx1112basic_stringIcSt11char_traitsIcESaIcEEEmEEENSt15iterator_traitsIT_E15difference_typeESD_SD_St20forward_iterator_tag>:
    6c43:	55                   	push   %rbp
    6c44:	48 89 e5             	mov    %rsp,%rbp
    6c47:	48 83 ec 10          	sub    $0x10,%rsp
    6c4b:	48 89 7d f8          	mov    %rdi,-0x8(%rbp)
    6c4f:	48 89 75 f0          	mov    %rsi,-0x10(%rbp)
    6c53:	48 8b 55 f0          	mov    -0x10(%rbp),%rdx
    6c57:	48 8b 45 f8          	mov    -0x8(%rbp),%rax
    6c5b:	48 89 d6             	mov    %rdx,%rsi
    6c5e:	48 89 c7             	mov    %rax,%rdi
    6c61:	e8 eb 0e 00 00       	callq  7b51 <_ZSt8distanceIPKSt4pairIKNSt7__cxx1112basic_stringIcSt11char_traitsIcESaIcEEEmEENSt15iterator_traitsIT_E15difference_typeESC_SC_>
    6c66:	c9                   	leaveq 
    6c67:	c3                   	retq   

0000000000006c68 <_ZNSt8__detail16_Hashtable_allocISaINS_10_Hash_nodeISt4pairIKNSt7__cxx1112basic_stringIcSt11char_traitsIcESaIcEEEmELb1EEEEE19_M_allocate_bucketsEm>:
    6c68:	55                   	push   %rbp
    6c69:	48 89 e5             	mov    %rsp,%rbp
    6c6c:	53                   	push   %rbx
    6c6d:	48 83 ec 38          	sub    $0x38,%rsp
    6c71:	48 89 7d c8          	mov    %rdi,-0x38(%rbp)
    6c75:	48 89 75 c0          	mov    %rsi,-0x40(%rbp)
    6c79:	64 48 8b 04 25 28 00 	mov    %fs:0x28,%rax
    6c80:	00 00 
    6c82:	48 89 45 e8          	mov    %rax,-0x18(%rbp)
    6c86:	31 c0                	xor    %eax,%eax
    6c88:	48 8b 45 c8          	mov    -0x38(%rbp),%rax
    6c8c:	48 89 c7             	mov    %rax,%rdi
    6c8f:	e8 22 02 00 00       	callq  6eb6 <_ZNSt8__detail16_Hashtable_allocISaINS_10_Hash_nodeISt4pairIKNSt7__cxx1112basic_stringIcSt11char_traitsIcESaIcEEEmELb1EEEEE17_M_node_allocatorEv>
    6c94:	48 89 c2             	mov    %rax,%rdx
    6c97:	48 8d 45 d7          	lea    -0x29(%rbp),%rax
    6c9b:	48 89 d6             	mov    %rdx,%rsi
    6c9e:	48 89 c7             	mov    %rax,%rdi
    6ca1:	e8 9e 02 00 00       	callq  6f44 <_ZNSaIPNSt8__detail15_Hash_node_baseEEC1INS_10_Hash_nodeISt4pairIKNSt7__cxx1112basic_stringIcSt11char_traitsIcESaIcEEEmELb1EEEEERKSaIT_E>
    6ca6:	48 8b 55 c0          	mov    -0x40(%rbp),%rdx
    6caa:	48 8d 45 d7          	lea    -0x29(%rbp),%rax
    6cae:	48 89 d6             	mov    %rdx,%rsi
    6cb1:	48 89 c7             	mov    %rax,%rdi
    6cb4:	e8 3c 05 00 00       	callq  71f5 <_ZNSt16allocator_traitsISaIPNSt8__detail15_Hash_node_baseEEE8allocateERS3_m>
    6cb9:	48 89 45 d8          	mov    %rax,-0x28(%rbp)
    6cbd:	48 8b 45 d8          	mov    -0x28(%rbp),%rax
    6cc1:	48 89 c7             	mov    %rax,%rdi
    6cc4:	e8 56 05 00 00       	callq  721f <_ZSt11__addressofIPNSt8__detail15_Hash_node_baseEEPT_RS3_>
    6cc9:	48 89 45 e0          	mov    %rax,-0x20(%rbp)
    6ccd:	48 8b 45 c0          	mov    -0x40(%rbp),%rax
    6cd1:	48 8d 14 c5 00 00 00 	lea    0x0(,%rax,8),%rdx
    6cd8:	00 
    6cd9:	48 8b 45 e0          	mov    -0x20(%rbp),%rax
    6cdd:	be 00 00 00 00       	mov    $0x0,%esi
    6ce2:	48 89 c7             	mov    %rax,%rdi
    6ce5:	e8 b6 a7 ff ff       	callq  14a0 <memset@plt>
    6cea:	48 8b 5d e0          	mov    -0x20(%rbp),%rbx
    6cee:	48 8d 45 d7          	lea    -0x29(%rbp),%rax
    6cf2:	48 89 c7             	mov    %rax,%rdi
    6cf5:	e8 56 fa ff ff       	callq  6750 <_ZNSaIPNSt8__detail15_Hash_node_baseEED1Ev>
    6cfa:	48 89 d8             	mov    %rbx,%rax
    6cfd:	48 8b 4d e8          	mov    -0x18(%rbp),%rcx
    6d01:	64 48 33 0c 25 28 00 	xor    %fs:0x28,%rcx
    6d08:	00 00 
    6d0a:	74 21                	je     6d2d <_ZNSt8__detail16_Hashtable_allocISaINS_10_Hash_nodeISt4pairIKNSt7__cxx1112basic_stringIcSt11char_traitsIcESaIcEEEmELb1EEEEE19_M_allocate_bucketsEm+0xc5>
    6d0c:	eb 1a                	jmp    6d28 <_ZNSt8__detail16_Hashtable_allocISaINS_10_Hash_nodeISt4pairIKNSt7__cxx1112basic_stringIcSt11char_traitsIcESaIcEEEmELb1EEEEE19_M_allocate_bucketsEm+0xc0>
    6d0e:	48 89 c3             	mov    %rax,%rbx
    6d11:	48 8d 45 d7          	lea    -0x29(%rbp),%rax
    6d15:	48 89 c7             	mov    %rax,%rdi
    6d18:	e8 33 fa ff ff       	callq  6750 <_ZNSaIPNSt8__detail15_Hash_node_baseEED1Ev>
    6d1d:	48 89 d8             	mov    %rbx,%rax
    6d20:	48 89 c7             	mov    %rax,%rdi
    6d23:	e8 d8 a8 ff ff       	callq  1600 <_Unwind_Resume@plt>
    6d28:	e8 33 a8 ff ff       	callq  1560 <__stack_chk_fail@plt>
    6d2d:	48 83 c4 38          	add    $0x38,%rsp
    6d31:	5b                   	pop    %rbx
    6d32:	5d                   	pop    %rbp
    6d33:	c3                   	retq   

0000000000006d34 <_ZNSt8__detail12_Insert_baseINSt7__cxx1112basic_stringIcSt11char_traitsIcESaIcEEESt4pairIKS6_mESaIS9_ENS_10_Select1stESt8equal_toIS6_ESt4hashIS6_ENS_18_Mod_range_hashingENS_20_Default_ranged_hashENS_20_Prime_rehash_policyENS_17_Hashtable_traitsILb1ELb0ELb1EEEE20_M_conjure_hashtableEv>:
    6d34:	55                   	push   %rbp
    6d35:	48 89 e5             	mov    %rsp,%rbp
    6d38:	48 89 7d f8          	mov    %rdi,-0x8(%rbp)
    6d3c:	48 8b 45 f8          	mov    -0x8(%rbp),%rax
    6d40:	5d                   	pop    %rbp
    6d41:	c3                   	retq   

0000000000006d42 <_ZNSt8__detail10_AllocNodeISaINS_10_Hash_nodeISt4pairIKNSt7__cxx1112basic_stringIcSt11char_traitsIcESaIcEEEmELb1EEEEEC1ERNS_16_Hashtable_allocISC_EE>:
    6d42:	55                   	push   %rbp
    6d43:	48 89 e5             	mov    %rsp,%rbp
    6d46:	48 89 7d f8          	mov    %rdi,-0x8(%rbp)
    6d4a:	48 89 75 f0          	mov    %rsi,-0x10(%rbp)
    6d4e:	48 8b 45 f8          	mov    -0x8(%rbp),%rax
    6d52:	48 8b 55 f0          	mov    -0x10(%rbp),%rdx
    6d56:	48 89 10             	mov    %rdx,(%rax)
    6d59:	90                   	nop
    6d5a:	5d                   	pop    %rbp
    6d5b:	c3                   	retq   

0000000000006d5c <_ZSt7forwardIRKSt4pairIKNSt7__cxx1112basic_stringIcSt11char_traitsIcESaIcEEEmEEOT_RNSt16remove_referenceISB_E4typeE>:
    6d5c:	55                   	push   %rbp
    6d5d:	48 89 e5             	mov    %rsp,%rbp
    6d60:	48 89 7d f8          	mov    %rdi,-0x8(%rbp)
    6d64:	48 8b 45 f8          	mov    -0x8(%rbp),%rax
    6d68:	5d                   	pop    %rbp
    6d69:	c3                   	retq   

0000000000006d6a <_ZNSt10_HashtableINSt7__cxx1112basic_stringIcSt11char_traitsIcESaIcEEESt4pairIKS5_mESaIS8_ENSt8__detail10_Select1stESt8equal_toIS5_ESt4hashIS5_ENSA_18_Mod_range_hashingENSA_20_Default_ranged_hashENSA_20_Prime_rehash_policyENSA_17_Hashtable_traitsILb1ELb0ELb1EEEE9_M_insertIRKS8_NSA_10_AllocNodeISaINSA_10_Hash_nodeIS8_Lb1EEEEEEEES6_INSA_14_Node_iteratorIS8_Lb0ELb1EEEbEOT_RKT0_St17integral_constantIbLb1EE>:
    6d6a:	55                   	push   %rbp
    6d6b:	48 89 e5             	mov    %rsp,%rbp
    6d6e:	48 83 ec 60          	sub    $0x60,%rsp
    6d72:	48 89 7d b8          	mov    %rdi,-0x48(%rbp)
    6d76:	48 89 75 b0          	mov    %rsi,-0x50(%rbp)
    6d7a:	48 89 55 a8          	mov    %rdx,-0x58(%rbp)
    6d7e:	64 48 8b 04 25 28 00 	mov    %fs:0x28,%rax
    6d85:	00 00 
    6d87:	48 89 45 f8          	mov    %rax,-0x8(%rbp)
    6d8b:	31 c0                	xor    %eax,%eax
    6d8d:	48 8b 45 b8          	mov    -0x48(%rbp),%rax
    6d91:	48 89 c7             	mov    %rax,%rdi
    6d94:	e8 1b 0e 00 00       	callq  7bb4 <_ZNSt8__detail15_Hash_code_baseINSt7__cxx1112basic_stringIcSt11char_traitsIcESaIcEEESt4pairIKS6_mENS_10_Select1stESt4hashIS6_ENS_18_Mod_range_hashingENS_20_Default_ranged_hashELb1EE10_M_extractEv>
    6d99:	48 89 c2             	mov    %rax,%rdx
    6d9c:	48 8b 45 b0          	mov    -0x50(%rbp),%rax
    6da0:	48 89 c6             	mov    %rax,%rsi
    6da3:	48 89 d7             	mov    %rdx,%rdi
    6da6:	e8 23 0e 00 00       	callq  7bce <_ZNKSt8__detail10_Select1stclIRKSt4pairIKNSt7__cxx1112basic_stringIcSt11char_traitsIcESaIcEEEmEEEDTcl3getILi0EEcl7forwardIT_Efp_EEEOSD_>
    6dab:	48 89 45 d8          	mov    %rax,-0x28(%rbp)
    6daf:	48 8b 55 d8          	mov    -0x28(%rbp),%rdx
    6db3:	48 8b 45 b8          	mov    -0x48(%rbp),%rax
    6db7:	48 89 d6             	mov    %rdx,%rsi
    6dba:	48 89 c7             	mov    %rax,%rdi
    6dbd:	e8 32 0e 00 00       	callq  7bf4 <_ZNKSt8__detail15_Hash_code_baseINSt7__cxx1112basic_stringIcSt11char_traitsIcESaIcEEESt4pairIKS6_mENS_10_Select1stESt4hashIS6_ENS_18_Mod_range_hashingENS_20_Default_ranged_hashELb1EE12_M_hash_codeERS8_>
    6dc2:	48 89 45 e0          	mov    %rax,-0x20(%rbp)
    6dc6:	48 8b 55 e0          	mov    -0x20(%rbp),%rdx
    6dca:	48 8b 4d d8          	mov    -0x28(%rbp),%rcx
    6dce:	48 8b 45 b8          	mov    -0x48(%rbp),%rax
    6dd2:	48 89 ce             	mov    %rcx,%rsi
    6dd5:	48 89 c7             	mov    %rax,%rdi
    6dd8:	e8 47 0e 00 00       	callq  7c24 <_ZNKSt10_HashtableINSt7__cxx1112basic_stringIcSt11char_traitsIcESaIcEEESt4pairIKS5_mESaIS8_ENSt8__detail10_Select1stESt8equal_toIS5_ESt4hashIS5_ENSA_18_Mod_range_hashingENSA_20_Default_ranged_hashENSA_20_Prime_rehash_policyENSA_17_Hashtable_traitsILb1ELb0ELb1EEEE15_M_bucket_indexERS7_m>
    6ddd:	48 89 45 e8          	mov    %rax,-0x18(%rbp)
    6de1:	48 8b 4d e0          	mov    -0x20(%rbp),%rcx
    6de5:	48 8b 55 d8          	mov    -0x28(%rbp),%rdx
    6de9:	48 8b 75 e8          	mov    -0x18(%rbp),%rsi
    6ded:	48 8b 45 b8          	mov    -0x48(%rbp),%rax
    6df1:	48 89 c7             	mov    %rax,%rdi
    6df4:	e8 5d 0e 00 00       	callq  7c56 <_ZNKSt10_HashtableINSt7__cxx1112basic_stringIcSt11char_traitsIcESaIcEEESt4pairIKS5_mESaIS8_ENSt8__detail10_Select1stESt8equal_toIS5_ESt4hashIS5_ENSA_18_Mod_range_hashingENSA_20_Default_ranged_hashENSA_20_Prime_rehash_policyENSA_17_Hashtable_traitsILb1ELb0ELb1EEEE12_M_find_nodeEmRS7_m>
    6df9:	48 89 45 f0          	mov    %rax,-0x10(%rbp)
    6dfd:	48 83 7d f0 00       	cmpq   $0x0,-0x10(%rbp)
    6e02:	74 2c                	je     6e30 <_ZNSt10_HashtableINSt7__cxx1112basic_stringIcSt11char_traitsIcESaIcEEESt4pairIKS5_mESaIS8_ENSt8__detail10_Select1stESt8equal_toIS5_ESt4hashIS5_ENSA_18_Mod_range_hashingENSA_20_Default_ranged_hashENSA_20_Prime_rehash_policyENSA_17_Hashtable_traitsILb1ELb0ELb1EEEE9_M_insertIRKS8_NSA_10_AllocNodeISaINSA_10_Hash_nodeIS8_Lb1EEEEEEEES6_INSA_14_Node_iteratorIS8_Lb0ELb1EEEbEOT_RKT0_St17integral_constantIbLb1EE+0xc6>
    6e04:	c6 45 cf 00          	movb   $0x0,-0x31(%rbp)
    6e08:	48 8b 55 f0          	mov    -0x10(%rbp),%rdx
    6e0c:	48 8d 45 d0          	lea    -0x30(%rbp),%rax
    6e10:	48 89 d6             	mov    %rdx,%rsi
    6e13:	48 89 c7             	mov    %rax,%rdi
    6e16:	e8 bd e7 ff ff       	callq  55d8 <_ZNSt8__detail14_Node_iteratorISt4pairIKNSt7__cxx1112basic_stringIcSt11char_traitsIcESaIcEEEmELb0ELb1EEC1EPNS_10_Hash_nodeIS9_Lb1EEE>
    6e1b:	48 8d 55 cf          	lea    -0x31(%rbp),%rdx
    6e1f:	48 8d 45 d0          	lea    -0x30(%rbp),%rax
    6e23:	48 89 d6             	mov    %rdx,%rsi
    6e26:	48 89 c7             	mov    %rax,%rdi
    6e29:	e8 81 0e 00 00       	callq  7caf <_ZSt9make_pairINSt8__detail14_Node_iteratorISt4pairIKNSt7__cxx1112basic_stringIcSt11char_traitsIcESaIcEEEmELb0ELb1EEEbES2_INSt17__decay_and_stripIT_E6__typeENSC_IT0_E6__typeEEOSD_OSG_>
    6e2e:	eb 55                	jmp    6e85 <_ZNSt10_HashtableINSt7__cxx1112basic_stringIcSt11char_traitsIcESaIcEEESt4pairIKS5_mESaIS8_ENSt8__detail10_Select1stESt8equal_toIS5_ESt4hashIS5_ENSA_18_Mod_range_hashingENSA_20_Default_ranged_hashENSA_20_Prime_rehash_policyENSA_17_Hashtable_traitsILb1ELb0ELb1EEEE9_M_insertIRKS8_NSA_10_AllocNodeISaINSA_10_Hash_nodeIS8_Lb1EEEEEEEES6_INSA_14_Node_iteratorIS8_Lb0ELb1EEEbEOT_RKT0_St17integral_constantIbLb1EE+0x11b>
    6e30:	48 8b 45 b0          	mov    -0x50(%rbp),%rax
    6e34:	48 89 c7             	mov    %rax,%rdi
    6e37:	e8 20 ff ff ff       	callq  6d5c <_ZSt7forwardIRKSt4pairIKNSt7__cxx1112basic_stringIcSt11char_traitsIcESaIcEEEmEEOT_RNSt16remove_referenceISB_E4typeE>
    6e3c:	48 89 c2             	mov    %rax,%rdx
    6e3f:	48 8b 45 a8          	mov    -0x58(%rbp),%rax
    6e43:	48 89 d6             	mov    %rdx,%rsi
    6e46:	48 89 c7             	mov    %rax,%rdi
    6e49:	e8 d4 0e 00 00       	callq  7d22 <_ZNKSt8__detail10_AllocNodeISaINS_10_Hash_nodeISt4pairIKNSt7__cxx1112basic_stringIcSt11char_traitsIcESaIcEEEmELb1EEEEEclIRKSA_EEPSB_OT_>
    6e4e:	48 89 45 f0          	mov    %rax,-0x10(%rbp)
    6e52:	c6 45 cf 01          	movb   $0x1,-0x31(%rbp)
    6e56:	48 8b 4d f0          	mov    -0x10(%rbp),%rcx
    6e5a:	48 8b 55 e0          	mov    -0x20(%rbp),%rdx
    6e5e:	48 8b 75 e8          	mov    -0x18(%rbp),%rsi
    6e62:	48 8b 45 b8          	mov    -0x48(%rbp),%rax
    6e66:	48 89 c7             	mov    %rax,%rdi
    6e69:	e8 f8 0e 00 00       	callq  7d66 <_ZNSt10_HashtableINSt7__cxx1112basic_stringIcSt11char_traitsIcESaIcEEESt4pairIKS5_mESaIS8_ENSt8__detail10_Select1stESt8equal_toIS5_ESt4hashIS5_ENSA_18_Mod_range_hashingENSA_20_Default_ranged_hashENSA_20_Prime_rehash_policyENSA_17_Hashtable_traitsILb1ELb0ELb1EEEE21_M_insert_unique_nodeEmmPNSA_10_Hash_nodeIS8_Lb1EEE>
    6e6e:	48 89 45 d0          	mov    %rax,-0x30(%rbp)
    6e72:	48 8d 55 cf          	lea    -0x31(%rbp),%rdx
    6e76:	48 8d 45 d0          	lea    -0x30(%rbp),%rax
    6e7a:	48 89 d6             	mov    %rdx,%rsi
    6e7d:	48 89 c7             	mov    %rax,%rdi
    6e80:	e8 2a 0e 00 00       	callq  7caf <_ZSt9make_pairINSt8__detail14_Node_iteratorISt4pairIKNSt7__cxx1112basic_stringIcSt11char_traitsIcESaIcEEEmELb0ELb1EEEbES2_INSt17__decay_and_stripIT_E6__typeENSC_IT0_E6__typeEEOSD_OSG_>
    6e85:	48 8b 4d f8          	mov    -0x8(%rbp),%rcx
    6e89:	64 48 33 0c 25 28 00 	xor    %fs:0x28,%rcx
    6e90:	00 00 
    6e92:	74 05                	je     6e99 <_ZNSt10_HashtableINSt7__cxx1112basic_stringIcSt11char_traitsIcESaIcEEESt4pairIKS5_mESaIS8_ENSt8__detail10_Select1stESt8equal_toIS5_ESt4hashIS5_ENSA_18_Mod_range_hashingENSA_20_Default_ranged_hashENSA_20_Prime_rehash_policyENSA_17_Hashtable_traitsILb1ELb0ELb1EEEE9_M_insertIRKS8_NSA_10_AllocNodeISaINSA_10_Hash_nodeIS8_Lb1EEEEEEEES6_INSA_14_Node_iteratorIS8_Lb0ELb1EEEbEOT_RKT0_St17integral_constantIbLb1EE+0x12f>
    6e94:	e8 c7 a6 ff ff       	callq  1560 <__stack_chk_fail@plt>
    6e99:	c9                   	leaveq 
    6e9a:	c3                   	retq   

0000000000006e9b <_ZNSt14pointer_traitsIPNSt8__detail10_Hash_nodeISt4pairIKNSt7__cxx1112basic_stringIcSt11char_traitsIcESaIcEEEmELb1EEEE10pointer_toERSB_>:
    6e9b:	55                   	push   %rbp
    6e9c:	48 89 e5             	mov    %rsp,%rbp
    6e9f:	48 83 ec 10          	sub    $0x10,%rsp
    6ea3:	48 89 7d f8          	mov    %rdi,-0x8(%rbp)
    6ea7:	48 8b 45 f8          	mov    -0x8(%rbp),%rax
    6eab:	48 89 c7             	mov    %rax,%rdi
    6eae:	e8 30 10 00 00       	callq  7ee3 <_ZSt9addressofINSt8__detail10_Hash_nodeISt4pairIKNSt7__cxx1112basic_stringIcSt11char_traitsIcESaIcEEEmELb1EEEEPT_RSC_>
    6eb3:	c9                   	leaveq 
    6eb4:	c3                   	retq   
    6eb5:	90                   	nop

0000000000006eb6 <_ZNSt8__detail16_Hashtable_allocISaINS_10_Hash_nodeISt4pairIKNSt7__cxx1112basic_stringIcSt11char_traitsIcESaIcEEEmELb1EEEEE17_M_node_allocatorEv>:
    6eb6:	55                   	push   %rbp
    6eb7:	48 89 e5             	mov    %rsp,%rbp
    6eba:	48 83 ec 10          	sub    $0x10,%rsp
    6ebe:	48 89 7d f8          	mov    %rdi,-0x8(%rbp)
    6ec2:	48 8b 45 f8          	mov    -0x8(%rbp),%rax
    6ec6:	48 89 c7             	mov    %rax,%rdi
    6ec9:	e8 2f 10 00 00       	callq  7efd <_ZNSt8__detail21_Hashtable_ebo_helperILi0ESaINS_10_Hash_nodeISt4pairIKNSt7__cxx1112basic_stringIcSt11char_traitsIcESaIcEEEmELb1EEEELb1EE6_S_getERSD_>
    6ece:	c9                   	leaveq 
    6ecf:	c3                   	retq   

0000000000006ed0 <_ZNSaISt4pairIKNSt7__cxx1112basic_stringIcSt11char_traitsIcESaIcEEEmEEC1INSt8__detail10_Hash_nodeIS7_Lb1EEEEERKSaIT_E>:
    6ed0:	55                   	push   %rbp
    6ed1:	48 89 e5             	mov    %rsp,%rbp
    6ed4:	48 83 ec 10          	sub    $0x10,%rsp
    6ed8:	48 89 7d f8          	mov    %rdi,-0x8(%rbp)
    6edc:	48 89 75 f0          	mov    %rsi,-0x10(%rbp)
    6ee0:	48 8b 45 f8          	mov    -0x8(%rbp),%rax
    6ee4:	48 89 c7             	mov    %rax,%rdi
    6ee7:	e8 8e dc ff ff       	callq  4b7a <_ZN9__gnu_cxx13new_allocatorISt4pairIKNSt7__cxx1112basic_stringIcSt11char_traitsIcESaIcEEEmEEC1Ev>
    6eec:	90                   	nop
    6eed:	c9                   	leaveq 
    6eee:	c3                   	retq   

0000000000006eef <_ZNSt16allocator_traitsISaISt4pairIKNSt7__cxx1112basic_stringIcSt11char_traitsIcESaIcEEEmEEE7destroyIS8_EEvRS9_PT_>:
    6eef:	55                   	push   %rbp
    6ef0:	48 89 e5             	mov    %rsp,%rbp
    6ef3:	48 83 ec 10          	sub    $0x10,%rsp
    6ef7:	48 89 7d f8          	mov    %rdi,-0x8(%rbp)
    6efb:	48 89 75 f0          	mov    %rsi,-0x10(%rbp)
    6eff:	48 8b 55 f0          	mov    -0x10(%rbp),%rdx
    6f03:	48 8b 45 f8          	mov    -0x8(%rbp),%rax
    6f07:	48 89 d6             	mov    %rdx,%rsi
    6f0a:	48 89 c7             	mov    %rax,%rdi
    6f0d:	e8 fa 0f 00 00       	callq  7f0c <_ZN9__gnu_cxx13new_allocatorISt4pairIKNSt7__cxx1112basic_stringIcSt11char_traitsIcESaIcEEEmEE7destroyIS9_EEvPT_>
    6f12:	90                   	nop
    6f13:	c9                   	leaveq 
    6f14:	c3                   	retq   

0000000000006f15 <_ZNSt16allocator_traitsISaINSt8__detail10_Hash_nodeISt4pairIKNSt7__cxx1112basic_stringIcSt11char_traitsIcESaIcEEEmELb1EEEEE10deallocateERSC_PSB_m>:
    6f15:	55                   	push   %rbp
    6f16:	48 89 e5             	mov    %rsp,%rbp
    6f19:	48 83 ec 20          	sub    $0x20,%rsp
    6f1d:	48 89 7d f8          	mov    %rdi,-0x8(%rbp)
    6f21:	48 89 75 f0          	mov    %rsi,-0x10(%rbp)
    6f25:	48 89 55 e8          	mov    %rdx,-0x18(%rbp)
    6f29:	48 8b 55 e8          	mov    -0x18(%rbp),%rdx
    6f2d:	48 8b 4d f0          	mov    -0x10(%rbp),%rcx
    6f31:	48 8b 45 f8          	mov    -0x8(%rbp),%rax
    6f35:	48 89 ce             	mov    %rcx,%rsi
    6f38:	48 89 c7             	mov    %rax,%rdi
    6f3b:	e8 ec 0f 00 00       	callq  7f2c <_ZN9__gnu_cxx13new_allocatorINSt8__detail10_Hash_nodeISt4pairIKNSt7__cxx1112basic_stringIcSt11char_traitsIcESaIcEEEmELb1EEEE10deallocateEPSC_m>
    6f40:	90                   	nop
    6f41:	c9                   	leaveq 
    6f42:	c3                   	retq   
    6f43:	90                   	nop

0000000000006f44 <_ZNSaIPNSt8__detail15_Hash_node_baseEEC1INS_10_Hash_nodeISt4pairIKNSt7__cxx1112basic_stringIcSt11char_traitsIcESaIcEEEmELb1EEEEERKSaIT_E>:
    6f44:	55                   	push   %rbp
    6f45:	48 89 e5             	mov    %rsp,%rbp
    6f48:	48 83 ec 10          	sub    $0x10,%rsp
    6f4c:	48 89 7d f8          	mov    %rdi,-0x8(%rbp)
    6f50:	48 89 75 f0          	mov    %rsi,-0x10(%rbp)
    6f54:	48 8b 45 f8          	mov    -0x8(%rbp),%rax
    6f58:	48 89 c7             	mov    %rax,%rdi
    6f5b:	e8 d8 05 00 00       	callq  7538 <_ZN9__gnu_cxx13new_allocatorIPNSt8__detail15_Hash_node_baseEEC1Ev>
    6f60:	90                   	nop
    6f61:	c9                   	leaveq 
    6f62:	c3                   	retq   
    6f63:	90                   	nop

0000000000006f64 <_ZNKSt8__detail15_Hash_code_baseIPKcSt4pairIKS2_NSt7__cxx1112basic_stringIcSt11char_traitsIcESaIcEEEENS_10_Select1stESt4hashIS2_ENS_18_Mod_range_hashingENS_20_Default_ranged_hashELb0EE5_M_h1Ev>:
    6f64:	55                   	push   %rbp
    6f65:	48 89 e5             	mov    %rsp,%rbp
    6f68:	48 83 ec 10          	sub    $0x10,%rsp
    6f6c:	48 89 7d f8          	mov    %rdi,-0x8(%rbp)
    6f70:	48 8b 45 f8          	mov    -0x8(%rbp),%rax
    6f74:	48 89 c7             	mov    %rax,%rdi
    6f77:	e8 d3 0f 00 00       	callq  7f4f <_ZNSt8__detail21_Hashtable_ebo_helperILi1ESt4hashIPKcELb1EE7_S_cgetERKS5_>
    6f7c:	c9                   	leaveq 
    6f7d:	c3                   	retq   

0000000000006f7e <_ZNKSt4hashIPKcEclES1_>:
    6f7e:	55                   	push   %rbp
    6f7f:	48 89 e5             	mov    %rsp,%rbp
    6f82:	48 89 7d f8          	mov    %rdi,-0x8(%rbp)
    6f86:	48 89 75 f0          	mov    %rsi,-0x10(%rbp)
    6f8a:	48 8b 45 f0          	mov    -0x10(%rbp),%rax
    6f8e:	5d                   	pop    %rbp
    6f8f:	c3                   	retq   

0000000000006f90 <_ZNKSt8__detail15_Hash_code_baseIPKcSt4pairIKS2_NSt7__cxx1112basic_stringIcSt11char_traitsIcESaIcEEEENS_10_Select1stESt4hashIS2_ENS_18_Mod_range_hashingENS_20_Default_ranged_hashELb0EE15_M_bucket_indexERS4_mm>:
    6f90:	55                   	push   %rbp
    6f91:	48 89 e5             	mov    %rsp,%rbp
    6f94:	48 83 ec 20          	sub    $0x20,%rsp
    6f98:	48 89 7d f8          	mov    %rdi,-0x8(%rbp)
    6f9c:	48 89 75 f0          	mov    %rsi,-0x10(%rbp)
    6fa0:	48 89 55 e8          	mov    %rdx,-0x18(%rbp)
    6fa4:	48 89 4d e0          	mov    %rcx,-0x20(%rbp)
    6fa8:	48 8b 45 f8          	mov    -0x8(%rbp),%rax
    6fac:	48 89 c7             	mov    %rax,%rdi
    6faf:	e8 aa 0f 00 00       	callq  7f5e <_ZNKSt8__detail15_Hash_code_baseIPKcSt4pairIKS2_NSt7__cxx1112basic_stringIcSt11char_traitsIcESaIcEEEENS_10_Select1stESt4hashIS2_ENS_18_Mod_range_hashingENS_20_Default_ranged_hashELb0EE5_M_h2Ev>
    6fb4:	48 89 c1             	mov    %rax,%rcx
    6fb7:	48 8b 55 e0          	mov    -0x20(%rbp),%rdx
    6fbb:	48 8b 45 e8          	mov    -0x18(%rbp),%rax
    6fbf:	48 89 c6             	mov    %rax,%rsi
    6fc2:	48 89 cf             	mov    %rcx,%rdi
    6fc5:	e8 da be ff ff       	callq  2ea4 <_ZNKSt8__detail18_Mod_range_hashingclEmm>
    6fca:	c9                   	leaveq 
    6fcb:	c3                   	retq   

0000000000006fcc <_ZNKSt10_HashtableIPKcSt4pairIKS1_NSt7__cxx1112basic_stringIcSt11char_traitsIcESaIcEEEESaISA_ENSt8__detail10_Select1stESt8equal_toIS1_ESt4hashIS1_ENSC_18_Mod_range_hashingENSC_20_Default_ranged_hashENSC_20_Prime_rehash_policyENSC_17_Hashtable_traitsILb0ELb0ELb1EEEE19_M_find_before_nodeEmRS3_m>:
    6fcc:	55                   	push   %rbp
    6fcd:	48 89 e5             	mov    %rsp,%rbp
    6fd0:	48 83 ec 30          	sub    $0x30,%rsp
    6fd4:	48 89 7d e8          	mov    %rdi,-0x18(%rbp)
    6fd8:	48 89 75 e0          	mov    %rsi,-0x20(%rbp)
    6fdc:	48 89 55 d8          	mov    %rdx,-0x28(%rbp)
    6fe0:	48 89 4d d0          	mov    %rcx,-0x30(%rbp)
    6fe4:	48 8b 45 e8          	mov    -0x18(%rbp),%rax
    6fe8:	48 8b 00             	mov    (%rax),%rax
    6feb:	48 8b 55 e0          	mov    -0x20(%rbp),%rdx
    6fef:	48 c1 e2 03          	shl    $0x3,%rdx
    6ff3:	48 01 d0             	add    %rdx,%rax
    6ff6:	48 8b 00             	mov    (%rax),%rax
    6ff9:	48 89 45 f0          	mov    %rax,-0x10(%rbp)
    6ffd:	48 83 7d f0 00       	cmpq   $0x0,-0x10(%rbp)
    7002:	75 0a                	jne    700e <_ZNKSt10_HashtableIPKcSt4pairIKS1_NSt7__cxx1112basic_stringIcSt11char_traitsIcESaIcEEEESaISA_ENSt8__detail10_Select1stESt8equal_toIS1_ESt4hashIS1_ENSC_18_Mod_range_hashingENSC_20_Default_ranged_hashENSC_20_Prime_rehash_policyENSC_17_Hashtable_traitsILb0ELb0ELb1EEEE19_M_find_before_nodeEmRS3_m+0x42>
    7004:	b8 00 00 00 00       	mov    $0x0,%eax
    7009:	e9 8d 00 00 00       	jmpq   709b <_ZNKSt10_HashtableIPKcSt4pairIKS1_NSt7__cxx1112basic_stringIcSt11char_traitsIcESaIcEEEESaISA_ENSt8__detail10_Select1stESt8equal_toIS1_ESt4hashIS1_ENSC_18_Mod_range_hashingENSC_20_Default_ranged_hashENSC_20_Prime_rehash_policyENSC_17_Hashtable_traitsILb0ELb0ELb1EEEE19_M_find_before_nodeEmRS3_m+0xcf>
    700e:	48 8b 45 f0          	mov    -0x10(%rbp),%rax
    7012:	48 8b 00             	mov    (%rax),%rax
    7015:	48 89 45 f8          	mov    %rax,-0x8(%rbp)
    7019:	48 8b 4d f8          	mov    -0x8(%rbp),%rcx
    701d:	48 8b 55 d0          	mov    -0x30(%rbp),%rdx
    7021:	48 8b 75 d8          	mov    -0x28(%rbp),%rsi
    7025:	48 8b 45 e8          	mov    -0x18(%rbp),%rax
    7029:	48 89 c7             	mov    %rax,%rdi
    702c:	e8 47 0f 00 00       	callq  7f78 <_ZNKSt8__detail15_Hashtable_baseIPKcSt4pairIKS2_NSt7__cxx1112basic_stringIcSt11char_traitsIcESaIcEEEENS_10_Select1stESt8equal_toIS2_ESt4hashIS2_ENS_18_Mod_range_hashingENS_20_Default_ranged_hashENS_17_Hashtable_traitsILb0ELb0ELb1EEEE9_M_equalsERS4_mPNS_10_Hash_nodeISB_Lb0EEE>
    7031:	84 c0                	test   %al,%al
    7033:	74 06                	je     703b <_ZNKSt10_HashtableIPKcSt4pairIKS1_NSt7__cxx1112basic_stringIcSt11char_traitsIcESaIcEEEESaISA_ENSt8__detail10_Select1stESt8equal_toIS1_ESt4hashIS1_ENSC_18_Mod_range_hashingENSC_20_Default_ranged_hashENSC_20_Prime_rehash_policyENSC_17_Hashtable_traitsILb0ELb0ELb1EEEE19_M_find_before_nodeEmRS3_m+0x6f>
    7035:	48 8b 45 f0          	mov    -0x10(%rbp),%rax
    7039:	eb 60                	jmp    709b <_ZNKSt10_HashtableIPKcSt4pairIKS1_NSt7__cxx1112basic_stringIcSt11char_traitsIcESaIcEEEESaISA_ENSt8__detail10_Select1stESt8equal_toIS1_ESt4hashIS1_ENSC_18_Mod_range_hashingENSC_20_Default_ranged_hashENSC_20_Prime_rehash_policyENSC_17_Hashtable_traitsILb0ELb0ELb1EEEE19_M_find_before_nodeEmRS3_m+0xcf>
    703b:	48 8b 45 f8          	mov    -0x8(%rbp),%rax
    703f:	48 8b 00             	mov    (%rax),%rax
    7042:	48 85 c0             	test   %rax,%rax
    7045:	74 24                	je     706b <_ZNKSt10_HashtableIPKcSt4pairIKS1_NSt7__cxx1112basic_stringIcSt11char_traitsIcESaIcEEEESaISA_ENSt8__detail10_Select1stESt8equal_toIS1_ESt4hashIS1_ENSC_18_Mod_range_hashingENSC_20_Default_ranged_hashENSC_20_Prime_rehash_policyENSC_17_Hashtable_traitsILb0ELb0ELb1EEEE19_M_find_before_nodeEmRS3_m+0x9f>
    7047:	48 8b 45 f8          	mov    -0x8(%rbp),%rax
    704b:	48 89 c7             	mov    %rax,%rdi
    704e:	e8 15 e8 ff ff       	callq  5868 <_ZNKSt8__detail10_Hash_nodeISt4pairIKPKcNSt7__cxx1112basic_stringIcSt11char_traitsIcESaIcEEEELb0EE7_M_nextEv>
    7053:	48 89 c2             	mov    %rax,%rdx
    7056:	48 8b 45 e8          	mov    -0x18(%rbp),%rax
    705a:	48 89 d6             	mov    %rdx,%rsi
    705d:	48 89 c7             	mov    %rax,%rdi
    7060:	e8 6f 0f 00 00       	callq  7fd4 <_ZNKSt10_HashtableIPKcSt4pairIKS1_NSt7__cxx1112basic_stringIcSt11char_traitsIcESaIcEEEESaISA_ENSt8__detail10_Select1stESt8equal_toIS1_ESt4hashIS1_ENSC_18_Mod_range_hashingENSC_20_Default_ranged_hashENSC_20_Prime_rehash_policyENSC_17_Hashtable_traitsILb0ELb0ELb1EEEE15_M_bucket_indexEPNSC_10_Hash_nodeISA_Lb0EEE>
    7065:	48 39 45 e0          	cmp    %rax,-0x20(%rbp)
    7069:	74 07                	je     7072 <_ZNKSt10_HashtableIPKcSt4pairIKS1_NSt7__cxx1112basic_stringIcSt11char_traitsIcESaIcEEEESaISA_ENSt8__detail10_Select1stESt8equal_toIS1_ESt4hashIS1_ENSC_18_Mod_range_hashingENSC_20_Default_ranged_hashENSC_20_Prime_rehash_policyENSC_17_Hashtable_traitsILb0ELb0ELb1EEEE19_M_find_before_nodeEmRS3_m+0xa6>
    706b:	b8 01 00 00 00       	mov    $0x1,%eax
    7070:	eb 05                	jmp    7077 <_ZNKSt10_HashtableIPKcSt4pairIKS1_NSt7__cxx1112basic_stringIcSt11char_traitsIcESaIcEEEESaISA_ENSt8__detail10_Select1stESt8equal_toIS1_ESt4hashIS1_ENSC_18_Mod_range_hashingENSC_20_Default_ranged_hashENSC_20_Prime_rehash_policyENSC_17_Hashtable_traitsILb0ELb0ELb1EEEE19_M_find_before_nodeEmRS3_m+0xab>
    7072:	b8 00 00 00 00       	mov    $0x0,%eax
    7077:	84 c0                	test   %al,%al
    7079:	75 1a                	jne    7095 <_ZNKSt10_HashtableIPKcSt4pairIKS1_NSt7__cxx1112basic_stringIcSt11char_traitsIcESaIcEEEESaISA_ENSt8__detail10_Select1stESt8equal_toIS1_ESt4hashIS1_ENSC_18_Mod_range_hashingENSC_20_Default_ranged_hashENSC_20_Prime_rehash_policyENSC_17_Hashtable_traitsILb0ELb0ELb1EEEE19_M_find_before_nodeEmRS3_m+0xc9>
    707b:	48 8b 45 f8          	mov    -0x8(%rbp),%rax
    707f:	48 89 45 f0          	mov    %rax,-0x10(%rbp)
    7083:	48 8b 45 f8          	mov    -0x8(%rbp),%rax
    7087:	48 89 c7             	mov    %rax,%rdi
    708a:	e8 d9 e7 ff ff       	callq  5868 <_ZNKSt8__detail10_Hash_nodeISt4pairIKPKcNSt7__cxx1112basic_stringIcSt11char_traitsIcESaIcEEEELb0EE7_M_nextEv>
    708f:	48 89 45 f8          	mov    %rax,-0x8(%rbp)
    7093:	eb 84                	jmp    7019 <_ZNKSt10_HashtableIPKcSt4pairIKS1_NSt7__cxx1112basic_stringIcSt11char_traitsIcESaIcEEEESaISA_ENSt8__detail10_Select1stESt8equal_toIS1_ESt4hashIS1_ENSC_18_Mod_range_hashingENSC_20_Default_ranged_hashENSC_20_Prime_rehash_policyENSC_17_Hashtable_traitsILb0ELb0ELb1EEEE19_M_find_before_nodeEmRS3_m+0x4d>
    7095:	90                   	nop
    7096:	b8 00 00 00 00       	mov    $0x0,%eax
    709b:	c9                   	leaveq 
    709c:	c3                   	retq   
    709d:	90                   	nop

000000000000709e <_ZNSt8__detail19_Node_iterator_baseISt4pairIKPKcNSt7__cxx1112basic_stringIcSt11char_traitsIcESaIcEEEELb0EEC1EPNS_10_Hash_nodeISB_Lb0EEE>:
    709e:	55                   	push   %rbp
    709f:	48 89 e5             	mov    %rsp,%rbp
    70a2:	48 89 7d f8          	mov    %rdi,-0x8(%rbp)
    70a6:	48 89 75 f0          	mov    %rsi,-0x10(%rbp)
    70aa:	48 8b 45 f8          	mov    -0x8(%rbp),%rax
    70ae:	48 8b 55 f0          	mov    -0x10(%rbp),%rdx
    70b2:	48 89 10             	mov    %rdx,(%rax)
    70b5:	90                   	nop
    70b6:	5d                   	pop    %rbp
    70b7:	c3                   	retq   

00000000000070b8 <_ZN9__gnu_cxx16__aligned_bufferISt4pairIKPKcNSt7__cxx1112basic_stringIcSt11char_traitsIcESaIcEEEEE7_M_addrEv>:
    70b8:	55                   	push   %rbp
    70b9:	48 89 e5             	mov    %rsp,%rbp
    70bc:	48 89 7d f8          	mov    %rdi,-0x8(%rbp)
    70c0:	48 8b 45 f8          	mov    -0x8(%rbp),%rax
    70c4:	5d                   	pop    %rbp
    70c5:	c3                   	retq   

00000000000070c6 <_ZN9__gnu_cxx13new_allocatorINSt8__detail10_Hash_nodeISt4pairIKPKcNSt7__cxx1112basic_stringIcSt11char_traitsIcESaIcEEEELb0EEEEC1Ev>:
    70c6:	55                   	push   %rbp
    70c7:	48 89 e5             	mov    %rsp,%rbp
    70ca:	48 89 7d f8          	mov    %rdi,-0x8(%rbp)
    70ce:	90                   	nop
    70cf:	5d                   	pop    %rbp
    70d0:	c3                   	retq   
    70d1:	90                   	nop

00000000000070d2 <_ZNSt8__detail15_Hash_code_baseIPKcSt4pairIKS2_NSt7__cxx1112basic_stringIcSt11char_traitsIcESaIcEEEENS_10_Select1stESt4hashIS2_ENS_18_Mod_range_hashingENS_20_Default_ranged_hashELb0EEC1ERKSC_RKSE_RKSF_RKSG_>:
    70d2:	55                   	push   %rbp
    70d3:	48 89 e5             	mov    %rsp,%rbp
    70d6:	48 83 ec 30          	sub    $0x30,%rsp
    70da:	48 89 7d f8          	mov    %rdi,-0x8(%rbp)
    70de:	48 89 75 f0          	mov    %rsi,-0x10(%rbp)
    70e2:	48 89 55 e8          	mov    %rdx,-0x18(%rbp)
    70e6:	48 89 4d e0          	mov    %rcx,-0x20(%rbp)
    70ea:	4c 89 45 d8          	mov    %r8,-0x28(%rbp)
    70ee:	48 8b 55 f0          	mov    -0x10(%rbp),%rdx
    70f2:	48 8b 45 f8          	mov    -0x8(%rbp),%rax
    70f6:	48 89 d6             	mov    %rdx,%rsi
    70f9:	48 89 c7             	mov    %rax,%rdi
    70fc:	e8 0f 0f 00 00       	callq  8010 <_ZNSt8__detail21_Hashtable_ebo_helperILi0ENS_10_Select1stELb1EEC1IRKS1_EEOT_>
    7101:	48 8b 55 e8          	mov    -0x18(%rbp),%rdx
    7105:	48 8b 45 f8          	mov    -0x8(%rbp),%rax
    7109:	48 89 d6             	mov    %rdx,%rsi
    710c:	48 89 c7             	mov    %rax,%rdi
    710f:	e8 2a 0f 00 00       	callq  803e <_ZNSt8__detail21_Hashtable_ebo_helperILi1ESt4hashIPKcELb1EEC1IRKS4_EEOT_>
    7114:	48 8b 55 e0          	mov    -0x20(%rbp),%rdx
    7118:	48 8b 45 f8          	mov    -0x8(%rbp),%rax
    711c:	48 89 d6             	mov    %rdx,%rsi
    711f:	48 89 c7             	mov    %rax,%rdi
    7122:	e8 45 0f 00 00       	callq  806c <_ZNSt8__detail21_Hashtable_ebo_helperILi2ENS_18_Mod_range_hashingELb1EEC1IRKS1_EEOT_>
    7127:	90                   	nop
    7128:	c9                   	leaveq 
    7129:	c3                   	retq   

000000000000712a <_ZSt7forwardIRKSt8equal_toIPKcEEOT_RNSt16remove_referenceIS6_E4typeE>:
    712a:	55                   	push   %rbp
    712b:	48 89 e5             	mov    %rsp,%rbp
    712e:	48 89 7d f8          	mov    %rdi,-0x8(%rbp)
    7132:	48 8b 45 f8          	mov    -0x8(%rbp),%rax
    7136:	5d                   	pop    %rbp
    7137:	c3                   	retq   

0000000000007138 <_ZNSt8__detail21_Hashtable_ebo_helperILi0ESt8equal_toIPKcELb1EEC1IRKS4_EEOT_>:
    7138:	55                   	push   %rbp
    7139:	48 89 e5             	mov    %rsp,%rbp
    713c:	48 83 ec 10          	sub    $0x10,%rsp
    7140:	48 89 7d f8          	mov    %rdi,-0x8(%rbp)
    7144:	48 89 75 f0          	mov    %rsi,-0x10(%rbp)
    7148:	48 8b 45 f0          	mov    -0x10(%rbp),%rax
    714c:	48 89 c7             	mov    %rax,%rdi
    714f:	e8 d6 ff ff ff       	callq  712a <_ZSt7forwardIRKSt8equal_toIPKcEEOT_RNSt16remove_referenceIS6_E4typeE>
    7154:	90                   	nop
    7155:	c9                   	leaveq 
    7156:	c3                   	retq   
    7157:	90                   	nop

0000000000007158 <_ZNSt8__detail21_Hashtable_ebo_helperILi0ESaINS_10_Hash_nodeISt4pairIKPKcNSt7__cxx1112basic_stringIcSt11char_traitsIcESaIcEEEELb0EEEELb1EEC1ISE_EEOT_>:
    7158:	55                   	push   %rbp
    7159:	48 89 e5             	mov    %rsp,%rbp
    715c:	48 83 ec 10          	sub    $0x10,%rsp
    7160:	48 89 7d f8          	mov    %rdi,-0x8(%rbp)
    7164:	48 89 75 f0          	mov    %rsi,-0x10(%rbp)
    7168:	48 8b 45 f0          	mov    -0x10(%rbp),%rax
    716c:	48 89 c7             	mov    %rax,%rdi
    716f:	e8 61 f2 ff ff       	callq  63d5 <_ZSt7forwardISaINSt8__detail10_Hash_nodeISt4pairIKPKcNSt7__cxx1112basic_stringIcSt11char_traitsIcESaIcEEEELb0EEEEEOT_RNSt16remove_referenceISF_E4typeE>
    7174:	48 89 c2             	mov    %rax,%rdx
    7177:	48 8b 45 f8          	mov    -0x8(%rbp),%rax
    717b:	48 89 d6             	mov    %rdx,%rsi
    717e:	48 89 c7             	mov    %rax,%rdi
    7181:	e8 06 0f 00 00       	callq  808c <_ZNSaINSt8__detail10_Hash_nodeISt4pairIKPKcNSt7__cxx1112basic_stringIcSt11char_traitsIcESaIcEEEELb0EEEEC1ERKSD_>
    7186:	90                   	nop
    7187:	c9                   	leaveq 
    7188:	c3                   	retq   

0000000000007189 <_ZSt19__iterator_categoryIPKSt4pairIKPKcNSt7__cxx1112basic_stringIcSt11char_traitsIcESaIcEEEEENSt15iterator_traitsIT_E17iterator_categoryERKSE_>:
    7189:	55                   	push   %rbp
    718a:	48 89 e5             	mov    %rsp,%rbp
    718d:	48 89 7d f8          	mov    %rdi,-0x8(%rbp)
    7191:	5d                   	pop    %rbp
    7192:	c3                   	retq   

0000000000007193 <_ZSt8distanceIPKSt4pairIKPKcNSt7__cxx1112basic_stringIcSt11char_traitsIcESaIcEEEEENSt15iterator_traitsIT_E15difference_typeESE_SE_>:
    7193:	55                   	push   %rbp
    7194:	48 89 e5             	mov    %rsp,%rbp
    7197:	53                   	push   %rbx
    7198:	48 83 ec 28          	sub    $0x28,%rsp
    719c:	48 89 7d d8          	mov    %rdi,-0x28(%rbp)
    71a0:	48 89 75 d0          	mov    %rsi,-0x30(%rbp)
    71a4:	64 48 8b 04 25 28 00 	mov    %fs:0x28,%rax
    71ab:	00 00 
    71ad:	48 89 45 e8          	mov    %rax,-0x18(%rbp)
    71b1:	31 c0                	xor    %eax,%eax
    71b3:	48 8d 45 d8          	lea    -0x28(%rbp),%rax
    71b7:	48 89 c7             	mov    %rax,%rdi
    71ba:	e8 ca ff ff ff       	callq  7189 <_ZSt19__iterator_categoryIPKSt4pairIKPKcNSt7__cxx1112basic_stringIcSt11char_traitsIcESaIcEEEEENSt15iterator_traitsIT_E17iterator_categoryERKSE_>
    71bf:	48 8b 45 d8          	mov    -0x28(%rbp),%rax
    71c3:	48 8b 55 d0          	mov    -0x30(%rbp),%rdx
    71c7:	48 83 ec 08          	sub    $0x8,%rsp
    71cb:	53                   	push   %rbx
    71cc:	48 89 d6             	mov    %rdx,%rsi
    71cf:	48 89 c7             	mov    %rax,%rdi
    71d2:	e8 db 0e 00 00       	callq  80b2 <_ZSt10__distanceIPKSt4pairIKPKcNSt7__cxx1112basic_stringIcSt11char_traitsIcESaIcEEEEENSt15iterator_traitsIT_E15difference_typeESE_SE_St26random_access_iterator_tag>
    71d7:	48 83 c4 10          	add    $0x10,%rsp
    71db:	48 8b 4d e8          	mov    -0x18(%rbp),%rcx
    71df:	64 48 33 0c 25 28 00 	xor    %fs:0x28,%rcx
    71e6:	00 00 
    71e8:	74 05                	je     71ef <_ZSt8distanceIPKSt4pairIKPKcNSt7__cxx1112basic_stringIcSt11char_traitsIcESaIcEEEEENSt15iterator_traitsIT_E15difference_typeESE_SE_+0x5c>
    71ea:	e8 71 a3 ff ff       	callq  1560 <__stack_chk_fail@plt>
    71ef:	48 8b 5d f8          	mov    -0x8(%rbp),%rbx
    71f3:	c9                   	leaveq 
    71f4:	c3                   	retq   

00000000000071f5 <_ZNSt16allocator_traitsISaIPNSt8__detail15_Hash_node_baseEEE8allocateERS3_m>:
    71f5:	55                   	push   %rbp
    71f6:	48 89 e5             	mov    %rsp,%rbp
    71f9:	48 83 ec 10          	sub    $0x10,%rsp
    71fd:	48 89 7d f8          	mov    %rdi,-0x8(%rbp)
    7201:	48 89 75 f0          	mov    %rsi,-0x10(%rbp)
    7205:	48 8b 4d f0          	mov    -0x10(%rbp),%rcx
    7209:	48 8b 45 f8          	mov    -0x8(%rbp),%rax
    720d:	ba 00 00 00 00       	mov    $0x0,%edx
    7212:	48 89 ce             	mov    %rcx,%rsi
    7215:	48 89 c7             	mov    %rax,%rdi
    7218:	e8 c7 0e 00 00       	callq  80e4 <_ZN9__gnu_cxx13new_allocatorIPNSt8__detail15_Hash_node_baseEE8allocateEmPKv>
    721d:	c9                   	leaveq 
    721e:	c3                   	retq   

000000000000721f <_ZSt11__addressofIPNSt8__detail15_Hash_node_baseEEPT_RS3_>:
    721f:	55                   	push   %rbp
    7220:	48 89 e5             	mov    %rsp,%rbp
    7223:	48 89 7d f8          	mov    %rdi,-0x8(%rbp)
    7227:	48 8b 45 f8          	mov    -0x8(%rbp),%rax
    722b:	5d                   	pop    %rbp
    722c:	c3                   	retq   
    722d:	90                   	nop

000000000000722e <_ZNSt8__detail15_Hash_code_baseIPKcSt4pairIKS2_NSt7__cxx1112basic_stringIcSt11char_traitsIcESaIcEEEENS_10_Select1stESt4hashIS2_ENS_18_Mod_range_hashingENS_20_Default_ranged_hashELb0EE10_M_extractEv>:
    722e:	55                   	push   %rbp
    722f:	48 89 e5             	mov    %rsp,%rbp
    7232:	48 83 ec 10          	sub    $0x10,%rsp
    7236:	48 89 7d f8          	mov    %rdi,-0x8(%rbp)
    723a:	48 8b 45 f8          	mov    -0x8(%rbp),%rax
    723e:	48 89 c7             	mov    %rax,%rdi
    7241:	e8 e0 0e 00 00       	callq  8126 <_ZNSt8__detail21_Hashtable_ebo_helperILi0ENS_10_Select1stELb1EE6_S_getERS2_>
    7246:	c9                   	leaveq 
    7247:	c3                   	retq   

0000000000007248 <_ZNKSt8__detail10_Select1stclIRKSt4pairIKPKcNSt7__cxx1112basic_stringIcSt11char_traitsIcESaIcEEEEEEDTcl3getILi0EEcl7forwardIT_Efp_EEEOSF_>:
    7248:	55                   	push   %rbp
    7249:	48 89 e5             	mov    %rsp,%rbp
    724c:	48 83 ec 10          	sub    $0x10,%rsp
    7250:	48 89 7d f8          	mov    %rdi,-0x8(%rbp)
    7254:	48 89 75 f0          	mov    %rsi,-0x10(%rbp)
    7258:	48 8b 45 f0          	mov    -0x10(%rbp),%rax
    725c:	48 89 c7             	mov    %rax,%rdi
    725f:	e8 ca f2 ff ff       	callq  652e <_ZSt7forwardIRKSt4pairIKPKcNSt7__cxx1112basic_stringIcSt11char_traitsIcESaIcEEEEEOT_RNSt16remove_referenceISD_E4typeE>
    7264:	48 89 c7             	mov    %rax,%rdi
    7267:	e8 c8 0e 00 00       	callq  8134 <_ZSt3getILm0EKPKcNSt7__cxx1112basic_stringIcSt11char_traitsIcESaIcEEEERKNSt13tuple_elementIXT_ESt4pairIT0_T1_EE4typeERKSD_>
    726c:	c9                   	leaveq 
    726d:	c3                   	retq   

000000000000726e <_ZSt7forwardINSt8__detail14_Node_iteratorISt4pairIKPKcNSt7__cxx1112basic_stringIcSt11char_traitsIcESaIcEEEELb0ELb0EEEEOT_RNSt16remove_referenceISE_E4typeE>:
    726e:	55                   	push   %rbp
    726f:	48 89 e5             	mov    %rsp,%rbp
    7272:	48 89 7d f8          	mov    %rdi,-0x8(%rbp)
    7276:	48 8b 45 f8          	mov    -0x8(%rbp),%rax
    727a:	5d                   	pop    %rbp
    727b:	c3                   	retq   

000000000000727c <_ZSt9make_pairINSt8__detail14_Node_iteratorISt4pairIKPKcNSt7__cxx1112basic_stringIcSt11char_traitsIcESaIcEEEELb0ELb0EEEbES2_INSt17__decay_and_stripIT_E6__typeENSE_IT0_E6__typeEEOSF_OSI_>:
    727c:	55                   	push   %rbp
    727d:	48 89 e5             	mov    %rsp,%rbp
    7280:	53                   	push   %rbx
    7281:	48 83 ec 38          	sub    $0x38,%rsp
    7285:	48 89 7d c8          	mov    %rdi,-0x38(%rbp)
    7289:	48 89 75 c0          	mov    %rsi,-0x40(%rbp)
    728d:	64 48 8b 04 25 28 00 	mov    %fs:0x28,%rax
    7294:	00 00 
    7296:	48 89 45 e8          	mov    %rax,-0x18(%rbp)
    729a:	31 c0                	xor    %eax,%eax
    729c:	48 8b 45 c0          	mov    -0x40(%rbp),%rax
    72a0:	48 89 c7             	mov    %rax,%rdi
    72a3:	e8 25 bd ff ff       	callq  2fcd <_ZSt7forwardIbEOT_RNSt16remove_referenceIS0_E4typeE>
    72a8:	48 89 c3             	mov    %rax,%rbx
    72ab:	48 8b 45 c8          	mov    -0x38(%rbp),%rax
    72af:	48 89 c7             	mov    %rax,%rdi
    72b2:	e8 b7 ff ff ff       	callq  726e <_ZSt7forwardINSt8__detail14_Node_iteratorISt4pairIKPKcNSt7__cxx1112basic_stringIcSt11char_traitsIcESaIcEEEELb0ELb0EEEEOT_RNSt16remove_referenceISE_E4typeE>
    72b7:	48 89 c1             	mov    %rax,%rcx
    72ba:	48 8d 45 d0          	lea    -0x30(%rbp),%rax
    72be:	48 89 da             	mov    %rbx,%rdx
    72c1:	48 89 ce             	mov    %rcx,%rsi
    72c4:	48 89 c7             	mov    %rax,%rdi
    72c7:	e8 82 0e 00 00       	callq  814e <_ZNSt4pairINSt8__detail14_Node_iteratorIS_IKPKcNSt7__cxx1112basic_stringIcSt11char_traitsIcESaIcEEEELb0ELb0EEEbEC1ISC_bLb1EEEOT_OT0_>
    72cc:	48 8b 45 d0          	mov    -0x30(%rbp),%rax
    72d0:	48 8b 55 d8          	mov    -0x28(%rbp),%rdx
    72d4:	48 8b 4d e8          	mov    -0x18(%rbp),%rcx
    72d8:	64 48 33 0c 25 28 00 	xor    %fs:0x28,%rcx
    72df:	00 00 
    72e1:	74 05                	je     72e8 <_ZSt9make_pairINSt8__detail14_Node_iteratorISt4pairIKPKcNSt7__cxx1112basic_stringIcSt11char_traitsIcESaIcEEEELb0ELb0EEEbES2_INSt17__decay_and_stripIT_E6__typeENSE_IT0_E6__typeEEOSF_OSI_+0x6c>
    72e3:	e8 78 a2 ff ff       	callq  1560 <__stack_chk_fail@plt>
    72e8:	48 83 c4 38          	add    $0x38,%rsp
    72ec:	5b                   	pop    %rbx
    72ed:	5d                   	pop    %rbp
    72ee:	c3                   	retq   
    72ef:	90                   	nop

00000000000072f0 <_ZNKSt8__detail10_AllocNodeISaINS_10_Hash_nodeISt4pairIKPKcNSt7__cxx1112basic_stringIcSt11char_traitsIcESaIcEEEELb0EEEEEclIRKSC_EEPSD_OT_>:
    72f0:	55                   	push   %rbp
    72f1:	48 89 e5             	mov    %rsp,%rbp
    72f4:	53                   	push   %rbx
    72f5:	48 83 ec 18          	sub    $0x18,%rsp
    72f9:	48 89 7d e8          	mov    %rdi,-0x18(%rbp)
    72fd:	48 89 75 e0          	mov    %rsi,-0x20(%rbp)
    7301:	48 8b 45 e8          	mov    -0x18(%rbp),%rax
    7305:	48 8b 18             	mov    (%rax),%rbx
    7308:	48 8b 45 e0          	mov    -0x20(%rbp),%rax
    730c:	48 89 c7             	mov    %rax,%rdi
    730f:	e8 1a f2 ff ff       	callq  652e <_ZSt7forwardIRKSt4pairIKPKcNSt7__cxx1112basic_stringIcSt11char_traitsIcESaIcEEEEEOT_RNSt16remove_referenceISD_E4typeE>
    7314:	48 89 c6             	mov    %rax,%rsi
    7317:	48 89 df             	mov    %rbx,%rdi
    731a:	e8 ad 0e 00 00       	callq  81cc <_ZNSt8__detail16_Hashtable_allocISaINS_10_Hash_nodeISt4pairIKPKcNSt7__cxx1112basic_stringIcSt11char_traitsIcESaIcEEEELb0EEEEE16_M_allocate_nodeIJRKSC_EEEPSD_DpOT_>
    731f:	48 83 c4 18          	add    $0x18,%rsp
    7323:	5b                   	pop    %rbx
    7324:	5d                   	pop    %rbp
    7325:	c3                   	retq   

0000000000007326 <_ZSt7forwardIRSt4pairIKPKcNSt7__cxx1112basic_stringIcSt11char_traitsIcESaIcEEEEEOT_RNSt16remove_referenceISC_E4typeE>:
    7326:	55                   	push   %rbp
    7327:	48 89 e5             	mov    %rsp,%rbp
    732a:	48 89 7d f8          	mov    %rdi,-0x8(%rbp)
    732e:	48 8b 45 f8          	mov    -0x8(%rbp),%rax
    7332:	5d                   	pop    %rbp
    7333:	c3                   	retq   

0000000000007334 <_ZNSt10_HashtableIPKcSt4pairIKS1_NSt7__cxx1112basic_stringIcSt11char_traitsIcESaIcEEEESaISA_ENSt8__detail10_Select1stESt8equal_toIS1_ESt4hashIS1_ENSC_18_Mod_range_hashingENSC_20_Default_ranged_hashENSC_20_Prime_rehash_policyENSC_17_Hashtable_traitsILb0ELb0ELb1EEEE21_M_insert_unique_nodeEmmPNSC_10_Hash_nodeISA_Lb0EEE>:
    7334:	55                   	push   %rbp
    7335:	48 89 e5             	mov    %rsp,%rbp
    7338:	53                   	push   %rbx
    7339:	48 83 ec 68          	sub    $0x68,%rsp
    733d:	48 89 7d a8          	mov    %rdi,-0x58(%rbp)
    7341:	48 89 75 a0          	mov    %rsi,-0x60(%rbp)
    7345:	48 89 55 98          	mov    %rdx,-0x68(%rbp)
    7349:	48 89 4d 90          	mov    %rcx,-0x70(%rbp)
    734d:	64 48 8b 04 25 28 00 	mov    %fs:0x28,%rax
    7354:	00 00 
    7356:	48 89 45 e8          	mov    %rax,-0x18(%rbp)
    735a:	31 c0                	xor    %eax,%eax
    735c:	48 8b 45 a8          	mov    -0x58(%rbp),%rax
    7360:	48 83 c0 20          	add    $0x20,%rax
    7364:	48 89 c7             	mov    %rax,%rdi
    7367:	e8 34 bc ff ff       	callq  2fa0 <_ZNKSt8__detail20_Prime_rehash_policy8_M_stateEv>
    736c:	48 89 45 c0          	mov    %rax,-0x40(%rbp)
    7370:	48 8d 45 c0          	lea    -0x40(%rbp),%rax
    7374:	48 89 45 c8          	mov    %rax,-0x38(%rbp)
    7378:	48 8b 45 a8          	mov    -0x58(%rbp),%rax
    737c:	48 8d 78 20          	lea    0x20(%rax),%rdi
    7380:	48 8b 45 a8          	mov    -0x58(%rbp),%rax
    7384:	48 8b 50 18          	mov    0x18(%rax),%rdx
    7388:	48 8b 45 a8          	mov    -0x58(%rbp),%rax
    738c:	48 8b 40 08          	mov    0x8(%rax),%rax
    7390:	b9 01 00 00 00       	mov    $0x1,%ecx
    7395:	48 89 c6             	mov    %rax,%rsi
    7398:	e8 f3 a1 ff ff       	callq  1590 <_ZNKSt8__detail20_Prime_rehash_policy14_M_need_rehashEmmm@plt>
    739d:	89 c1                	mov    %eax,%ecx
    739f:	48 89 d0             	mov    %rdx,%rax
    73a2:	89 4d d0             	mov    %ecx,-0x30(%rbp)
    73a5:	48 89 45 d8          	mov    %rax,-0x28(%rbp)
    73a9:	0f b6 45 d0          	movzbl -0x30(%rbp),%eax
    73ad:	84 c0                	test   %al,%al
    73af:	74 57                	je     7408 <_ZNSt10_HashtableIPKcSt4pairIKS1_NSt7__cxx1112basic_stringIcSt11char_traitsIcESaIcEEEESaISA_ENSt8__detail10_Select1stESt8equal_toIS1_ESt4hashIS1_ENSC_18_Mod_range_hashingENSC_20_Default_ranged_hashENSC_20_Prime_rehash_policyENSC_17_Hashtable_traitsILb0ELb0ELb1EEEE21_M_insert_unique_nodeEmmPNSC_10_Hash_nodeISA_Lb0EEE+0xd4>
    73b1:	48 8b 4d d8          	mov    -0x28(%rbp),%rcx
    73b5:	48 8b 55 c8          	mov    -0x38(%rbp),%rdx
    73b9:	48 8b 45 a8          	mov    -0x58(%rbp),%rax
    73bd:	48 89 ce             	mov    %rcx,%rsi
    73c0:	48 89 c7             	mov    %rax,%rdi
    73c3:	e8 42 0f 00 00       	callq  830a <_ZNSt10_HashtableIPKcSt4pairIKS1_NSt7__cxx1112basic_stringIcSt11char_traitsIcESaIcEEEESaISA_ENSt8__detail10_Select1stESt8equal_toIS1_ESt4hashIS1_ENSC_18_Mod_range_hashingENSC_20_Default_ranged_hashENSC_20_Prime_rehash_policyENSC_17_Hashtable_traitsILb0ELb0ELb1EEEE9_M_rehashEmRKm>
    73c8:	48 8b 45 a8          	mov    -0x58(%rbp),%rax
    73cc:	48 89 c7             	mov    %rax,%rdi
    73cf:	e8 5a fe ff ff       	callq  722e <_ZNSt8__detail15_Hash_code_baseIPKcSt4pairIKS2_NSt7__cxx1112basic_stringIcSt11char_traitsIcESaIcEEEENS_10_Select1stESt4hashIS2_ENS_18_Mod_range_hashingENS_20_Default_ranged_hashELb0EE10_M_extractEv>
    73d4:	48 89 c3             	mov    %rax,%rbx
    73d7:	48 8b 45 90          	mov    -0x70(%rbp),%rax
    73db:	48 89 c7             	mov    %rax,%rdi
    73de:	e8 bf 0f 00 00       	callq  83a2 <_ZNSt8__detail21_Hash_node_value_baseISt4pairIKPKcNSt7__cxx1112basic_stringIcSt11char_traitsIcESaIcEEEEE4_M_vEv>
    73e3:	48 89 c6             	mov    %rax,%rsi
    73e6:	48 89 df             	mov    %rbx,%rdi
    73e9:	e8 ce 0f 00 00       	callq  83bc <_ZNKSt8__detail10_Select1stclIRSt4pairIKPKcNSt7__cxx1112basic_stringIcSt11char_traitsIcESaIcEEEEEEDTcl3getILi0EEcl7forwardIT_Efp_EEEOSE_>
    73ee:	48 89 c1             	mov    %rax,%rcx
    73f1:	48 8b 55 98          	mov    -0x68(%rbp),%rdx
    73f5:	48 8b 45 a8          	mov    -0x58(%rbp),%rax
    73f9:	48 89 ce             	mov    %rcx,%rsi
    73fc:	48 89 c7             	mov    %rax,%rdi
    73ff:	e8 30 ee ff ff       	callq  6234 <_ZNKSt10_HashtableIPKcSt4pairIKS1_NSt7__cxx1112basic_stringIcSt11char_traitsIcESaIcEEEESaISA_ENSt8__detail10_Select1stESt8equal_toIS1_ESt4hashIS1_ENSC_18_Mod_range_hashingENSC_20_Default_ranged_hashENSC_20_Prime_rehash_policyENSC_17_Hashtable_traitsILb0ELb0ELb1EEEE15_M_bucket_indexERS3_m>
    7404:	48 89 45 a0          	mov    %rax,-0x60(%rbp)
    7408:	48 8b 55 98          	mov    -0x68(%rbp),%rdx
    740c:	48 8b 4d 90          	mov    -0x70(%rbp),%rcx
    7410:	48 8b 45 a8          	mov    -0x58(%rbp),%rax
    7414:	48 89 ce             	mov    %rcx,%rsi
    7417:	48 89 c7             	mov    %rax,%rdi
    741a:	e8 c3 0f 00 00       	callq  83e2 <_ZNKSt8__detail15_Hash_code_baseIPKcSt4pairIKS2_NSt7__cxx1112basic_stringIcSt11char_traitsIcESaIcEEEENS_10_Select1stESt4hashIS2_ENS_18_Mod_range_hashingENS_20_Default_ranged_hashELb0EE13_M_store_codeEPNS_10_Hash_nodeISB_Lb0EEEm>
    741f:	48 8b 55 90          	mov    -0x70(%rbp),%rdx
    7423:	48 8b 4d a0          	mov    -0x60(%rbp),%rcx
    7427:	48 8b 45 a8          	mov    -0x58(%rbp),%rax
    742b:	48 89 ce             	mov    %rcx,%rsi
    742e:	48 89 c7             	mov    %rax,%rdi
    7431:	e8 c0 0f 00 00       	callq  83f6 <_ZNSt10_HashtableIPKcSt4pairIKS1_NSt7__cxx1112basic_stringIcSt11char_traitsIcESaIcEEEESaISA_ENSt8__detail10_Select1stESt8equal_toIS1_ESt4hashIS1_ENSC_18_Mod_range_hashingENSC_20_Default_ranged_hashENSC_20_Prime_rehash_policyENSC_17_Hashtable_traitsILb0ELb0ELb1EEEE22_M_insert_bucket_beginEmPNSC_10_Hash_nodeISA_Lb0EEE>
    7436:	48 8b 45 a8          	mov    -0x58(%rbp),%rax
    743a:	48 8b 40 18          	mov    0x18(%rax),%rax
    743e:	48 8d 50 01          	lea    0x1(%rax),%rdx
    7442:	48 8b 45 a8          	mov    -0x58(%rbp),%rax
    7446:	48 89 50 18          	mov    %rdx,0x18(%rax)
    744a:	48 8b 55 90          	mov    -0x70(%rbp),%rdx
    744e:	48 8d 45 b8          	lea    -0x48(%rbp),%rax
    7452:	48 89 d6             	mov    %rdx,%rsi
    7455:	48 89 c7             	mov    %rax,%rdi
    7458:	e8 55 ee ff ff       	callq  62b2 <_ZNSt8__detail14_Node_iteratorISt4pairIKPKcNSt7__cxx1112basic_stringIcSt11char_traitsIcESaIcEEEELb0ELb0EEC1EPNS_10_Hash_nodeISB_Lb0EEE>
    745d:	48 8b 45 b8          	mov    -0x48(%rbp),%rax
    7461:	48 8b 5d e8          	mov    -0x18(%rbp),%rbx
    7465:	64 48 33 1c 25 28 00 	xor    %fs:0x28,%rbx
    746c:	00 00 
    746e:	74 3a                	je     74aa <_ZNSt10_HashtableIPKcSt4pairIKS1_NSt7__cxx1112basic_stringIcSt11char_traitsIcESaIcEEEESaISA_ENSt8__detail10_Select1stESt8equal_toIS1_ESt4hashIS1_ENSC_18_Mod_range_hashingENSC_20_Default_ranged_hashENSC_20_Prime_rehash_policyENSC_17_Hashtable_traitsILb0ELb0ELb1EEEE21_M_insert_unique_nodeEmmPNSC_10_Hash_nodeISA_Lb0EEE+0x176>
    7470:	eb 33                	jmp    74a5 <_ZNSt10_HashtableIPKcSt4pairIKS1_NSt7__cxx1112basic_stringIcSt11char_traitsIcESaIcEEEESaISA_ENSt8__detail10_Select1stESt8equal_toIS1_ESt4hashIS1_ENSC_18_Mod_range_hashingENSC_20_Default_ranged_hashENSC_20_Prime_rehash_policyENSC_17_Hashtable_traitsILb0ELb0ELb1EEEE21_M_insert_unique_nodeEmmPNSC_10_Hash_nodeISA_Lb0EEE+0x171>
    7472:	48 89 c7             	mov    %rax,%rdi
    7475:	e8 f6 9f ff ff       	callq  1470 <__cxa_begin_catch@plt>
    747a:	48 8b 55 90          	mov    -0x70(%rbp),%rdx
    747e:	48 8b 45 a8          	mov    -0x58(%rbp),%rax
    7482:	48 89 d6             	mov    %rdx,%rsi
    7485:	48 89 c7             	mov    %rax,%rdi
    7488:	e8 ed e3 ff ff       	callq  587a <_ZNSt8__detail16_Hashtable_allocISaINS_10_Hash_nodeISt4pairIKPKcNSt7__cxx1112basic_stringIcSt11char_traitsIcESaIcEEEELb0EEEEE18_M_deallocate_nodeEPSD_>
    748d:	e8 1e a1 ff ff       	callq  15b0 <__cxa_rethrow@plt>
    7492:	48 89 c3             	mov    %rax,%rbx
    7495:	e8 46 a1 ff ff       	callq  15e0 <__cxa_end_catch@plt>
    749a:	48 89 d8             	mov    %rbx,%rax
    749d:	48 89 c7             	mov    %rax,%rdi
    74a0:	e8 5b a1 ff ff       	callq  1600 <_Unwind_Resume@plt>
    74a5:	e8 b6 a0 ff ff       	callq  1560 <__stack_chk_fail@plt>
    74aa:	48 83 c4 68          	add    $0x68,%rsp
    74ae:	5b                   	pop    %rbx
    74af:	5d                   	pop    %rbp
    74b0:	c3                   	retq   

00000000000074b1 <_ZSt9addressofINSt8__detail10_Hash_nodeISt4pairIKPKcNSt7__cxx1112basic_stringIcSt11char_traitsIcESaIcEEEELb0EEEEPT_RSE_>:
    74b1:	55                   	push   %rbp
    74b2:	48 89 e5             	mov    %rsp,%rbp
    74b5:	48 83 ec 10          	sub    $0x10,%rsp
    74b9:	48 89 7d f8          	mov    %rdi,-0x8(%rbp)
    74bd:	48 8b 45 f8          	mov    -0x8(%rbp),%rax
    74c1:	48 89 c7             	mov    %rax,%rdi
    74c4:	e8 19 10 00 00       	callq  84e2 <_ZSt11__addressofINSt8__detail10_Hash_nodeISt4pairIKPKcNSt7__cxx1112basic_stringIcSt11char_traitsIcESaIcEEEELb0EEEEPT_RSE_>
    74c9:	c9                   	leaveq 
    74ca:	c3                   	retq   

00000000000074cb <_ZNSt8__detail21_Hashtable_ebo_helperILi0ESaINS_10_Hash_nodeISt4pairIKPKcNSt7__cxx1112basic_stringIcSt11char_traitsIcESaIcEEEELb0EEEELb1EE6_S_getERSF_>:
    74cb:	55                   	push   %rbp
    74cc:	48 89 e5             	mov    %rsp,%rbp
    74cf:	48 89 7d f8          	mov    %rdi,-0x8(%rbp)
    74d3:	48 8b 45 f8          	mov    -0x8(%rbp),%rax
    74d7:	5d                   	pop    %rbp
    74d8:	c3                   	retq   
    74d9:	90                   	nop

00000000000074da <_ZN9__gnu_cxx13new_allocatorISt4pairIKPKcNSt7__cxx1112basic_stringIcSt11char_traitsIcESaIcEEEEE7destroyISB_EEvPT_>:
    74da:	55                   	push   %rbp
    74db:	48 89 e5             	mov    %rsp,%rbp
    74de:	48 83 ec 10          	sub    $0x10,%rsp
    74e2:	48 89 7d f8          	mov    %rdi,-0x8(%rbp)
    74e6:	48 89 75 f0          	mov    %rsi,-0x10(%rbp)
    74ea:	48 8b 45 f0          	mov    -0x10(%rbp),%rax
    74ee:	48 89 c7             	mov    %rax,%rdi
    74f1:	e8 f4 ba ff ff       	callq  2fea <_ZNSt4pairIKPKcNSt7__cxx1112basic_stringIcSt11char_traitsIcESaIcEEEED1Ev>
    74f6:	90                   	nop
    74f7:	c9                   	leaveq 
    74f8:	c3                   	retq   
    74f9:	90                   	nop

00000000000074fa <_ZN9__gnu_cxx13new_allocatorINSt8__detail10_Hash_nodeISt4pairIKPKcNSt7__cxx1112basic_stringIcSt11char_traitsIcESaIcEEEELb0EEEE10deallocateEPSE_m>:
    74fa:	55                   	push   %rbp
    74fb:	48 89 e5             	mov    %rsp,%rbp
    74fe:	48 83 ec 20          	sub    $0x20,%rsp
    7502:	48 89 7d f8          	mov    %rdi,-0x8(%rbp)
    7506:	48 89 75 f0          	mov    %rsi,-0x10(%rbp)
    750a:	48 89 55 e8          	mov    %rdx,-0x18(%rbp)
    750e:	48 8b 45 f0          	mov    -0x10(%rbp),%rax
    7512:	48 89 c7             	mov    %rax,%rdi
    7515:	e8 f6 9f ff ff       	callq  1510 <_ZdlPv@plt>
    751a:	90                   	nop
    751b:	c9                   	leaveq 
    751c:	c3                   	retq   

000000000000751d <_ZSt9addressofIPNSt8__detail15_Hash_node_baseEEPT_RS3_>:
    751d:	55                   	push   %rbp
    751e:	48 89 e5             	mov    %rsp,%rbp
    7521:	48 83 ec 10          	sub    $0x10,%rsp
    7525:	48 89 7d f8          	mov    %rdi,-0x8(%rbp)
    7529:	48 8b 45 f8          	mov    -0x8(%rbp),%rax
    752d:	48 89 c7             	mov    %rax,%rdi
    7530:	e8 ea fc ff ff       	callq  721f <_ZSt11__addressofIPNSt8__detail15_Hash_node_baseEEPT_RS3_>
    7535:	c9                   	leaveq 
    7536:	c3                   	retq   
    7537:	90                   	nop

0000000000007538 <_ZN9__gnu_cxx13new_allocatorIPNSt8__detail15_Hash_node_baseEEC1Ev>:
    7538:	55                   	push   %rbp
    7539:	48 89 e5             	mov    %rsp,%rbp
    753c:	48 89 7d f8          	mov    %rdi,-0x8(%rbp)
    7540:	90                   	nop
    7541:	5d                   	pop    %rbp
    7542:	c3                   	retq   
    7543:	90                   	nop

0000000000007544 <_ZN9__gnu_cxx13new_allocatorIPNSt8__detail15_Hash_node_baseEED1Ev>:
    7544:	55                   	push   %rbp
    7545:	48 89 e5             	mov    %rsp,%rbp
    7548:	48 89 7d f8          	mov    %rdi,-0x8(%rbp)
    754c:	90                   	nop
    754d:	5d                   	pop    %rbp
    754e:	c3                   	retq   
    754f:	90                   	nop

0000000000007550 <_ZN9__gnu_cxx13new_allocatorIPNSt8__detail15_Hash_node_baseEE10deallocateEPS3_m>:
    7550:	55                   	push   %rbp
    7551:	48 89 e5             	mov    %rsp,%rbp
    7554:	48 83 ec 20          	sub    $0x20,%rsp
    7558:	48 89 7d f8          	mov    %rdi,-0x8(%rbp)
    755c:	48 89 75 f0          	mov    %rsi,-0x10(%rbp)
    7560:	48 89 55 e8          	mov    %rdx,-0x18(%rbp)
    7564:	48 8b 45 f0          	mov    -0x10(%rbp),%rax
    7568:	48 89 c7             	mov    %rax,%rdi
    756b:	e8 a0 9f ff ff       	callq  1510 <_ZdlPv@plt>
    7570:	90                   	nop
    7571:	c9                   	leaveq 
    7572:	c3                   	retq   
    7573:	90                   	nop

0000000000007574 <_ZN9__gnu_cxx13new_allocatorINSt8__detail10_Hash_nodeISt4pairIKiNSt7__cxx1112basic_stringIcSt11char_traitsIcESaIcEEEELb0EEEEC1Ev>:
    7574:	55                   	push   %rbp
    7575:	48 89 e5             	mov    %rsp,%rbp
    7578:	48 89 7d f8          	mov    %rdi,-0x8(%rbp)
    757c:	90                   	nop
    757d:	5d                   	pop    %rbp
    757e:	c3                   	retq   
    757f:	90                   	nop

0000000000007580 <_ZNSt8__detail15_Hash_code_baseIiSt4pairIKiNSt7__cxx1112basic_stringIcSt11char_traitsIcESaIcEEEENS_10_Select1stESt4hashIiENS_18_Mod_range_hashingENS_20_Default_ranged_hashELb0EEC1ERKSA_RKSC_RKSD_RKSE_>:
    7580:	55                   	push   %rbp
    7581:	48 89 e5             	mov    %rsp,%rbp
    7584:	48 83 ec 30          	sub    $0x30,%rsp
    7588:	48 89 7d f8          	mov    %rdi,-0x8(%rbp)
    758c:	48 89 75 f0          	mov    %rsi,-0x10(%rbp)
    7590:	48 89 55 e8          	mov    %rdx,-0x18(%rbp)
    7594:	48 89 4d e0          	mov    %rcx,-0x20(%rbp)
    7598:	4c 89 45 d8          	mov    %r8,-0x28(%rbp)
    759c:	48 8b 55 f0          	mov    -0x10(%rbp),%rdx
    75a0:	48 8b 45 f8          	mov    -0x8(%rbp),%rax
    75a4:	48 89 d6             	mov    %rdx,%rsi
    75a7:	48 89 c7             	mov    %rax,%rdi
    75aa:	e8 61 0a 00 00       	callq  8010 <_ZNSt8__detail21_Hashtable_ebo_helperILi0ENS_10_Select1stELb1EEC1IRKS1_EEOT_>
    75af:	48 8b 55 e8          	mov    -0x18(%rbp),%rdx
    75b3:	48 8b 45 f8          	mov    -0x8(%rbp),%rax
    75b7:	48 89 d6             	mov    %rdx,%rsi
    75ba:	48 89 c7             	mov    %rax,%rdi
    75bd:	e8 3c 0f 00 00       	callq  84fe <_ZNSt8__detail21_Hashtable_ebo_helperILi1ESt4hashIiELb1EEC1IRKS2_EEOT_>
    75c2:	48 8b 55 e0          	mov    -0x20(%rbp),%rdx
    75c6:	48 8b 45 f8          	mov    -0x8(%rbp),%rax
    75ca:	48 89 d6             	mov    %rdx,%rsi
    75cd:	48 89 c7             	mov    %rax,%rdi
    75d0:	e8 97 0a 00 00       	callq  806c <_ZNSt8__detail21_Hashtable_ebo_helperILi2ENS_18_Mod_range_hashingELb1EEC1IRKS1_EEOT_>
    75d5:	90                   	nop
    75d6:	c9                   	leaveq 
    75d7:	c3                   	retq   

00000000000075d8 <_ZSt7forwardIRKSt8equal_toIiEEOT_RNSt16remove_referenceIS4_E4typeE>:
    75d8:	55                   	push   %rbp
    75d9:	48 89 e5             	mov    %rsp,%rbp
    75dc:	48 89 7d f8          	mov    %rdi,-0x8(%rbp)
    75e0:	48 8b 45 f8          	mov    -0x8(%rbp),%rax
    75e4:	5d                   	pop    %rbp
    75e5:	c3                   	retq   

00000000000075e6 <_ZNSt8__detail21_Hashtable_ebo_helperILi0ESt8equal_toIiELb1EEC1IRKS2_EEOT_>:
    75e6:	55                   	push   %rbp
    75e7:	48 89 e5             	mov    %rsp,%rbp
    75ea:	48 83 ec 10          	sub    $0x10,%rsp
    75ee:	48 89 7d f8          	mov    %rdi,-0x8(%rbp)
    75f2:	48 89 75 f0          	mov    %rsi,-0x10(%rbp)
    75f6:	48 8b 45 f0          	mov    -0x10(%rbp),%rax
    75fa:	48 89 c7             	mov    %rax,%rdi
    75fd:	e8 d6 ff ff ff       	callq  75d8 <_ZSt7forwardIRKSt8equal_toIiEEOT_RNSt16remove_referenceIS4_E4typeE>
    7602:	90                   	nop
    7603:	c9                   	leaveq 
    7604:	c3                   	retq   
    7605:	90                   	nop

0000000000007606 <_ZNSt8__detail21_Hashtable_ebo_helperILi0ESaINS_10_Hash_nodeISt4pairIKiNSt7__cxx1112basic_stringIcSt11char_traitsIcESaIcEEEELb0EEEELb1EEC1ISC_EEOT_>:
    7606:	55                   	push   %rbp
    7607:	48 89 e5             	mov    %rsp,%rbp
    760a:	48 83 ec 10          	sub    $0x10,%rsp
    760e:	48 89 7d f8          	mov    %rdi,-0x8(%rbp)
    7612:	48 89 75 f0          	mov    %rsi,-0x10(%rbp)
    7616:	48 8b 45 f0          	mov    -0x10(%rbp),%rax
    761a:	48 89 c7             	mov    %rax,%rdi
    761d:	e8 ed f1 ff ff       	callq  680f <_ZSt7forwardISaINSt8__detail10_Hash_nodeISt4pairIKiNSt7__cxx1112basic_stringIcSt11char_traitsIcESaIcEEEELb0EEEEEOT_RNSt16remove_referenceISD_E4typeE>
    7622:	48 89 c2             	mov    %rax,%rdx
    7625:	48 8b 45 f8          	mov    -0x8(%rbp),%rax
    7629:	48 89 d6             	mov    %rdx,%rsi
    762c:	48 89 c7             	mov    %rax,%rdi
    762f:	e8 ea 0e 00 00       	callq  851e <_ZNSaINSt8__detail10_Hash_nodeISt4pairIKiNSt7__cxx1112basic_stringIcSt11char_traitsIcESaIcEEEELb0EEEEC1ERKSB_>
    7634:	90                   	nop
    7635:	c9                   	leaveq 
    7636:	c3                   	retq   

0000000000007637 <_ZSt19__iterator_categoryIPKSt4pairIKiNSt7__cxx1112basic_stringIcSt11char_traitsIcESaIcEEEEENSt15iterator_traitsIT_E17iterator_categoryERKSC_>:
    7637:	55                   	push   %rbp
    7638:	48 89 e5             	mov    %rsp,%rbp
    763b:	48 89 7d f8          	mov    %rdi,-0x8(%rbp)
    763f:	5d                   	pop    %rbp
    7640:	c3                   	retq   

0000000000007641 <_ZSt8distanceIPKSt4pairIKiNSt7__cxx1112basic_stringIcSt11char_traitsIcESaIcEEEEENSt15iterator_traitsIT_E15difference_typeESC_SC_>:
    7641:	55                   	push   %rbp
    7642:	48 89 e5             	mov    %rsp,%rbp
    7645:	53                   	push   %rbx
    7646:	48 83 ec 28          	sub    $0x28,%rsp
    764a:	48 89 7d d8          	mov    %rdi,-0x28(%rbp)
    764e:	48 89 75 d0          	mov    %rsi,-0x30(%rbp)
    7652:	64 48 8b 04 25 28 00 	mov    %fs:0x28,%rax
    7659:	00 00 
    765b:	48 89 45 e8          	mov    %rax,-0x18(%rbp)
    765f:	31 c0                	xor    %eax,%eax
    7661:	48 8d 45 d8          	lea    -0x28(%rbp),%rax
    7665:	48 89 c7             	mov    %rax,%rdi
    7668:	e8 ca ff ff ff       	callq  7637 <_ZSt19__iterator_categoryIPKSt4pairIKiNSt7__cxx1112basic_stringIcSt11char_traitsIcESaIcEEEEENSt15iterator_traitsIT_E17iterator_categoryERKSC_>
    766d:	48 8b 45 d8          	mov    -0x28(%rbp),%rax
    7671:	48 8b 55 d0          	mov    -0x30(%rbp),%rdx
    7675:	48 83 ec 08          	sub    $0x8,%rsp
    7679:	53                   	push   %rbx
    767a:	48 89 d6             	mov    %rdx,%rsi
    767d:	48 89 c7             	mov    %rax,%rdi
    7680:	e8 bf 0e 00 00       	callq  8544 <_ZSt10__distanceIPKSt4pairIKiNSt7__cxx1112basic_stringIcSt11char_traitsIcESaIcEEEEENSt15iterator_traitsIT_E15difference_typeESC_SC_St26random_access_iterator_tag>
    7685:	48 83 c4 10          	add    $0x10,%rsp
    7689:	48 8b 4d e8          	mov    -0x18(%rbp),%rcx
    768d:	64 48 33 0c 25 28 00 	xor    %fs:0x28,%rcx
    7694:	00 00 
    7696:	74 05                	je     769d <_ZSt8distanceIPKSt4pairIKiNSt7__cxx1112basic_stringIcSt11char_traitsIcESaIcEEEEENSt15iterator_traitsIT_E15difference_typeESC_SC_+0x5c>
    7698:	e8 c3 9e ff ff       	callq  1560 <__stack_chk_fail@plt>
    769d:	48 8b 5d f8          	mov    -0x8(%rbp),%rbx
    76a1:	c9                   	leaveq 
    76a2:	c3                   	retq   
    76a3:	90                   	nop

00000000000076a4 <_ZNSt8__detail15_Hash_code_baseIiSt4pairIKiNSt7__cxx1112basic_stringIcSt11char_traitsIcESaIcEEEENS_10_Select1stESt4hashIiENS_18_Mod_range_hashingENS_20_Default_ranged_hashELb0EE10_M_extractEv>:
    76a4:	55                   	push   %rbp
    76a5:	48 89 e5             	mov    %rsp,%rbp
    76a8:	48 83 ec 10          	sub    $0x10,%rsp
    76ac:	48 89 7d f8          	mov    %rdi,-0x8(%rbp)
    76b0:	48 8b 45 f8          	mov    -0x8(%rbp),%rax
    76b4:	48 89 c7             	mov    %rax,%rdi
    76b7:	e8 6a 0a 00 00       	callq  8126 <_ZNSt8__detail21_Hashtable_ebo_helperILi0ENS_10_Select1stELb1EE6_S_getERS2_>
    76bc:	c9                   	leaveq 
    76bd:	c3                   	retq   

00000000000076be <_ZNKSt8__detail10_Select1stclIRKSt4pairIKiNSt7__cxx1112basic_stringIcSt11char_traitsIcESaIcEEEEEEDTcl3getILi0EEcl7forwardIT_Efp_EEEOSD_>:
    76be:	55                   	push   %rbp
    76bf:	48 89 e5             	mov    %rsp,%rbp
    76c2:	48 83 ec 10          	sub    $0x10,%rsp
    76c6:	48 89 7d f8          	mov    %rdi,-0x8(%rbp)
    76ca:	48 89 75 f0          	mov    %rsi,-0x10(%rbp)
    76ce:	48 8b 45 f0          	mov    -0x10(%rbp),%rax
    76d2:	48 89 c7             	mov    %rax,%rdi
    76d5:	e8 8e f2 ff ff       	callq  6968 <_ZSt7forwardIRKSt4pairIKiNSt7__cxx1112basic_stringIcSt11char_traitsIcESaIcEEEEEOT_RNSt16remove_referenceISB_E4typeE>
    76da:	48 89 c7             	mov    %rax,%rdi
    76dd:	e8 93 0e 00 00       	callq  8575 <_ZSt3getILm0EKiNSt7__cxx1112basic_stringIcSt11char_traitsIcESaIcEEEERKNSt13tuple_elementIXT_ESt4pairIT0_T1_EE4typeERKSB_>
    76e2:	c9                   	leaveq 
    76e3:	c3                   	retq   

00000000000076e4 <_ZNKSt8__detail15_Hash_code_baseIiSt4pairIKiNSt7__cxx1112basic_stringIcSt11char_traitsIcESaIcEEEENS_10_Select1stESt4hashIiENS_18_Mod_range_hashingENS_20_Default_ranged_hashELb0EE12_M_hash_codeERS2_>:
    76e4:	55                   	push   %rbp
    76e5:	48 89 e5             	mov    %rsp,%rbp
    76e8:	48 83 ec 10          	sub    $0x10,%rsp
    76ec:	48 89 7d f8          	mov    %rdi,-0x8(%rbp)
    76f0:	48 89 75 f0          	mov    %rsi,-0x10(%rbp)
    76f4:	48 8b 45 f8          	mov    -0x8(%rbp),%rax
    76f8:	48 89 c7             	mov    %rax,%rdi
    76fb:	e8 90 0e 00 00       	callq  8590 <_ZNKSt8__detail15_Hash_code_baseIiSt4pairIKiNSt7__cxx1112basic_stringIcSt11char_traitsIcESaIcEEEENS_10_Select1stESt4hashIiENS_18_Mod_range_hashingENS_20_Default_ranged_hashELb0EE5_M_h1Ev>
    7700:	48 89 c2             	mov    %rax,%rdx
    7703:	48 8b 45 f0          	mov    -0x10(%rbp),%rax
    7707:	8b 00                	mov    (%rax),%eax
    7709:	89 c6                	mov    %eax,%esi
    770b:	48 89 d7             	mov    %rdx,%rdi
    770e:	e8 f7 b6 ff ff       	callq  2e0a <_ZNKSt4hashIiEclEi>
    7713:	c9                   	leaveq 
    7714:	c3                   	retq   
    7715:	90                   	nop

0000000000007716 <_ZNKSt10_HashtableIiSt4pairIKiNSt7__cxx1112basic_stringIcSt11char_traitsIcESaIcEEEESaIS8_ENSt8__detail10_Select1stESt8equal_toIiESt4hashIiENSA_18_Mod_range_hashingENSA_20_Default_ranged_hashENSA_20_Prime_rehash_policyENSA_17_Hashtable_traitsILb0ELb0ELb1EEEE15_M_bucket_indexERS1_m>:
    7716:	55                   	push   %rbp
    7717:	48 89 e5             	mov    %rsp,%rbp
    771a:	48 83 ec 20          	sub    $0x20,%rsp
    771e:	48 89 7d f8          	mov    %rdi,-0x8(%rbp)
    7722:	48 89 75 f0          	mov    %rsi,-0x10(%rbp)
    7726:	48 89 55 e8          	mov    %rdx,-0x18(%rbp)
    772a:	48 8b 45 f8          	mov    -0x8(%rbp),%rax
    772e:	48 8b 48 08          	mov    0x8(%rax),%rcx
    7732:	48 8b 55 e8          	mov    -0x18(%rbp),%rdx
    7736:	48 8b 75 f0          	mov    -0x10(%rbp),%rsi
    773a:	48 8b 45 f8          	mov    -0x8(%rbp),%rax
    773e:	48 89 c7             	mov    %rax,%rdi
    7741:	e8 64 0e 00 00       	callq  85aa <_ZNKSt8__detail15_Hash_code_baseIiSt4pairIKiNSt7__cxx1112basic_stringIcSt11char_traitsIcESaIcEEEENS_10_Select1stESt4hashIiENS_18_Mod_range_hashingENS_20_Default_ranged_hashELb0EE15_M_bucket_indexERS2_mm>
    7746:	c9                   	leaveq 
    7747:	c3                   	retq   

0000000000007748 <_ZNKSt10_HashtableIiSt4pairIKiNSt7__cxx1112basic_stringIcSt11char_traitsIcESaIcEEEESaIS8_ENSt8__detail10_Select1stESt8equal_toIiESt4hashIiENSA_18_Mod_range_hashingENSA_20_Default_ranged_hashENSA_20_Prime_rehash_policyENSA_17_Hashtable_traitsILb0ELb0ELb1EEEE12_M_find_nodeEmRS1_m>:
    7748:	55                   	push   %rbp
    7749:	48 89 e5             	mov    %rsp,%rbp
    774c:	48 83 ec 30          	sub    $0x30,%rsp
    7750:	48 89 7d e8          	mov    %rdi,-0x18(%rbp)
    7754:	48 89 75 e0          	mov    %rsi,-0x20(%rbp)
    7758:	48 89 55 d8          	mov    %rdx,-0x28(%rbp)
    775c:	48 89 4d d0          	mov    %rcx,-0x30(%rbp)
    7760:	48 8b 4d d0          	mov    -0x30(%rbp),%rcx
    7764:	48 8b 55 d8          	mov    -0x28(%rbp),%rdx
    7768:	48 8b 75 e0          	mov    -0x20(%rbp),%rsi
    776c:	48 8b 45 e8          	mov    -0x18(%rbp),%rax
    7770:	48 89 c7             	mov    %rax,%rdi
    7773:	e8 6e 0e 00 00       	callq  85e6 <_ZNKSt10_HashtableIiSt4pairIKiNSt7__cxx1112basic_stringIcSt11char_traitsIcESaIcEEEESaIS8_ENSt8__detail10_Select1stESt8equal_toIiESt4hashIiENSA_18_Mod_range_hashingENSA_20_Default_ranged_hashENSA_20_Prime_rehash_policyENSA_17_Hashtable_traitsILb0ELb0ELb1EEEE19_M_find_before_nodeEmRS1_m>
    7778:	48 89 45 f8          	mov    %rax,-0x8(%rbp)
    777c:	48 83 7d f8 00       	cmpq   $0x0,-0x8(%rbp)
    7781:	74 09                	je     778c <_ZNKSt10_HashtableIiSt4pairIKiNSt7__cxx1112basic_stringIcSt11char_traitsIcESaIcEEEESaIS8_ENSt8__detail10_Select1stESt8equal_toIiESt4hashIiENSA_18_Mod_range_hashingENSA_20_Default_ranged_hashENSA_20_Prime_rehash_policyENSA_17_Hashtable_traitsILb0ELb0ELb1EEEE12_M_find_nodeEmRS1_m+0x44>
    7783:	48 8b 45 f8          	mov    -0x8(%rbp),%rax
    7787:	48 8b 00             	mov    (%rax),%rax
    778a:	eb 05                	jmp    7791 <_ZNKSt10_HashtableIiSt4pairIKiNSt7__cxx1112basic_stringIcSt11char_traitsIcESaIcEEEESaIS8_ENSt8__detail10_Select1stESt8equal_toIiESt4hashIiENSA_18_Mod_range_hashingENSA_20_Default_ranged_hashENSA_20_Prime_rehash_policyENSA_17_Hashtable_traitsILb0ELb0ELb1EEEE12_M_find_nodeEmRS1_m+0x49>
    778c:	b8 00 00 00 00       	mov    $0x0,%eax
    7791:	c9                   	leaveq 
    7792:	c3                   	retq   
    7793:	90                   	nop

0000000000007794 <_ZNSt8__detail14_Node_iteratorISt4pairIKiNSt7__cxx1112basic_stringIcSt11char_traitsIcESaIcEEEELb0ELb0EEC1EPNS_10_Hash_nodeIS9_Lb0EEE>:
    7794:	55                   	push   %rbp
    7795:	48 89 e5             	mov    %rsp,%rbp
    7798:	48 83 ec 10          	sub    $0x10,%rsp
    779c:	48 89 7d f8          	mov    %rdi,-0x8(%rbp)
    77a0:	48 89 75 f0          	mov    %rsi,-0x10(%rbp)
    77a4:	48 8b 45 f8          	mov    -0x8(%rbp),%rax
    77a8:	48 8b 55 f0          	mov    -0x10(%rbp),%rdx
    77ac:	48 89 d6             	mov    %rdx,%rsi
    77af:	48 89 c7             	mov    %rax,%rdi
    77b2:	e8 01 0f 00 00       	callq  86b8 <_ZNSt8__detail19_Node_iterator_baseISt4pairIKiNSt7__cxx1112basic_stringIcSt11char_traitsIcESaIcEEEELb0EEC1EPNS_10_Hash_nodeIS9_Lb0EEE>
    77b7:	90                   	nop
    77b8:	c9                   	leaveq 
    77b9:	c3                   	retq   

00000000000077ba <_ZSt7forwardINSt8__detail14_Node_iteratorISt4pairIKiNSt7__cxx1112basic_stringIcSt11char_traitsIcESaIcEEEELb0ELb0EEEEOT_RNSt16remove_referenceISC_E4typeE>:
    77ba:	55                   	push   %rbp
    77bb:	48 89 e5             	mov    %rsp,%rbp
    77be:	48 89 7d f8          	mov    %rdi,-0x8(%rbp)
    77c2:	48 8b 45 f8          	mov    -0x8(%rbp),%rax
    77c6:	5d                   	pop    %rbp
    77c7:	c3                   	retq   

00000000000077c8 <_ZSt9make_pairINSt8__detail14_Node_iteratorISt4pairIKiNSt7__cxx1112basic_stringIcSt11char_traitsIcESaIcEEEELb0ELb0EEEbES2_INSt17__decay_and_stripIT_E6__typeENSC_IT0_E6__typeEEOSD_OSG_>:
    77c8:	55                   	push   %rbp
    77c9:	48 89 e5             	mov    %rsp,%rbp
    77cc:	53                   	push   %rbx
    77cd:	48 83 ec 38          	sub    $0x38,%rsp
    77d1:	48 89 7d c8          	mov    %rdi,-0x38(%rbp)
    77d5:	48 89 75 c0          	mov    %rsi,-0x40(%rbp)
    77d9:	64 48 8b 04 25 28 00 	mov    %fs:0x28,%rax
    77e0:	00 00 
    77e2:	48 89 45 e8          	mov    %rax,-0x18(%rbp)
    77e6:	31 c0                	xor    %eax,%eax
    77e8:	48 8b 45 c0          	mov    -0x40(%rbp),%rax
    77ec:	48 89 c7             	mov    %rax,%rdi
    77ef:	e8 d9 b7 ff ff       	callq  2fcd <_ZSt7forwardIbEOT_RNSt16remove_referenceIS0_E4typeE>
    77f4:	48 89 c3             	mov    %rax,%rbx
    77f7:	48 8b 45 c8          	mov    -0x38(%rbp),%rax
    77fb:	48 89 c7             	mov    %rax,%rdi
    77fe:	e8 b7 ff ff ff       	callq  77ba <_ZSt7forwardINSt8__detail14_Node_iteratorISt4pairIKiNSt7__cxx1112basic_stringIcSt11char_traitsIcESaIcEEEELb0ELb0EEEEOT_RNSt16remove_referenceISC_E4typeE>
    7803:	48 89 c1             	mov    %rax,%rcx
    7806:	48 8d 45 d0          	lea    -0x30(%rbp),%rax
    780a:	48 89 da             	mov    %rbx,%rdx
    780d:	48 89 ce             	mov    %rcx,%rsi
    7810:	48 89 c7             	mov    %rax,%rdi
    7813:	e8 ba 0e 00 00       	callq  86d2 <_ZNSt4pairINSt8__detail14_Node_iteratorIS_IKiNSt7__cxx1112basic_stringIcSt11char_traitsIcESaIcEEEELb0ELb0EEEbEC1ISA_bLb1EEEOT_OT0_>
    7818:	48 8b 45 d0          	mov    -0x30(%rbp),%rax
    781c:	48 8b 55 d8          	mov    -0x28(%rbp),%rdx
    7820:	48 8b 4d e8          	mov    -0x18(%rbp),%rcx
    7824:	64 48 33 0c 25 28 00 	xor    %fs:0x28,%rcx
    782b:	00 00 
    782d:	74 05                	je     7834 <_ZSt9make_pairINSt8__detail14_Node_iteratorISt4pairIKiNSt7__cxx1112basic_stringIcSt11char_traitsIcESaIcEEEELb0ELb0EEEbES2_INSt17__decay_and_stripIT_E6__typeENSC_IT0_E6__typeEEOSD_OSG_+0x6c>
    782f:	e8 2c 9d ff ff       	callq  1560 <__stack_chk_fail@plt>
    7834:	48 83 c4 38          	add    $0x38,%rsp
    7838:	5b                   	pop    %rbx
    7839:	5d                   	pop    %rbp
    783a:	c3                   	retq   
    783b:	90                   	nop

000000000000783c <_ZNKSt8__detail10_AllocNodeISaINS_10_Hash_nodeISt4pairIKiNSt7__cxx1112basic_stringIcSt11char_traitsIcESaIcEEEELb0EEEEEclIRKSA_EEPSB_OT_>:
    783c:	55                   	push   %rbp
    783d:	48 89 e5             	mov    %rsp,%rbp
    7840:	53                   	push   %rbx
    7841:	48 83 ec 18          	sub    $0x18,%rsp
    7845:	48 89 7d e8          	mov    %rdi,-0x18(%rbp)
    7849:	48 89 75 e0          	mov    %rsi,-0x20(%rbp)
    784d:	48 8b 45 e8          	mov    -0x18(%rbp),%rax
    7851:	48 8b 18             	mov    (%rax),%rbx
    7854:	48 8b 45 e0          	mov    -0x20(%rbp),%rax
    7858:	48 89 c7             	mov    %rax,%rdi
    785b:	e8 08 f1 ff ff       	callq  6968 <_ZSt7forwardIRKSt4pairIKiNSt7__cxx1112basic_stringIcSt11char_traitsIcESaIcEEEEEOT_RNSt16remove_referenceISB_E4typeE>
    7860:	48 89 c6             	mov    %rax,%rsi
    7863:	48 89 df             	mov    %rbx,%rdi
    7866:	e8 e5 0e 00 00       	callq  8750 <_ZNSt8__detail16_Hashtable_allocISaINS_10_Hash_nodeISt4pairIKiNSt7__cxx1112basic_stringIcSt11char_traitsIcESaIcEEEELb0EEEEE16_M_allocate_nodeIJRKSA_EEEPSB_DpOT_>
    786b:	48 83 c4 18          	add    $0x18,%rsp
    786f:	5b                   	pop    %rbx
    7870:	5d                   	pop    %rbp
    7871:	c3                   	retq   

0000000000007872 <_ZSt7forwardIRSt4pairIKiNSt7__cxx1112basic_stringIcSt11char_traitsIcESaIcEEEEEOT_RNSt16remove_referenceISA_E4typeE>:
    7872:	55                   	push   %rbp
    7873:	48 89 e5             	mov    %rsp,%rbp
    7876:	48 89 7d f8          	mov    %rdi,-0x8(%rbp)
    787a:	48 8b 45 f8          	mov    -0x8(%rbp),%rax
    787e:	5d                   	pop    %rbp
    787f:	c3                   	retq   

0000000000007880 <_ZNSt10_HashtableIiSt4pairIKiNSt7__cxx1112basic_stringIcSt11char_traitsIcESaIcEEEESaIS8_ENSt8__detail10_Select1stESt8equal_toIiESt4hashIiENSA_18_Mod_range_hashingENSA_20_Default_ranged_hashENSA_20_Prime_rehash_policyENSA_17_Hashtable_traitsILb0ELb0ELb1EEEE21_M_insert_unique_nodeEmmPNSA_10_Hash_nodeIS8_Lb0EEE>:
    7880:	55                   	push   %rbp
    7881:	48 89 e5             	mov    %rsp,%rbp
    7884:	53                   	push   %rbx
    7885:	48 83 ec 68          	sub    $0x68,%rsp
    7889:	48 89 7d a8          	mov    %rdi,-0x58(%rbp)
    788d:	48 89 75 a0          	mov    %rsi,-0x60(%rbp)
    7891:	48 89 55 98          	mov    %rdx,-0x68(%rbp)
    7895:	48 89 4d 90          	mov    %rcx,-0x70(%rbp)
    7899:	64 48 8b 04 25 28 00 	mov    %fs:0x28,%rax
    78a0:	00 00 
    78a2:	48 89 45 e8          	mov    %rax,-0x18(%rbp)
    78a6:	31 c0                	xor    %eax,%eax
    78a8:	48 8b 45 a8          	mov    -0x58(%rbp),%rax
    78ac:	48 83 c0 20          	add    $0x20,%rax
    78b0:	48 89 c7             	mov    %rax,%rdi
    78b3:	e8 e8 b6 ff ff       	callq  2fa0 <_ZNKSt8__detail20_Prime_rehash_policy8_M_stateEv>
    78b8:	48 89 45 c0          	mov    %rax,-0x40(%rbp)
    78bc:	48 8d 45 c0          	lea    -0x40(%rbp),%rax
    78c0:	48 89 45 c8          	mov    %rax,-0x38(%rbp)
    78c4:	48 8b 45 a8          	mov    -0x58(%rbp),%rax
    78c8:	48 8d 78 20          	lea    0x20(%rax),%rdi
    78cc:	48 8b 45 a8          	mov    -0x58(%rbp),%rax
    78d0:	48 8b 50 18          	mov    0x18(%rax),%rdx
    78d4:	48 8b 45 a8          	mov    -0x58(%rbp),%rax
    78d8:	48 8b 40 08          	mov    0x8(%rax),%rax
    78dc:	b9 01 00 00 00       	mov    $0x1,%ecx
    78e1:	48 89 c6             	mov    %rax,%rsi
    78e4:	e8 a7 9c ff ff       	callq  1590 <_ZNKSt8__detail20_Prime_rehash_policy14_M_need_rehashEmmm@plt>
    78e9:	89 c1                	mov    %eax,%ecx
    78eb:	48 89 d0             	mov    %rdx,%rax
    78ee:	89 4d d0             	mov    %ecx,-0x30(%rbp)
    78f1:	48 89 45 d8          	mov    %rax,-0x28(%rbp)
    78f5:	0f b6 45 d0          	movzbl -0x30(%rbp),%eax
    78f9:	84 c0                	test   %al,%al
    78fb:	74 57                	je     7954 <_ZNSt10_HashtableIiSt4pairIKiNSt7__cxx1112basic_stringIcSt11char_traitsIcESaIcEEEESaIS8_ENSt8__detail10_Select1stESt8equal_toIiESt4hashIiENSA_18_Mod_range_hashingENSA_20_Default_ranged_hashENSA_20_Prime_rehash_policyENSA_17_Hashtable_traitsILb0ELb0ELb1EEEE21_M_insert_unique_nodeEmmPNSA_10_Hash_nodeIS8_Lb0EEE+0xd4>
    78fd:	48 8b 4d d8          	mov    -0x28(%rbp),%rcx
    7901:	48 8b 55 c8          	mov    -0x38(%rbp),%rdx
    7905:	48 8b 45 a8          	mov    -0x58(%rbp),%rax
    7909:	48 89 ce             	mov    %rcx,%rsi
    790c:	48 89 c7             	mov    %rax,%rdi
    790f:	e8 7a 0f 00 00       	callq  888e <_ZNSt10_HashtableIiSt4pairIKiNSt7__cxx1112basic_stringIcSt11char_traitsIcESaIcEEEESaIS8_ENSt8__detail10_Select1stESt8equal_toIiESt4hashIiENSA_18_Mod_range_hashingENSA_20_Default_ranged_hashENSA_20_Prime_rehash_policyENSA_17_Hashtable_traitsILb0ELb0ELb1EEEE9_M_rehashEmRKm>
    7914:	48 8b 45 a8          	mov    -0x58(%rbp),%rax
    7918:	48 89 c7             	mov    %rax,%rdi
    791b:	e8 84 fd ff ff       	callq  76a4 <_ZNSt8__detail15_Hash_code_baseIiSt4pairIKiNSt7__cxx1112basic_stringIcSt11char_traitsIcESaIcEEEENS_10_Select1stESt4hashIiENS_18_Mod_range_hashingENS_20_Default_ranged_hashELb0EE10_M_extractEv>
    7920:	48 89 c3             	mov    %rax,%rbx
    7923:	48 8b 45 90          	mov    -0x70(%rbp),%rax
    7927:	48 89 c7             	mov    %rax,%rdi
    792a:	e8 f7 0f 00 00       	callq  8926 <_ZNSt8__detail21_Hash_node_value_baseISt4pairIKiNSt7__cxx1112basic_stringIcSt11char_traitsIcESaIcEEEEE4_M_vEv>
    792f:	48 89 c6             	mov    %rax,%rsi
    7932:	48 89 df             	mov    %rbx,%rdi
    7935:	e8 06 10 00 00       	callq  8940 <_ZNKSt8__detail10_Select1stclIRSt4pairIKiNSt7__cxx1112basic_stringIcSt11char_traitsIcESaIcEEEEEEDTcl3getILi0EEcl7forwardIT_Efp_EEEOSC_>
    793a:	48 89 c1             	mov    %rax,%rcx
    793d:	48 8b 55 98          	mov    -0x68(%rbp),%rdx
    7941:	48 8b 45 a8          	mov    -0x58(%rbp),%rax
    7945:	48 89 ce             	mov    %rcx,%rsi
    7948:	48 89 c7             	mov    %rax,%rdi
    794b:	e8 c6 fd ff ff       	callq  7716 <_ZNKSt10_HashtableIiSt4pairIKiNSt7__cxx1112basic_stringIcSt11char_traitsIcESaIcEEEESaIS8_ENSt8__detail10_Select1stESt8equal_toIiESt4hashIiENSA_18_Mod_range_hashingENSA_20_Default_ranged_hashENSA_20_Prime_rehash_policyENSA_17_Hashtable_traitsILb0ELb0ELb1EEEE15_M_bucket_indexERS1_m>
    7950:	48 89 45 a0          	mov    %rax,-0x60(%rbp)
    7954:	48 8b 55 98          	mov    -0x68(%rbp),%rdx
    7958:	48 8b 4d 90          	mov    -0x70(%rbp),%rcx
    795c:	48 8b 45 a8          	mov    -0x58(%rbp),%rax
    7960:	48 89 ce             	mov    %rcx,%rsi
    7963:	48 89 c7             	mov    %rax,%rdi
    7966:	e8 fb 0f 00 00       	callq  8966 <_ZNKSt8__detail15_Hash_code_baseIiSt4pairIKiNSt7__cxx1112basic_stringIcSt11char_traitsIcESaIcEEEENS_10_Select1stESt4hashIiENS_18_Mod_range_hashingENS_20_Default_ranged_hashELb0EE13_M_store_codeEPNS_10_Hash_nodeIS9_Lb0EEEm>
    796b:	48 8b 55 90          	mov    -0x70(%rbp),%rdx
    796f:	48 8b 4d a0          	mov    -0x60(%rbp),%rcx
    7973:	48 8b 45 a8          	mov    -0x58(%rbp),%rax
    7977:	48 89 ce             	mov    %rcx,%rsi
    797a:	48 89 c7             	mov    %rax,%rdi
    797d:	e8 f8 0f 00 00       	callq  897a <_ZNSt10_HashtableIiSt4pairIKiNSt7__cxx1112basic_stringIcSt11char_traitsIcESaIcEEEESaIS8_ENSt8__detail10_Select1stESt8equal_toIiESt4hashIiENSA_18_Mod_range_hashingENSA_20_Default_ranged_hashENSA_20_Prime_rehash_policyENSA_17_Hashtable_traitsILb0ELb0ELb1EEEE22_M_insert_bucket_beginEmPNSA_10_Hash_nodeIS8_Lb0EEE>
    7982:	48 8b 45 a8          	mov    -0x58(%rbp),%rax
    7986:	48 8b 40 18          	mov    0x18(%rax),%rax
    798a:	48 8d 50 01          	lea    0x1(%rax),%rdx
    798e:	48 8b 45 a8          	mov    -0x58(%rbp),%rax
    7992:	48 89 50 18          	mov    %rdx,0x18(%rax)
    7996:	48 8b 55 90          	mov    -0x70(%rbp),%rdx
    799a:	48 8d 45 b8          	lea    -0x48(%rbp),%rax
    799e:	48 89 d6             	mov    %rdx,%rsi
    79a1:	48 89 c7             	mov    %rax,%rdi
    79a4:	e8 eb fd ff ff       	callq  7794 <_ZNSt8__detail14_Node_iteratorISt4pairIKiNSt7__cxx1112basic_stringIcSt11char_traitsIcESaIcEEEELb0ELb0EEC1EPNS_10_Hash_nodeIS9_Lb0EEE>
    79a9:	48 8b 45 b8          	mov    -0x48(%rbp),%rax
    79ad:	48 8b 5d e8          	mov    -0x18(%rbp),%rbx
    79b1:	64 48 33 1c 25 28 00 	xor    %fs:0x28,%rbx
    79b8:	00 00 
    79ba:	74 3a                	je     79f6 <_ZNSt10_HashtableIiSt4pairIKiNSt7__cxx1112basic_stringIcSt11char_traitsIcESaIcEEEESaIS8_ENSt8__detail10_Select1stESt8equal_toIiESt4hashIiENSA_18_Mod_range_hashingENSA_20_Default_ranged_hashENSA_20_Prime_rehash_policyENSA_17_Hashtable_traitsILb0ELb0ELb1EEEE21_M_insert_unique_nodeEmmPNSA_10_Hash_nodeIS8_Lb0EEE+0x176>
    79bc:	eb 33                	jmp    79f1 <_ZNSt10_HashtableIiSt4pairIKiNSt7__cxx1112basic_stringIcSt11char_traitsIcESaIcEEEESaIS8_ENSt8__detail10_Select1stESt8equal_toIiESt4hashIiENSA_18_Mod_range_hashingENSA_20_Default_ranged_hashENSA_20_Prime_rehash_policyENSA_17_Hashtable_traitsILb0ELb0ELb1EEEE21_M_insert_unique_nodeEmmPNSA_10_Hash_nodeIS8_Lb0EEE+0x171>
    79be:	48 89 c7             	mov    %rax,%rdi
    79c1:	e8 aa 9a ff ff       	callq  1470 <__cxa_begin_catch@plt>
    79c6:	48 8b 55 90          	mov    -0x70(%rbp),%rdx
    79ca:	48 8b 45 a8          	mov    -0x58(%rbp),%rax
    79ce:	48 89 d6             	mov    %rdx,%rsi
    79d1:	48 89 c7             	mov    %rax,%rdi
    79d4:	e8 99 e2 ff ff       	callq  5c72 <_ZNSt8__detail16_Hashtable_allocISaINS_10_Hash_nodeISt4pairIKiNSt7__cxx1112basic_stringIcSt11char_traitsIcESaIcEEEELb0EEEEE18_M_deallocate_nodeEPSB_>
    79d9:	e8 d2 9b ff ff       	callq  15b0 <__cxa_rethrow@plt>
    79de:	48 89 c3             	mov    %rax,%rbx
    79e1:	e8 fa 9b ff ff       	callq  15e0 <__cxa_end_catch@plt>
    79e6:	48 89 d8             	mov    %rbx,%rax
    79e9:	48 89 c7             	mov    %rax,%rdi
    79ec:	e8 0f 9c ff ff       	callq  1600 <_Unwind_Resume@plt>
    79f1:	e8 6a 9b ff ff       	callq  1560 <__stack_chk_fail@plt>
    79f6:	48 83 c4 68          	add    $0x68,%rsp
    79fa:	5b                   	pop    %rbx
    79fb:	5d                   	pop    %rbp
    79fc:	c3                   	retq   

00000000000079fd <_ZSt9addressofINSt8__detail10_Hash_nodeISt4pairIKiNSt7__cxx1112basic_stringIcSt11char_traitsIcESaIcEEEELb0EEEEPT_RSC_>:
    79fd:	55                   	push   %rbp
    79fe:	48 89 e5             	mov    %rsp,%rbp
    7a01:	48 83 ec 10          	sub    $0x10,%rsp
    7a05:	48 89 7d f8          	mov    %rdi,-0x8(%rbp)
    7a09:	48 8b 45 f8          	mov    -0x8(%rbp),%rax
    7a0d:	48 89 c7             	mov    %rax,%rdi
    7a10:	e8 51 10 00 00       	callq  8a66 <_ZSt11__addressofINSt8__detail10_Hash_nodeISt4pairIKiNSt7__cxx1112basic_stringIcSt11char_traitsIcESaIcEEEELb0EEEEPT_RSC_>
    7a15:	c9                   	leaveq 
    7a16:	c3                   	retq   

0000000000007a17 <_ZNSt8__detail21_Hashtable_ebo_helperILi0ESaINS_10_Hash_nodeISt4pairIKiNSt7__cxx1112basic_stringIcSt11char_traitsIcESaIcEEEELb0EEEELb1EE6_S_getERSD_>:
    7a17:	55                   	push   %rbp
    7a18:	48 89 e5             	mov    %rsp,%rbp
    7a1b:	48 89 7d f8          	mov    %rdi,-0x8(%rbp)
    7a1f:	48 8b 45 f8          	mov    -0x8(%rbp),%rax
    7a23:	5d                   	pop    %rbp
    7a24:	c3                   	retq   
    7a25:	90                   	nop

0000000000007a26 <_ZN9__gnu_cxx16__aligned_bufferISt4pairIKiNSt7__cxx1112basic_stringIcSt11char_traitsIcESaIcEEEEE6_M_ptrEv>:
    7a26:	55                   	push   %rbp
    7a27:	48 89 e5             	mov    %rsp,%rbp
    7a2a:	48 83 ec 10          	sub    $0x10,%rsp
    7a2e:	48 89 7d f8          	mov    %rdi,-0x8(%rbp)
    7a32:	48 8b 45 f8          	mov    -0x8(%rbp),%rax
    7a36:	48 89 c7             	mov    %rax,%rdi
    7a39:	e8 36 10 00 00       	callq  8a74 <_ZN9__gnu_cxx16__aligned_bufferISt4pairIKiNSt7__cxx1112basic_stringIcSt11char_traitsIcESaIcEEEEE7_M_addrEv>
    7a3e:	c9                   	leaveq 
    7a3f:	c3                   	retq   

0000000000007a40 <_ZN9__gnu_cxx13new_allocatorISt4pairIKiNSt7__cxx1112basic_stringIcSt11char_traitsIcESaIcEEEEE7destroyIS9_EEvPT_>:
    7a40:	55                   	push   %rbp
    7a41:	48 89 e5             	mov    %rsp,%rbp
    7a44:	48 83 ec 10          	sub    $0x10,%rsp
    7a48:	48 89 7d f8          	mov    %rdi,-0x8(%rbp)
    7a4c:	48 89 75 f0          	mov    %rsi,-0x10(%rbp)
    7a50:	48 8b 45 f0          	mov    -0x10(%rbp),%rax
    7a54:	48 89 c7             	mov    %rax,%rdi
    7a57:	e8 ca b5 ff ff       	callq  3026 <_ZNSt4pairIKiNSt7__cxx1112basic_stringIcSt11char_traitsIcESaIcEEEED1Ev>
    7a5c:	90                   	nop
    7a5d:	c9                   	leaveq 
    7a5e:	c3                   	retq   
    7a5f:	90                   	nop

0000000000007a60 <_ZN9__gnu_cxx13new_allocatorINSt8__detail10_Hash_nodeISt4pairIKiNSt7__cxx1112basic_stringIcSt11char_traitsIcESaIcEEEELb0EEEE10deallocateEPSC_m>:
    7a60:	55                   	push   %rbp
    7a61:	48 89 e5             	mov    %rsp,%rbp
    7a64:	48 83 ec 20          	sub    $0x20,%rsp
    7a68:	48 89 7d f8          	mov    %rdi,-0x8(%rbp)
    7a6c:	48 89 75 f0          	mov    %rsi,-0x10(%rbp)
    7a70:	48 89 55 e8          	mov    %rdx,-0x18(%rbp)
    7a74:	48 8b 45 f0          	mov    -0x10(%rbp),%rax
    7a78:	48 89 c7             	mov    %rax,%rdi
    7a7b:	e8 90 9a ff ff       	callq  1510 <_ZdlPv@plt>
    7a80:	90                   	nop
    7a81:	c9                   	leaveq 
    7a82:	c3                   	retq   
    7a83:	90                   	nop

0000000000007a84 <_ZN9__gnu_cxx13new_allocatorINSt8__detail10_Hash_nodeISt4pairIKNSt7__cxx1112basic_stringIcSt11char_traitsIcESaIcEEEmELb1EEEEC1Ev>:
    7a84:	55                   	push   %rbp
    7a85:	48 89 e5             	mov    %rsp,%rbp
    7a88:	48 89 7d f8          	mov    %rdi,-0x8(%rbp)
    7a8c:	90                   	nop
    7a8d:	5d                   	pop    %rbp
    7a8e:	c3                   	retq   
    7a8f:	90                   	nop

0000000000007a90 <_ZNSt8__detail15_Hash_code_baseINSt7__cxx1112basic_stringIcSt11char_traitsIcESaIcEEESt4pairIKS6_mENS_10_Select1stESt4hashIS6_ENS_18_Mod_range_hashingENS_20_Default_ranged_hashELb1EEC1ERKSA_RKSC_RKSD_RKSE_>:
    7a90:	55                   	push   %rbp
    7a91:	48 89 e5             	mov    %rsp,%rbp
    7a94:	48 83 ec 30          	sub    $0x30,%rsp
    7a98:	48 89 7d f8          	mov    %rdi,-0x8(%rbp)
    7a9c:	48 89 75 f0          	mov    %rsi,-0x10(%rbp)
    7aa0:	48 89 55 e8          	mov    %rdx,-0x18(%rbp)
    7aa4:	48 89 4d e0          	mov    %rcx,-0x20(%rbp)
    7aa8:	4c 89 45 d8          	mov    %r8,-0x28(%rbp)
    7aac:	48 8b 55 f0          	mov    -0x10(%rbp),%rdx
    7ab0:	48 8b 45 f8          	mov    -0x8(%rbp),%rax
    7ab4:	48 89 d6             	mov    %rdx,%rsi
    7ab7:	48 89 c7             	mov    %rax,%rdi
    7aba:	e8 51 05 00 00       	callq  8010 <_ZNSt8__detail21_Hashtable_ebo_helperILi0ENS_10_Select1stELb1EEC1IRKS1_EEOT_>
    7abf:	48 8b 55 e8          	mov    -0x18(%rbp),%rdx
    7ac3:	48 8b 45 f8          	mov    -0x8(%rbp),%rax
    7ac7:	48 89 d6             	mov    %rdx,%rsi
    7aca:	48 89 c7             	mov    %rax,%rdi
    7acd:	e8 be 0f 00 00       	callq  8a90 <_ZNSt8__detail21_Hashtable_ebo_helperILi1ESt4hashINSt7__cxx1112basic_stringIcSt11char_traitsIcESaIcEEEELb1EEC1IRKS8_EEOT_>
    7ad2:	48 8b 55 e0          	mov    -0x20(%rbp),%rdx
    7ad6:	48 8b 45 f8          	mov    -0x8(%rbp),%rax
    7ada:	48 89 d6             	mov    %rdx,%rsi
    7add:	48 89 c7             	mov    %rax,%rdi
    7ae0:	e8 87 05 00 00       	callq  806c <_ZNSt8__detail21_Hashtable_ebo_helperILi2ENS_18_Mod_range_hashingELb1EEC1IRKS1_EEOT_>
    7ae5:	90                   	nop
    7ae6:	c9                   	leaveq 
    7ae7:	c3                   	retq   

0000000000007ae8 <_ZSt7forwardIRKSt8equal_toINSt7__cxx1112basic_stringIcSt11char_traitsIcESaIcEEEEEOT_RNSt16remove_referenceISA_E4typeE>:
    7ae8:	55                   	push   %rbp
    7ae9:	48 89 e5             	mov    %rsp,%rbp
    7aec:	48 89 7d f8          	mov    %rdi,-0x8(%rbp)
    7af0:	48 8b 45 f8          	mov    -0x8(%rbp),%rax
    7af4:	5d                   	pop    %rbp
    7af5:	c3                   	retq   

0000000000007af6 <_ZNSt8__detail21_Hashtable_ebo_helperILi0ESt8equal_toINSt7__cxx1112basic_stringIcSt11char_traitsIcESaIcEEEELb1EEC1IRKS8_EEOT_>:
    7af6:	55                   	push   %rbp
    7af7:	48 89 e5             	mov    %rsp,%rbp
    7afa:	48 83 ec 10          	sub    $0x10,%rsp
    7afe:	48 89 7d f8          	mov    %rdi,-0x8(%rbp)
    7b02:	48 89 75 f0          	mov    %rsi,-0x10(%rbp)
    7b06:	48 8b 45 f0          	mov    -0x10(%rbp),%rax
    7b0a:	48 89 c7             	mov    %rax,%rdi
    7b0d:	e8 d6 ff ff ff       	callq  7ae8 <_ZSt7forwardIRKSt8equal_toINSt7__cxx1112basic_stringIcSt11char_traitsIcESaIcEEEEEOT_RNSt16remove_referenceISA_E4typeE>
    7b12:	90                   	nop
    7b13:	c9                   	leaveq 
    7b14:	c3                   	retq   
    7b15:	90                   	nop

0000000000007b16 <_ZNSt8__detail21_Hashtable_ebo_helperILi0ESaINS_10_Hash_nodeISt4pairIKNSt7__cxx1112basic_stringIcSt11char_traitsIcESaIcEEEmELb1EEEELb1EEC1ISC_EEOT_>:
    7b16:	55                   	push   %rbp
    7b17:	48 89 e5             	mov    %rsp,%rbp
    7b1a:	48 83 ec 10          	sub    $0x10,%rsp
    7b1e:	48 89 7d f8          	mov    %rdi,-0x8(%rbp)
    7b22:	48 89 75 f0          	mov    %rsi,-0x10(%rbp)
    7b26:	48 8b 45 f0          	mov    -0x10(%rbp),%rax
    7b2a:	48 89 c7             	mov    %rax,%rdi
    7b2d:	e8 d1 f0 ff ff       	callq  6c03 <_ZSt7forwardISaINSt8__detail10_Hash_nodeISt4pairIKNSt7__cxx1112basic_stringIcSt11char_traitsIcESaIcEEEmELb1EEEEEOT_RNSt16remove_referenceISD_E4typeE>
    7b32:	48 89 c2             	mov    %rax,%rdx
    7b35:	48 8b 45 f8          	mov    -0x8(%rbp),%rax
    7b39:	48 89 d6             	mov    %rdx,%rsi
    7b3c:	48 89 c7             	mov    %rax,%rdi
    7b3f:	e8 6c 0f 00 00       	callq  8ab0 <_ZNSaINSt8__detail10_Hash_nodeISt4pairIKNSt7__cxx1112basic_stringIcSt11char_traitsIcESaIcEEEmELb1EEEEC1ERKSB_>
    7b44:	90                   	nop
    7b45:	c9                   	leaveq 
    7b46:	c3                   	retq   

0000000000007b47 <_ZSt19__iterator_categoryIPKSt4pairIKNSt7__cxx1112basic_stringIcSt11char_traitsIcESaIcEEEmEENSt15iterator_traitsIT_E17iterator_categoryERKSC_>:
    7b47:	55                   	push   %rbp
    7b48:	48 89 e5             	mov    %rsp,%rbp
    7b4b:	48 89 7d f8          	mov    %rdi,-0x8(%rbp)
    7b4f:	5d                   	pop    %rbp
    7b50:	c3                   	retq   

0000000000007b51 <_ZSt8distanceIPKSt4pairIKNSt7__cxx1112basic_stringIcSt11char_traitsIcESaIcEEEmEENSt15iterator_traitsIT_E15difference_typeESC_SC_>:
    7b51:	55                   	push   %rbp
    7b52:	48 89 e5             	mov    %rsp,%rbp
    7b55:	53                   	push   %rbx
    7b56:	48 83 ec 28          	sub    $0x28,%rsp
    7b5a:	48 89 7d d8          	mov    %rdi,-0x28(%rbp)
    7b5e:	48 89 75 d0          	mov    %rsi,-0x30(%rbp)
    7b62:	64 48 8b 04 25 28 00 	mov    %fs:0x28,%rax
    7b69:	00 00 
    7b6b:	48 89 45 e8          	mov    %rax,-0x18(%rbp)
    7b6f:	31 c0                	xor    %eax,%eax
    7b71:	48 8d 45 d8          	lea    -0x28(%rbp),%rax
    7b75:	48 89 c7             	mov    %rax,%rdi
    7b78:	e8 ca ff ff ff       	callq  7b47 <_ZSt19__iterator_categoryIPKSt4pairIKNSt7__cxx1112basic_stringIcSt11char_traitsIcESaIcEEEmEENSt15iterator_traitsIT_E17iterator_categoryERKSC_>
    7b7d:	48 8b 45 d8          	mov    -0x28(%rbp),%rax
    7b81:	48 8b 55 d0          	mov    -0x30(%rbp),%rdx
    7b85:	48 83 ec 08          	sub    $0x8,%rsp
    7b89:	53                   	push   %rbx
    7b8a:	48 89 d6             	mov    %rdx,%rsi
    7b8d:	48 89 c7             	mov    %rax,%rdi
    7b90:	e8 41 0f 00 00       	callq  8ad6 <_ZSt10__distanceIPKSt4pairIKNSt7__cxx1112basic_stringIcSt11char_traitsIcESaIcEEEmEENSt15iterator_traitsIT_E15difference_typeESC_SC_St26random_access_iterator_tag>
    7b95:	48 83 c4 10          	add    $0x10,%rsp
    7b99:	48 8b 4d e8          	mov    -0x18(%rbp),%rcx
    7b9d:	64 48 33 0c 25 28 00 	xor    %fs:0x28,%rcx
    7ba4:	00 00 
    7ba6:	74 05                	je     7bad <_ZSt8distanceIPKSt4pairIKNSt7__cxx1112basic_stringIcSt11char_traitsIcESaIcEEEmEENSt15iterator_traitsIT_E15difference_typeESC_SC_+0x5c>
    7ba8:	e8 b3 99 ff ff       	callq  1560 <__stack_chk_fail@plt>
    7bad:	48 8b 5d f8          	mov    -0x8(%rbp),%rbx
    7bb1:	c9                   	leaveq 
    7bb2:	c3                   	retq   
    7bb3:	90                   	nop

0000000000007bb4 <_ZNSt8__detail15_Hash_code_baseINSt7__cxx1112basic_stringIcSt11char_traitsIcESaIcEEESt4pairIKS6_mENS_10_Select1stESt4hashIS6_ENS_18_Mod_range_hashingENS_20_Default_ranged_hashELb1EE10_M_extractEv>:
    7bb4:	55                   	push   %rbp
    7bb5:	48 89 e5             	mov    %rsp,%rbp
    7bb8:	48 83 ec 10          	sub    $0x10,%rsp
    7bbc:	48 89 7d f8          	mov    %rdi,-0x8(%rbp)
    7bc0:	48 8b 45 f8          	mov    -0x8(%rbp),%rax
    7bc4:	48 89 c7             	mov    %rax,%rdi
    7bc7:	e8 5a 05 00 00       	callq  8126 <_ZNSt8__detail21_Hashtable_ebo_helperILi0ENS_10_Select1stELb1EE6_S_getERS2_>
    7bcc:	c9                   	leaveq 
    7bcd:	c3                   	retq   

0000000000007bce <_ZNKSt8__detail10_Select1stclIRKSt4pairIKNSt7__cxx1112basic_stringIcSt11char_traitsIcESaIcEEEmEEEDTcl3getILi0EEcl7forwardIT_Efp_EEEOSD_>:
    7bce:	55                   	push   %rbp
    7bcf:	48 89 e5             	mov    %rsp,%rbp
    7bd2:	48 83 ec 10          	sub    $0x10,%rsp
    7bd6:	48 89 7d f8          	mov    %rdi,-0x8(%rbp)
    7bda:	48 89 75 f0          	mov    %rsi,-0x10(%rbp)
    7bde:	48 8b 45 f0          	mov    -0x10(%rbp),%rax
    7be2:	48 89 c7             	mov    %rax,%rdi
    7be5:	e8 72 f1 ff ff       	callq  6d5c <_ZSt7forwardIRKSt4pairIKNSt7__cxx1112basic_stringIcSt11char_traitsIcESaIcEEEmEEOT_RNSt16remove_referenceISB_E4typeE>
    7bea:	48 89 c7             	mov    %rax,%rdi
    7bed:	e8 15 0f 00 00       	callq  8b07 <_ZSt3getILm0EKNSt7__cxx1112basic_stringIcSt11char_traitsIcESaIcEEEmERKNSt13tuple_elementIXT_ESt4pairIT0_T1_EE4typeERKSB_>
    7bf2:	c9                   	leaveq 
    7bf3:	c3                   	retq   

0000000000007bf4 <_ZNKSt8__detail15_Hash_code_baseINSt7__cxx1112basic_stringIcSt11char_traitsIcESaIcEEESt4pairIKS6_mENS_10_Select1stESt4hashIS6_ENS_18_Mod_range_hashingENS_20_Default_ranged_hashELb1EE12_M_hash_codeERS8_>:
    7bf4:	55                   	push   %rbp
    7bf5:	48 89 e5             	mov    %rsp,%rbp
    7bf8:	48 83 ec 10          	sub    $0x10,%rsp
    7bfc:	48 89 7d f8          	mov    %rdi,-0x8(%rbp)
    7c00:	48 89 75 f0          	mov    %rsi,-0x10(%rbp)
    7c04:	48 8b 45 f8          	mov    -0x8(%rbp),%rax
    7c08:	48 89 c7             	mov    %rax,%rdi
    7c0b:	e8 12 0f 00 00       	callq  8b22 <_ZNKSt8__detail15_Hash_code_baseINSt7__cxx1112basic_stringIcSt11char_traitsIcESaIcEEESt4pairIKS6_mENS_10_Select1stESt4hashIS6_ENS_18_Mod_range_hashingENS_20_Default_ranged_hashELb1EE5_M_h1Ev>
    7c10:	48 89 c2             	mov    %rax,%rdx
    7c13:	48 8b 45 f0          	mov    -0x10(%rbp),%rax
    7c17:	48 89 c6             	mov    %rax,%rsi
    7c1a:	48 89 d7             	mov    %rdx,%rdi
    7c1d:	e8 28 b2 ff ff       	callq  2e4a <_ZNKSt4hashINSt7__cxx1112basic_stringIcSt11char_traitsIcESaIcEEEEclERKS5_>
    7c22:	c9                   	leaveq 
    7c23:	c3                   	retq   

0000000000007c24 <_ZNKSt10_HashtableINSt7__cxx1112basic_stringIcSt11char_traitsIcESaIcEEESt4pairIKS5_mESaIS8_ENSt8__detail10_Select1stESt8equal_toIS5_ESt4hashIS5_ENSA_18_Mod_range_hashingENSA_20_Default_ranged_hashENSA_20_Prime_rehash_policyENSA_17_Hashtable_traitsILb1ELb0ELb1EEEE15_M_bucket_indexERS7_m>:
    7c24:	55                   	push   %rbp
    7c25:	48 89 e5             	mov    %rsp,%rbp
    7c28:	48 83 ec 20          	sub    $0x20,%rsp
    7c2c:	48 89 7d f8          	mov    %rdi,-0x8(%rbp)
    7c30:	48 89 75 f0          	mov    %rsi,-0x10(%rbp)
    7c34:	48 89 55 e8          	mov    %rdx,-0x18(%rbp)
    7c38:	48 8b 45 f8          	mov    -0x8(%rbp),%rax
    7c3c:	48 8b 48 08          	mov    0x8(%rax),%rcx
    7c40:	48 8b 55 e8          	mov    -0x18(%rbp),%rdx
    7c44:	48 8b 75 f0          	mov    -0x10(%rbp),%rsi
    7c48:	48 8b 45 f8          	mov    -0x8(%rbp),%rax
    7c4c:	48 89 c7             	mov    %rax,%rdi
    7c4f:	e8 e8 0e 00 00       	callq  8b3c <_ZNKSt8__detail15_Hash_code_baseINSt7__cxx1112basic_stringIcSt11char_traitsIcESaIcEEESt4pairIKS6_mENS_10_Select1stESt4hashIS6_ENS_18_Mod_range_hashingENS_20_Default_ranged_hashELb1EE15_M_bucket_indexERS8_mm>
    7c54:	c9                   	leaveq 
    7c55:	c3                   	retq   

0000000000007c56 <_ZNKSt10_HashtableINSt7__cxx1112basic_stringIcSt11char_traitsIcESaIcEEESt4pairIKS5_mESaIS8_ENSt8__detail10_Select1stESt8equal_toIS5_ESt4hashIS5_ENSA_18_Mod_range_hashingENSA_20_Default_ranged_hashENSA_20_Prime_rehash_policyENSA_17_Hashtable_traitsILb1ELb0ELb1EEEE12_M_find_nodeEmRS7_m>:
    7c56:	55                   	push   %rbp
    7c57:	48 89 e5             	mov    %rsp,%rbp
    7c5a:	48 83 ec 30          	sub    $0x30,%rsp
    7c5e:	48 89 7d e8          	mov    %rdi,-0x18(%rbp)
    7c62:	48 89 75 e0          	mov    %rsi,-0x20(%rbp)
    7c66:	48 89 55 d8          	mov    %rdx,-0x28(%rbp)
    7c6a:	48 89 4d d0          	mov    %rcx,-0x30(%rbp)
    7c6e:	48 8b 4d d0          	mov    -0x30(%rbp),%rcx
    7c72:	48 8b 55 d8          	mov    -0x28(%rbp),%rdx
    7c76:	48 8b 75 e0          	mov    -0x20(%rbp),%rsi
    7c7a:	48 8b 45 e8          	mov    -0x18(%rbp),%rax
    7c7e:	48 89 c7             	mov    %rax,%rdi
    7c81:	e8 f2 0e 00 00       	callq  8b78 <_ZNKSt10_HashtableINSt7__cxx1112basic_stringIcSt11char_traitsIcESaIcEEESt4pairIKS5_mESaIS8_ENSt8__detail10_Select1stESt8equal_toIS5_ESt4hashIS5_ENSA_18_Mod_range_hashingENSA_20_Default_ranged_hashENSA_20_Prime_rehash_policyENSA_17_Hashtable_traitsILb1ELb0ELb1EEEE19_M_find_before_nodeEmRS7_m>
    7c86:	48 89 45 f8          	mov    %rax,-0x8(%rbp)
    7c8a:	48 83 7d f8 00       	cmpq   $0x0,-0x8(%rbp)
    7c8f:	74 09                	je     7c9a <_ZNKSt10_HashtableINSt7__cxx1112basic_stringIcSt11char_traitsIcESaIcEEESt4pairIKS5_mESaIS8_ENSt8__detail10_Select1stESt8equal_toIS5_ESt4hashIS5_ENSA_18_Mod_range_hashingENSA_20_Default_ranged_hashENSA_20_Prime_rehash_policyENSA_17_Hashtable_traitsILb1ELb0ELb1EEEE12_M_find_nodeEmRS7_m+0x44>
    7c91:	48 8b 45 f8          	mov    -0x8(%rbp),%rax
    7c95:	48 8b 00             	mov    (%rax),%rax
    7c98:	eb 05                	jmp    7c9f <_ZNKSt10_HashtableINSt7__cxx1112basic_stringIcSt11char_traitsIcESaIcEEESt4pairIKS5_mESaIS8_ENSt8__detail10_Select1stESt8equal_toIS5_ESt4hashIS5_ENSA_18_Mod_range_hashingENSA_20_Default_ranged_hashENSA_20_Prime_rehash_policyENSA_17_Hashtable_traitsILb1ELb0ELb1EEEE12_M_find_nodeEmRS7_m+0x49>
    7c9a:	b8 00 00 00 00       	mov    $0x0,%eax
    7c9f:	c9                   	leaveq 
    7ca0:	c3                   	retq   

0000000000007ca1 <_ZSt7forwardINSt8__detail14_Node_iteratorISt4pairIKNSt7__cxx1112basic_stringIcSt11char_traitsIcESaIcEEEmELb0ELb1EEEEOT_RNSt16remove_referenceISC_E4typeE>:
    7ca1:	55                   	push   %rbp
    7ca2:	48 89 e5             	mov    %rsp,%rbp
    7ca5:	48 89 7d f8          	mov    %rdi,-0x8(%rbp)
    7ca9:	48 8b 45 f8          	mov    -0x8(%rbp),%rax
    7cad:	5d                   	pop    %rbp
    7cae:	c3                   	retq   

0000000000007caf <_ZSt9make_pairINSt8__detail14_Node_iteratorISt4pairIKNSt7__cxx1112basic_stringIcSt11char_traitsIcESaIcEEEmELb0ELb1EEEbES2_INSt17__decay_and_stripIT_E6__typeENSC_IT0_E6__typeEEOSD_OSG_>:
    7caf:	55                   	push   %rbp
    7cb0:	48 89 e5             	mov    %rsp,%rbp
    7cb3:	53                   	push   %rbx
    7cb4:	48 83 ec 38          	sub    $0x38,%rsp
    7cb8:	48 89 7d c8          	mov    %rdi,-0x38(%rbp)
    7cbc:	48 89 75 c0          	mov    %rsi,-0x40(%rbp)
    7cc0:	64 48 8b 04 25 28 00 	mov    %fs:0x28,%rax
    7cc7:	00 00 
    7cc9:	48 89 45 e8          	mov    %rax,-0x18(%rbp)
    7ccd:	31 c0                	xor    %eax,%eax
    7ccf:	48 8b 45 c0          	mov    -0x40(%rbp),%rax
    7cd3:	48 89 c7             	mov    %rax,%rdi
    7cd6:	e8 f2 b2 ff ff       	callq  2fcd <_ZSt7forwardIbEOT_RNSt16remove_referenceIS0_E4typeE>
    7cdb:	48 89 c3             	mov    %rax,%rbx
    7cde:	48 8b 45 c8          	mov    -0x38(%rbp),%rax
    7ce2:	48 89 c7             	mov    %rax,%rdi
    7ce5:	e8 b7 ff ff ff       	callq  7ca1 <_ZSt7forwardINSt8__detail14_Node_iteratorISt4pairIKNSt7__cxx1112basic_stringIcSt11char_traitsIcESaIcEEEmELb0ELb1EEEEOT_RNSt16remove_referenceISC_E4typeE>
    7cea:	48 89 c1             	mov    %rax,%rcx
    7ced:	48 8d 45 d0          	lea    -0x30(%rbp),%rax
    7cf1:	48 89 da             	mov    %rbx,%rdx
    7cf4:	48 89 ce             	mov    %rcx,%rsi
    7cf7:	48 89 c7             	mov    %rax,%rdi
    7cfa:	e8 4b 0f 00 00       	callq  8c4a <_ZNSt4pairINSt8__detail14_Node_iteratorIS_IKNSt7__cxx1112basic_stringIcSt11char_traitsIcESaIcEEEmELb0ELb1EEEbEC1ISA_bLb1EEEOT_OT0_>
    7cff:	48 8b 45 d0          	mov    -0x30(%rbp),%rax
    7d03:	48 8b 55 d8          	mov    -0x28(%rbp),%rdx
    7d07:	48 8b 4d e8          	mov    -0x18(%rbp),%rcx
    7d0b:	64 48 33 0c 25 28 00 	xor    %fs:0x28,%rcx
    7d12:	00 00 
    7d14:	74 05                	je     7d1b <_ZSt9make_pairINSt8__detail14_Node_iteratorISt4pairIKNSt7__cxx1112basic_stringIcSt11char_traitsIcESaIcEEEmELb0ELb1EEEbES2_INSt17__decay_and_stripIT_E6__typeENSC_IT0_E6__typeEEOSD_OSG_+0x6c>
    7d16:	e8 45 98 ff ff       	callq  1560 <__stack_chk_fail@plt>
    7d1b:	48 83 c4 38          	add    $0x38,%rsp
    7d1f:	5b                   	pop    %rbx
    7d20:	5d                   	pop    %rbp
    7d21:	c3                   	retq   

0000000000007d22 <_ZNKSt8__detail10_AllocNodeISaINS_10_Hash_nodeISt4pairIKNSt7__cxx1112basic_stringIcSt11char_traitsIcESaIcEEEmELb1EEEEEclIRKSA_EEPSB_OT_>:
    7d22:	55                   	push   %rbp
    7d23:	48 89 e5             	mov    %rsp,%rbp
    7d26:	53                   	push   %rbx
    7d27:	48 83 ec 18          	sub    $0x18,%rsp
    7d2b:	48 89 7d e8          	mov    %rdi,-0x18(%rbp)
    7d2f:	48 89 75 e0          	mov    %rsi,-0x20(%rbp)
    7d33:	48 8b 45 e8          	mov    -0x18(%rbp),%rax
    7d37:	48 8b 18             	mov    (%rax),%rbx
    7d3a:	48 8b 45 e0          	mov    -0x20(%rbp),%rax
    7d3e:	48 89 c7             	mov    %rax,%rdi
    7d41:	e8 16 f0 ff ff       	callq  6d5c <_ZSt7forwardIRKSt4pairIKNSt7__cxx1112basic_stringIcSt11char_traitsIcESaIcEEEmEEOT_RNSt16remove_referenceISB_E4typeE>
    7d46:	48 89 c6             	mov    %rax,%rsi
    7d49:	48 89 df             	mov    %rbx,%rdi
    7d4c:	e8 77 0f 00 00       	callq  8cc8 <_ZNSt8__detail16_Hashtable_allocISaINS_10_Hash_nodeISt4pairIKNSt7__cxx1112basic_stringIcSt11char_traitsIcESaIcEEEmELb1EEEEE16_M_allocate_nodeIJRKSA_EEEPSB_DpOT_>
    7d51:	48 83 c4 18          	add    $0x18,%rsp
    7d55:	5b                   	pop    %rbx
    7d56:	5d                   	pop    %rbp
    7d57:	c3                   	retq   

0000000000007d58 <_ZSt7forwardIRSt4pairIKNSt7__cxx1112basic_stringIcSt11char_traitsIcESaIcEEEmEEOT_RNSt16remove_referenceISA_E4typeE>:
    7d58:	55                   	push   %rbp
    7d59:	48 89 e5             	mov    %rsp,%rbp
    7d5c:	48 89 7d f8          	mov    %rdi,-0x8(%rbp)
    7d60:	48 8b 45 f8          	mov    -0x8(%rbp),%rax
    7d64:	5d                   	pop    %rbp
    7d65:	c3                   	retq   

0000000000007d66 <_ZNSt10_HashtableINSt7__cxx1112basic_stringIcSt11char_traitsIcESaIcEEESt4pairIKS5_mESaIS8_ENSt8__detail10_Select1stESt8equal_toIS5_ESt4hashIS5_ENSA_18_Mod_range_hashingENSA_20_Default_ranged_hashENSA_20_Prime_rehash_policyENSA_17_Hashtable_traitsILb1ELb0ELb1EEEE21_M_insert_unique_nodeEmmPNSA_10_Hash_nodeIS8_Lb1EEE>:
    7d66:	55                   	push   %rbp
    7d67:	48 89 e5             	mov    %rsp,%rbp
    7d6a:	53                   	push   %rbx
    7d6b:	48 83 ec 68          	sub    $0x68,%rsp
    7d6f:	48 89 7d a8          	mov    %rdi,-0x58(%rbp)
    7d73:	48 89 75 a0          	mov    %rsi,-0x60(%rbp)
    7d77:	48 89 55 98          	mov    %rdx,-0x68(%rbp)
    7d7b:	48 89 4d 90          	mov    %rcx,-0x70(%rbp)
    7d7f:	64 48 8b 04 25 28 00 	mov    %fs:0x28,%rax
    7d86:	00 00 
    7d88:	48 89 45 e8          	mov    %rax,-0x18(%rbp)
    7d8c:	31 c0                	xor    %eax,%eax
    7d8e:	48 8b 45 a8          	mov    -0x58(%rbp),%rax
    7d92:	48 83 c0 20          	add    $0x20,%rax
    7d96:	48 89 c7             	mov    %rax,%rdi
    7d99:	e8 02 b2 ff ff       	callq  2fa0 <_ZNKSt8__detail20_Prime_rehash_policy8_M_stateEv>
    7d9e:	48 89 45 c0          	mov    %rax,-0x40(%rbp)
    7da2:	48 8d 45 c0          	lea    -0x40(%rbp),%rax
    7da6:	48 89 45 c8          	mov    %rax,-0x38(%rbp)
    7daa:	48 8b 45 a8          	mov    -0x58(%rbp),%rax
    7dae:	48 8d 78 20          	lea    0x20(%rax),%rdi
    7db2:	48 8b 45 a8          	mov    -0x58(%rbp),%rax
    7db6:	48 8b 50 18          	mov    0x18(%rax),%rdx
    7dba:	48 8b 45 a8          	mov    -0x58(%rbp),%rax
    7dbe:	48 8b 40 08          	mov    0x8(%rax),%rax
    7dc2:	b9 01 00 00 00       	mov    $0x1,%ecx
    7dc7:	48 89 c6             	mov    %rax,%rsi
    7dca:	e8 c1 97 ff ff       	callq  1590 <_ZNKSt8__detail20_Prime_rehash_policy14_M_need_rehashEmmm@plt>
    7dcf:	89 c1                	mov    %eax,%ecx
    7dd1:	48 89 d0             	mov    %rdx,%rax
    7dd4:	89 4d d0             	mov    %ecx,-0x30(%rbp)
    7dd7:	48 89 45 d8          	mov    %rax,-0x28(%rbp)
    7ddb:	0f b6 45 d0          	movzbl -0x30(%rbp),%eax
    7ddf:	84 c0                	test   %al,%al
    7de1:	74 57                	je     7e3a <_ZNSt10_HashtableINSt7__cxx1112basic_stringIcSt11char_traitsIcESaIcEEESt4pairIKS5_mESaIS8_ENSt8__detail10_Select1stESt8equal_toIS5_ESt4hashIS5_ENSA_18_Mod_range_hashingENSA_20_Default_ranged_hashENSA_20_Prime_rehash_policyENSA_17_Hashtable_traitsILb1ELb0ELb1EEEE21_M_insert_unique_nodeEmmPNSA_10_Hash_nodeIS8_Lb1EEE+0xd4>
    7de3:	48 8b 4d d8          	mov    -0x28(%rbp),%rcx
    7de7:	48 8b 55 c8          	mov    -0x38(%rbp),%rdx
    7deb:	48 8b 45 a8          	mov    -0x58(%rbp),%rax
    7def:	48 89 ce             	mov    %rcx,%rsi
    7df2:	48 89 c7             	mov    %rax,%rdi
    7df5:	e8 0c 10 00 00       	callq  8e06 <_ZNSt10_HashtableINSt7__cxx1112basic_stringIcSt11char_traitsIcESaIcEEESt4pairIKS5_mESaIS8_ENSt8__detail10_Select1stESt8equal_toIS5_ESt4hashIS5_ENSA_18_Mod_range_hashingENSA_20_Default_ranged_hashENSA_20_Prime_rehash_policyENSA_17_Hashtable_traitsILb1ELb0ELb1EEEE9_M_rehashEmRKm>
    7dfa:	48 8b 45 a8          	mov    -0x58(%rbp),%rax
    7dfe:	48 89 c7             	mov    %rax,%rdi
    7e01:	e8 ae fd ff ff       	callq  7bb4 <_ZNSt8__detail15_Hash_code_baseINSt7__cxx1112basic_stringIcSt11char_traitsIcESaIcEEESt4pairIKS6_mENS_10_Select1stESt4hashIS6_ENS_18_Mod_range_hashingENS_20_Default_ranged_hashELb1EE10_M_extractEv>
    7e06:	48 89 c3             	mov    %rax,%rbx
    7e09:	48 8b 45 90          	mov    -0x70(%rbp),%rax
    7e0d:	48 89 c7             	mov    %rax,%rdi
    7e10:	e8 89 10 00 00       	callq  8e9e <_ZNSt8__detail21_Hash_node_value_baseISt4pairIKNSt7__cxx1112basic_stringIcSt11char_traitsIcESaIcEEEmEE4_M_vEv>
    7e15:	48 89 c6             	mov    %rax,%rsi
    7e18:	48 89 df             	mov    %rbx,%rdi
    7e1b:	e8 98 10 00 00       	callq  8eb8 <_ZNKSt8__detail10_Select1stclIRSt4pairIKNSt7__cxx1112basic_stringIcSt11char_traitsIcESaIcEEEmEEEDTcl3getILi0EEcl7forwardIT_Efp_EEEOSC_>
    7e20:	48 89 c1             	mov    %rax,%rcx
    7e23:	48 8b 55 98          	mov    -0x68(%rbp),%rdx
    7e27:	48 8b 45 a8          	mov    -0x58(%rbp),%rax
    7e2b:	48 89 ce             	mov    %rcx,%rsi
    7e2e:	48 89 c7             	mov    %rax,%rdi
    7e31:	e8 ee fd ff ff       	callq  7c24 <_ZNKSt10_HashtableINSt7__cxx1112basic_stringIcSt11char_traitsIcESaIcEEESt4pairIKS5_mESaIS8_ENSt8__detail10_Select1stESt8equal_toIS5_ESt4hashIS5_ENSA_18_Mod_range_hashingENSA_20_Default_ranged_hashENSA_20_Prime_rehash_policyENSA_17_Hashtable_traitsILb1ELb0ELb1EEEE15_M_bucket_indexERS7_m>
    7e36:	48 89 45 a0          	mov    %rax,-0x60(%rbp)
    7e3a:	48 8b 55 98          	mov    -0x68(%rbp),%rdx
    7e3e:	48 8b 4d 90          	mov    -0x70(%rbp),%rcx
    7e42:	48 8b 45 a8          	mov    -0x58(%rbp),%rax
    7e46:	48 89 ce             	mov    %rcx,%rsi
    7e49:	48 89 c7             	mov    %rax,%rdi
    7e4c:	e8 8d 10 00 00       	callq  8ede <_ZNKSt8__detail15_Hash_code_baseINSt7__cxx1112basic_stringIcSt11char_traitsIcESaIcEEESt4pairIKS6_mENS_10_Select1stESt4hashIS6_ENS_18_Mod_range_hashingENS_20_Default_ranged_hashELb1EE13_M_store_codeEPNS_10_Hash_nodeIS9_Lb1EEEm>
    7e51:	48 8b 55 90          	mov    -0x70(%rbp),%rdx
    7e55:	48 8b 4d a0          	mov    -0x60(%rbp),%rcx
    7e59:	48 8b 45 a8          	mov    -0x58(%rbp),%rax
    7e5d:	48 89 ce             	mov    %rcx,%rsi
    7e60:	48 89 c7             	mov    %rax,%rdi
    7e63:	e8 96 10 00 00       	callq  8efe <_ZNSt10_HashtableINSt7__cxx1112basic_stringIcSt11char_traitsIcESaIcEEESt4pairIKS5_mESaIS8_ENSt8__detail10_Select1stESt8equal_toIS5_ESt4hashIS5_ENSA_18_Mod_range_hashingENSA_20_Default_ranged_hashENSA_20_Prime_rehash_policyENSA_17_Hashtable_traitsILb1ELb0ELb1EEEE22_M_insert_bucket_beginEmPNSA_10_Hash_nodeIS8_Lb1EEE>
    7e68:	48 8b 45 a8          	mov    -0x58(%rbp),%rax
    7e6c:	48 8b 40 18          	mov    0x18(%rax),%rax
    7e70:	48 8d 50 01          	lea    0x1(%rax),%rdx
    7e74:	48 8b 45 a8          	mov    -0x58(%rbp),%rax
    7e78:	48 89 50 18          	mov    %rdx,0x18(%rax)
    7e7c:	48 8b 55 90          	mov    -0x70(%rbp),%rdx
    7e80:	48 8d 45 b8          	lea    -0x48(%rbp),%rax
    7e84:	48 89 d6             	mov    %rdx,%rsi
    7e87:	48 89 c7             	mov    %rax,%rdi
    7e8a:	e8 49 d7 ff ff       	callq  55d8 <_ZNSt8__detail14_Node_iteratorISt4pairIKNSt7__cxx1112basic_stringIcSt11char_traitsIcESaIcEEEmELb0ELb1EEC1EPNS_10_Hash_nodeIS9_Lb1EEE>
    7e8f:	48 8b 45 b8          	mov    -0x48(%rbp),%rax
    7e93:	48 8b 5d e8          	mov    -0x18(%rbp),%rbx
    7e97:	64 48 33 1c 25 28 00 	xor    %fs:0x28,%rbx
    7e9e:	00 00 
    7ea0:	74 3a                	je     7edc <_ZNSt10_HashtableINSt7__cxx1112basic_stringIcSt11char_traitsIcESaIcEEESt4pairIKS5_mESaIS8_ENSt8__detail10_Select1stESt8equal_toIS5_ESt4hashIS5_ENSA_18_Mod_range_hashingENSA_20_Default_ranged_hashENSA_20_Prime_rehash_policyENSA_17_Hashtable_traitsILb1ELb0ELb1EEEE21_M_insert_unique_nodeEmmPNSA_10_Hash_nodeIS8_Lb1EEE+0x176>
    7ea2:	eb 33                	jmp    7ed7 <_ZNSt10_HashtableINSt7__cxx1112basic_stringIcSt11char_traitsIcESaIcEEESt4pairIKS5_mESaIS8_ENSt8__detail10_Select1stESt8equal_toIS5_ESt4hashIS5_ENSA_18_Mod_range_hashingENSA_20_Default_ranged_hashENSA_20_Prime_rehash_policyENSA_17_Hashtable_traitsILb1ELb0ELb1EEEE21_M_insert_unique_nodeEmmPNSA_10_Hash_nodeIS8_Lb1EEE+0x171>
    7ea4:	48 89 c7             	mov    %rax,%rdi
    7ea7:	e8 c4 95 ff ff       	callq  1470 <__cxa_begin_catch@plt>
    7eac:	48 8b 55 90          	mov    -0x70(%rbp),%rdx
    7eb0:	48 8b 45 a8          	mov    -0x58(%rbp),%rax
    7eb4:	48 89 d6             	mov    %rdx,%rsi
    7eb7:	48 89 c7             	mov    %rax,%rdi
    7eba:	e8 99 e1 ff ff       	callq  6058 <_ZNSt8__detail16_Hashtable_allocISaINS_10_Hash_nodeISt4pairIKNSt7__cxx1112basic_stringIcSt11char_traitsIcESaIcEEEmELb1EEEEE18_M_deallocate_nodeEPSB_>
    7ebf:	e8 ec 96 ff ff       	callq  15b0 <__cxa_rethrow@plt>
    7ec4:	48 89 c3             	mov    %rax,%rbx
    7ec7:	e8 14 97 ff ff       	callq  15e0 <__cxa_end_catch@plt>
    7ecc:	48 89 d8             	mov    %rbx,%rax
    7ecf:	48 89 c7             	mov    %rax,%rdi
    7ed2:	e8 29 97 ff ff       	callq  1600 <_Unwind_Resume@plt>
    7ed7:	e8 84 96 ff ff       	callq  1560 <__stack_chk_fail@plt>
    7edc:	48 83 c4 68          	add    $0x68,%rsp
    7ee0:	5b                   	pop    %rbx
    7ee1:	5d                   	pop    %rbp
    7ee2:	c3                   	retq   

0000000000007ee3 <_ZSt9addressofINSt8__detail10_Hash_nodeISt4pairIKNSt7__cxx1112basic_stringIcSt11char_traitsIcESaIcEEEmELb1EEEEPT_RSC_>:
    7ee3:	55                   	push   %rbp
    7ee4:	48 89 e5             	mov    %rsp,%rbp
    7ee7:	48 83 ec 10          	sub    $0x10,%rsp
    7eeb:	48 89 7d f8          	mov    %rdi,-0x8(%rbp)
    7eef:	48 8b 45 f8          	mov    -0x8(%rbp),%rax
    7ef3:	48 89 c7             	mov    %rax,%rdi
    7ef6:	e8 ef 10 00 00       	callq  8fea <_ZSt11__addressofINSt8__detail10_Hash_nodeISt4pairIKNSt7__cxx1112basic_stringIcSt11char_traitsIcESaIcEEEmELb1EEEEPT_RSC_>
    7efb:	c9                   	leaveq 
    7efc:	c3                   	retq   

0000000000007efd <_ZNSt8__detail21_Hashtable_ebo_helperILi0ESaINS_10_Hash_nodeISt4pairIKNSt7__cxx1112basic_stringIcSt11char_traitsIcESaIcEEEmELb1EEEELb1EE6_S_getERSD_>:
    7efd:	55                   	push   %rbp
    7efe:	48 89 e5             	mov    %rsp,%rbp
    7f01:	48 89 7d f8          	mov    %rdi,-0x8(%rbp)
    7f05:	48 8b 45 f8          	mov    -0x8(%rbp),%rax
    7f09:	5d                   	pop    %rbp
    7f0a:	c3                   	retq   
    7f0b:	90                   	nop

0000000000007f0c <_ZN9__gnu_cxx13new_allocatorISt4pairIKNSt7__cxx1112basic_stringIcSt11char_traitsIcESaIcEEEmEE7destroyIS9_EEvPT_>:
    7f0c:	55                   	push   %rbp
    7f0d:	48 89 e5             	mov    %rsp,%rbp
    7f10:	48 83 ec 10          	sub    $0x10,%rsp
    7f14:	48 89 7d f8          	mov    %rdi,-0x8(%rbp)
    7f18:	48 89 75 f0          	mov    %rsi,-0x10(%rbp)
    7f1c:	48 8b 45 f0          	mov    -0x10(%rbp),%rax
    7f20:	48 89 c7             	mov    %rax,%rdi
    7f23:	e8 7a b6 ff ff       	callq  35a2 <_ZNSt4pairIKNSt7__cxx1112basic_stringIcSt11char_traitsIcESaIcEEEmED1Ev>
    7f28:	90                   	nop
    7f29:	c9                   	leaveq 
    7f2a:	c3                   	retq   
    7f2b:	90                   	nop

0000000000007f2c <_ZN9__gnu_cxx13new_allocatorINSt8__detail10_Hash_nodeISt4pairIKNSt7__cxx1112basic_stringIcSt11char_traitsIcESaIcEEEmELb1EEEE10deallocateEPSC_m>:
    7f2c:	55                   	push   %rbp
    7f2d:	48 89 e5             	mov    %rsp,%rbp
    7f30:	48 83 ec 20          	sub    $0x20,%rsp
    7f34:	48 89 7d f8          	mov    %rdi,-0x8(%rbp)
    7f38:	48 89 75 f0          	mov    %rsi,-0x10(%rbp)
    7f3c:	48 89 55 e8          	mov    %rdx,-0x18(%rbp)
    7f40:	48 8b 45 f0          	mov    -0x10(%rbp),%rax
    7f44:	48 89 c7             	mov    %rax,%rdi
    7f47:	e8 c4 95 ff ff       	callq  1510 <_ZdlPv@plt>
    7f4c:	90                   	nop
    7f4d:	c9                   	leaveq 
    7f4e:	c3                   	retq   

0000000000007f4f <_ZNSt8__detail21_Hashtable_ebo_helperILi1ESt4hashIPKcELb1EE7_S_cgetERKS5_>:
    7f4f:	55                   	push   %rbp
    7f50:	48 89 e5             	mov    %rsp,%rbp
    7f53:	48 89 7d f8          	mov    %rdi,-0x8(%rbp)
    7f57:	48 8b 45 f8          	mov    -0x8(%rbp),%rax
    7f5b:	5d                   	pop    %rbp
    7f5c:	c3                   	retq   
    7f5d:	90                   	nop

0000000000007f5e <_ZNKSt8__detail15_Hash_code_baseIPKcSt4pairIKS2_NSt7__cxx1112basic_stringIcSt11char_traitsIcESaIcEEEENS_10_Select1stESt4hashIS2_ENS_18_Mod_range_hashingENS_20_Default_ranged_hashELb0EE5_M_h2Ev>:
    7f5e:	55                   	push   %rbp
    7f5f:	48 89 e5             	mov    %rsp,%rbp
    7f62:	48 83 ec 10          	sub    $0x10,%rsp
    7f66:	48 89 7d f8          	mov    %rdi,-0x8(%rbp)
    7f6a:	48 8b 45 f8          	mov    -0x8(%rbp),%rax
    7f6e:	48 89 c7             	mov    %rax,%rdi
    7f71:	e8 82 10 00 00       	callq  8ff8 <_ZNSt8__detail21_Hashtable_ebo_helperILi2ENS_18_Mod_range_hashingELb1EE7_S_cgetERKS2_>
    7f76:	c9                   	leaveq 
    7f77:	c3                   	retq   

0000000000007f78 <_ZNKSt8__detail15_Hashtable_baseIPKcSt4pairIKS2_NSt7__cxx1112basic_stringIcSt11char_traitsIcESaIcEEEENS_10_Select1stESt8equal_toIS2_ESt4hashIS2_ENS_18_Mod_range_hashingENS_20_Default_ranged_hashENS_17_Hashtable_traitsILb0ELb0ELb1EEEE9_M_equalsERS4_mPNS_10_Hash_nodeISB_Lb0EEE>:
    7f78:	55                   	push   %rbp
    7f79:	48 89 e5             	mov    %rsp,%rbp
    7f7c:	53                   	push   %rbx
    7f7d:	48 83 ec 28          	sub    $0x28,%rsp
    7f81:	48 89 7d e8          	mov    %rdi,-0x18(%rbp)
    7f85:	48 89 75 e0          	mov    %rsi,-0x20(%rbp)
    7f89:	48 89 55 d8          	mov    %rdx,-0x28(%rbp)
    7f8d:	48 89 4d d0          	mov    %rcx,-0x30(%rbp)
    7f91:	48 8b 45 e8          	mov    -0x18(%rbp),%rax
    7f95:	48 89 c7             	mov    %rax,%rdi
    7f98:	e8 d5 10 00 00       	callq  9072 <_ZNKSt8__detail15_Hash_code_baseIPKcSt4pairIKS2_NSt7__cxx1112basic_stringIcSt11char_traitsIcESaIcEEEENS_10_Select1stESt4hashIS2_ENS_18_Mod_range_hashingENS_20_Default_ranged_hashELb0EE10_M_extractEv>
    7f9d:	48 89 c3             	mov    %rax,%rbx
    7fa0:	48 8b 45 e8          	mov    -0x18(%rbp),%rax
    7fa4:	48 89 c7             	mov    %rax,%rdi
    7fa7:	e8 ac 10 00 00       	callq  9058 <_ZNKSt8__detail15_Hashtable_baseIPKcSt4pairIKS2_NSt7__cxx1112basic_stringIcSt11char_traitsIcESaIcEEEENS_10_Select1stESt8equal_toIS2_ESt4hashIS2_ENS_18_Mod_range_hashingENS_20_Default_ranged_hashENS_17_Hashtable_traitsILb0ELb0ELb1EEEE5_M_eqEv>
    7fac:	48 89 c7             	mov    %rax,%rdi
    7faf:	48 8b 4d d0          	mov    -0x30(%rbp),%rcx
    7fb3:	48 8b 55 d8          	mov    -0x28(%rbp),%rdx
    7fb7:	48 8b 45 e0          	mov    -0x20(%rbp),%rax
    7fbb:	49 89 c8             	mov    %rcx,%r8
    7fbe:	48 89 d1             	mov    %rdx,%rcx
    7fc1:	48 89 c2             	mov    %rax,%rdx
    7fc4:	48 89 de             	mov    %rbx,%rsi
    7fc7:	e8 3a 10 00 00       	callq  9006 <_ZNSt8__detail13_Equal_helperIPKcSt4pairIKS2_NSt7__cxx1112basic_stringIcSt11char_traitsIcESaIcEEEENS_10_Select1stESt8equal_toIS2_EmLb0EE9_S_equalsERKSE_RKSC_RS4_mPNS_10_Hash_nodeISB_Lb0EEE>
    7fcc:	48 83 c4 28          	add    $0x28,%rsp
    7fd0:	5b                   	pop    %rbx
    7fd1:	5d                   	pop    %rbp
    7fd2:	c3                   	retq   
    7fd3:	90                   	nop

0000000000007fd4 <_ZNKSt10_HashtableIPKcSt4pairIKS1_NSt7__cxx1112basic_stringIcSt11char_traitsIcESaIcEEEESaISA_ENSt8__detail10_Select1stESt8equal_toIS1_ESt4hashIS1_ENSC_18_Mod_range_hashingENSC_20_Default_ranged_hashENSC_20_Prime_rehash_policyENSC_17_Hashtable_traitsILb0ELb0ELb1EEEE15_M_bucket_indexEPNSC_10_Hash_nodeISA_Lb0EEE>:
    7fd4:	55                   	push   %rbp
    7fd5:	48 89 e5             	mov    %rsp,%rbp
    7fd8:	48 83 ec 10          	sub    $0x10,%rsp
    7fdc:	48 89 7d f8          	mov    %rdi,-0x8(%rbp)
    7fe0:	48 89 75 f0          	mov    %rsi,-0x10(%rbp)
    7fe4:	48 8b 45 f8          	mov    -0x8(%rbp),%rax
    7fe8:	48 8b 50 08          	mov    0x8(%rax),%rdx
    7fec:	48 8b 4d f0          	mov    -0x10(%rbp),%rcx
    7ff0:	48 8b 45 f8          	mov    -0x8(%rbp),%rax
    7ff4:	48 89 ce             	mov    %rcx,%rsi
    7ff7:	48 89 c7             	mov    %rax,%rdi
    7ffa:	e8 8d 10 00 00       	callq  908c <_ZNKSt8__detail15_Hash_code_baseIPKcSt4pairIKS2_NSt7__cxx1112basic_stringIcSt11char_traitsIcESaIcEEEENS_10_Select1stESt4hashIS2_ENS_18_Mod_range_hashingENS_20_Default_ranged_hashELb0EE15_M_bucket_indexEPKNS_10_Hash_nodeISB_Lb0EEEm>
    7fff:	c9                   	leaveq 
    8000:	c3                   	retq   

0000000000008001 <_ZSt7forwardIRKNSt8__detail10_Select1stEEOT_RNSt16remove_referenceIS4_E4typeE>:
    8001:	55                   	push   %rbp
    8002:	48 89 e5             	mov    %rsp,%rbp
    8005:	48 89 7d f8          	mov    %rdi,-0x8(%rbp)
    8009:	48 8b 45 f8          	mov    -0x8(%rbp),%rax
    800d:	5d                   	pop    %rbp
    800e:	c3                   	retq   
    800f:	90                   	nop

0000000000008010 <_ZNSt8__detail21_Hashtable_ebo_helperILi0ENS_10_Select1stELb1EEC1IRKS1_EEOT_>:
    8010:	55                   	push   %rbp
    8011:	48 89 e5             	mov    %rsp,%rbp
    8014:	48 83 ec 10          	sub    $0x10,%rsp
    8018:	48 89 7d f8          	mov    %rdi,-0x8(%rbp)
    801c:	48 89 75 f0          	mov    %rsi,-0x10(%rbp)
    8020:	48 8b 45 f0          	mov    -0x10(%rbp),%rax
    8024:	48 89 c7             	mov    %rax,%rdi
    8027:	e8 d5 ff ff ff       	callq  8001 <_ZSt7forwardIRKNSt8__detail10_Select1stEEOT_RNSt16remove_referenceIS4_E4typeE>
    802c:	90                   	nop
    802d:	c9                   	leaveq 
    802e:	c3                   	retq   

000000000000802f <_ZSt7forwardIRKSt4hashIPKcEEOT_RNSt16remove_referenceIS6_E4typeE>:
    802f:	55                   	push   %rbp
    8030:	48 89 e5             	mov    %rsp,%rbp
    8033:	48 89 7d f8          	mov    %rdi,-0x8(%rbp)
    8037:	48 8b 45 f8          	mov    -0x8(%rbp),%rax
    803b:	5d                   	pop    %rbp
    803c:	c3                   	retq   
    803d:	90                   	nop

000000000000803e <_ZNSt8__detail21_Hashtable_ebo_helperILi1ESt4hashIPKcELb1EEC1IRKS4_EEOT_>:
    803e:	55                   	push   %rbp
    803f:	48 89 e5             	mov    %rsp,%rbp
    8042:	48 83 ec 10          	sub    $0x10,%rsp
    8046:	48 89 7d f8          	mov    %rdi,-0x8(%rbp)
    804a:	48 89 75 f0          	mov    %rsi,-0x10(%rbp)
    804e:	48 8b 45 f0          	mov    -0x10(%rbp),%rax
    8052:	48 89 c7             	mov    %rax,%rdi
    8055:	e8 d5 ff ff ff       	callq  802f <_ZSt7forwardIRKSt4hashIPKcEEOT_RNSt16remove_referenceIS6_E4typeE>
    805a:	90                   	nop
    805b:	c9                   	leaveq 
    805c:	c3                   	retq   

000000000000805d <_ZSt7forwardIRKNSt8__detail18_Mod_range_hashingEEOT_RNSt16remove_referenceIS4_E4typeE>:
    805d:	55                   	push   %rbp
    805e:	48 89 e5             	mov    %rsp,%rbp
    8061:	48 89 7d f8          	mov    %rdi,-0x8(%rbp)
    8065:	48 8b 45 f8          	mov    -0x8(%rbp),%rax
    8069:	5d                   	pop    %rbp
    806a:	c3                   	retq   
    806b:	90                   	nop

000000000000806c <_ZNSt8__detail21_Hashtable_ebo_helperILi2ENS_18_Mod_range_hashingELb1EEC1IRKS1_EEOT_>:
    806c:	55                   	push   %rbp
    806d:	48 89 e5             	mov    %rsp,%rbp
    8070:	48 83 ec 10          	sub    $0x10,%rsp
    8074:	48 89 7d f8          	mov    %rdi,-0x8(%rbp)
    8078:	48 89 75 f0          	mov    %rsi,-0x10(%rbp)
    807c:	48 8b 45 f0          	mov    -0x10(%rbp),%rax
    8080:	48 89 c7             	mov    %rax,%rdi
    8083:	e8 d5 ff ff ff       	callq  805d <_ZSt7forwardIRKNSt8__detail18_Mod_range_hashingEEOT_RNSt16remove_referenceIS4_E4typeE>
    8088:	90                   	nop
    8089:	c9                   	leaveq 
    808a:	c3                   	retq   
    808b:	90                   	nop

000000000000808c <_ZNSaINSt8__detail10_Hash_nodeISt4pairIKPKcNSt7__cxx1112basic_stringIcSt11char_traitsIcESaIcEEEELb0EEEEC1ERKSD_>:
    808c:	55                   	push   %rbp
    808d:	48 89 e5             	mov    %rsp,%rbp
    8090:	48 83 ec 10          	sub    $0x10,%rsp
    8094:	48 89 7d f8          	mov    %rdi,-0x8(%rbp)
    8098:	48 89 75 f0          	mov    %rsi,-0x10(%rbp)
    809c:	48 8b 55 f0          	mov    -0x10(%rbp),%rdx
    80a0:	48 8b 45 f8          	mov    -0x8(%rbp),%rax
    80a4:	48 89 d6             	mov    %rdx,%rsi
    80a7:	48 89 c7             	mov    %rax,%rdi
    80aa:	e8 69 10 00 00       	callq  9118 <_ZN9__gnu_cxx13new_allocatorINSt8__detail10_Hash_nodeISt4pairIKPKcNSt7__cxx1112basic_stringIcSt11char_traitsIcESaIcEEEELb0EEEEC1ERKSF_>
    80af:	90                   	nop
    80b0:	c9                   	leaveq 
    80b1:	c3                   	retq   

00000000000080b2 <_ZSt10__distanceIPKSt4pairIKPKcNSt7__cxx1112basic_stringIcSt11char_traitsIcESaIcEEEEENSt15iterator_traitsIT_E15difference_typeESE_SE_St26random_access_iterator_tag>:
    80b2:	55                   	push   %rbp
    80b3:	48 89 e5             	mov    %rsp,%rbp
    80b6:	48 89 7d f8          	mov    %rdi,-0x8(%rbp)
    80ba:	48 89 75 f0          	mov    %rsi,-0x10(%rbp)
    80be:	48 8b 55 f0          	mov    -0x10(%rbp),%rdx
    80c2:	48 8b 45 f8          	mov    -0x8(%rbp),%rax
    80c6:	48 29 c2             	sub    %rax,%rdx
    80c9:	48 89 d0             	mov    %rdx,%rax
    80cc:	48 c1 f8 03          	sar    $0x3,%rax
    80d0:	48 89 c2             	mov    %rax,%rdx
    80d3:	48 b8 cd cc cc cc cc 	movabs $0xcccccccccccccccd,%rax
    80da:	cc cc cc 
    80dd:	48 0f af c2          	imul   %rdx,%rax
    80e1:	5d                   	pop    %rbp
    80e2:	c3                   	retq   
    80e3:	90                   	nop

00000000000080e4 <_ZN9__gnu_cxx13new_allocatorIPNSt8__detail15_Hash_node_baseEE8allocateEmPKv>:
    80e4:	55                   	push   %rbp
    80e5:	48 89 e5             	mov    %rsp,%rbp
    80e8:	48 83 ec 20          	sub    $0x20,%rsp
    80ec:	48 89 7d f8          	mov    %rdi,-0x8(%rbp)
    80f0:	48 89 75 f0          	mov    %rsi,-0x10(%rbp)
    80f4:	48 89 55 e8          	mov    %rdx,-0x18(%rbp)
    80f8:	48 8b 45 f8          	mov    -0x8(%rbp),%rax
    80fc:	48 89 c7             	mov    %rax,%rdi
    80ff:	e8 24 10 00 00       	callq  9128 <_ZNK9__gnu_cxx13new_allocatorIPNSt8__detail15_Hash_node_baseEE8max_sizeEv>
    8104:	48 39 45 f0          	cmp    %rax,-0x10(%rbp)
    8108:	0f 97 c0             	seta   %al
    810b:	84 c0                	test   %al,%al
    810d:	74 05                	je     8114 <_ZN9__gnu_cxx13new_allocatorIPNSt8__detail15_Hash_node_baseEE8allocateEmPKv+0x30>
    810f:	e8 4c 93 ff ff       	callq  1460 <_ZSt17__throw_bad_allocv@plt>
    8114:	48 8b 45 f0          	mov    -0x10(%rbp),%rax
    8118:	48 c1 e0 03          	shl    $0x3,%rax
    811c:	48 89 c7             	mov    %rax,%rdi
    811f:	e8 0c 94 ff ff       	callq  1530 <_Znwm@plt>
    8124:	c9                   	leaveq 
    8125:	c3                   	retq   

0000000000008126 <_ZNSt8__detail21_Hashtable_ebo_helperILi0ENS_10_Select1stELb1EE6_S_getERS2_>:
    8126:	55                   	push   %rbp
    8127:	48 89 e5             	mov    %rsp,%rbp
    812a:	48 89 7d f8          	mov    %rdi,-0x8(%rbp)
    812e:	48 8b 45 f8          	mov    -0x8(%rbp),%rax
    8132:	5d                   	pop    %rbp
    8133:	c3                   	retq   

0000000000008134 <_ZSt3getILm0EKPKcNSt7__cxx1112basic_stringIcSt11char_traitsIcESaIcEEEERKNSt13tuple_elementIXT_ESt4pairIT0_T1_EE4typeERKSD_>:
    8134:	55                   	push   %rbp
    8135:	48 89 e5             	mov    %rsp,%rbp
    8138:	48 83 ec 10          	sub    $0x10,%rsp
    813c:	48 89 7d f8          	mov    %rdi,-0x8(%rbp)
    8140:	48 8b 45 f8          	mov    -0x8(%rbp),%rax
    8144:	48 89 c7             	mov    %rax,%rdi
    8147:	e8 f0 0f 00 00       	callq  913c <_ZNSt10__pair_getILm0EE11__const_getIKPKcNSt7__cxx1112basic_stringIcSt11char_traitsIcESaIcEEEEERKT_RKSt4pairISB_T0_E>
    814c:	c9                   	leaveq 
    814d:	c3                   	retq   

000000000000814e <_ZNSt4pairINSt8__detail14_Node_iteratorIS_IKPKcNSt7__cxx1112basic_stringIcSt11char_traitsIcESaIcEEEELb0ELb0EEEbEC1ISC_bLb1EEEOT_OT0_>:
    814e:	55                   	push   %rbp
    814f:	48 89 e5             	mov    %rsp,%rbp
    8152:	48 83 ec 20          	sub    $0x20,%rsp
    8156:	48 89 7d f8          	mov    %rdi,-0x8(%rbp)
    815a:	48 89 75 f0          	mov    %rsi,-0x10(%rbp)
    815e:	48 89 55 e8          	mov    %rdx,-0x18(%rbp)
    8162:	48 8b 45 f0          	mov    -0x10(%rbp),%rax
    8166:	48 89 c7             	mov    %rax,%rdi
    8169:	e8 00 f1 ff ff       	callq  726e <_ZSt7forwardINSt8__detail14_Node_iteratorISt4pairIKPKcNSt7__cxx1112basic_stringIcSt11char_traitsIcESaIcEEEELb0ELb0EEEEOT_RNSt16remove_referenceISE_E4typeE>
    816e:	48 89 c2             	mov    %rax,%rdx
    8171:	48 8b 45 f8          	mov    -0x8(%rbp),%rax
    8175:	48 8b 12             	mov    (%rdx),%rdx
    8178:	48 89 10             	mov    %rdx,(%rax)
    817b:	48 8b 45 e8          	mov    -0x18(%rbp),%rax
    817f:	48 89 c7             	mov    %rax,%rdi
    8182:	e8 46 ae ff ff       	callq  2fcd <_ZSt7forwardIbEOT_RNSt16remove_referenceIS0_E4typeE>
    8187:	0f b6 10             	movzbl (%rax),%edx
    818a:	48 8b 45 f8          	mov    -0x8(%rbp),%rax
    818e:	88 50 08             	mov    %dl,0x8(%rax)
    8191:	90                   	nop
    8192:	c9                   	leaveq 
    8193:	c3                   	retq   

0000000000008194 <_ZNSt8__detail21_Hash_node_value_baseISt4pairIKPKcNSt7__cxx1112basic_stringIcSt11char_traitsIcESaIcEEEEEC1Ev>:
    8194:	55                   	push   %rbp
    8195:	48 89 e5             	mov    %rsp,%rbp
    8198:	48 83 ec 10          	sub    $0x10,%rsp
    819c:	48 89 7d f8          	mov    %rdi,-0x8(%rbp)
    81a0:	48 8b 45 f8          	mov    -0x8(%rbp),%rax
    81a4:	48 89 c7             	mov    %rax,%rdi
    81a7:	e8 e2 ac ff ff       	callq  2e8e <_ZNSt8__detail15_Hash_node_baseC1Ev>
    81ac:	90                   	nop
    81ad:	c9                   	leaveq 
    81ae:	c3                   	retq   
    81af:	90                   	nop

00000000000081b0 <_ZNSt8__detail10_Hash_nodeISt4pairIKPKcNSt7__cxx1112basic_stringIcSt11char_traitsIcESaIcEEEELb0EEC1Ev>:
    81b0:	55                   	push   %rbp
    81b1:	48 89 e5             	mov    %rsp,%rbp
    81b4:	48 83 ec 10          	sub    $0x10,%rsp
    81b8:	48 89 7d f8          	mov    %rdi,-0x8(%rbp)
    81bc:	48 8b 45 f8          	mov    -0x8(%rbp),%rax
    81c0:	48 89 c7             	mov    %rax,%rdi
    81c3:	e8 cc ff ff ff       	callq  8194 <_ZNSt8__detail21_Hash_node_value_baseISt4pairIKPKcNSt7__cxx1112basic_stringIcSt11char_traitsIcESaIcEEEEEC1Ev>
    81c8:	90                   	nop
    81c9:	c9                   	leaveq 
    81ca:	c3                   	retq   
    81cb:	90                   	nop

00000000000081cc <_ZNSt8__detail16_Hashtable_allocISaINS_10_Hash_nodeISt4pairIKPKcNSt7__cxx1112basic_stringIcSt11char_traitsIcESaIcEEEELb0EEEEE16_M_allocate_nodeIJRKSC_EEEPSD_DpOT_>:
    81cc:	55                   	push   %rbp
    81cd:	48 89 e5             	mov    %rsp,%rbp
    81d0:	53                   	push   %rbx
    81d1:	48 83 ec 38          	sub    $0x38,%rsp
    81d5:	48 89 7d c8          	mov    %rdi,-0x38(%rbp)
    81d9:	48 89 75 c0          	mov    %rsi,-0x40(%rbp)
    81dd:	64 48 8b 04 25 28 00 	mov    %fs:0x28,%rax
    81e4:	00 00 
    81e6:	48 89 45 e8          	mov    %rax,-0x18(%rbp)
    81ea:	31 c0                	xor    %eax,%eax
    81ec:	48 8b 45 c8          	mov    -0x38(%rbp),%rax
    81f0:	48 89 c7             	mov    %rax,%rdi
    81f3:	e8 90 e4 ff ff       	callq  6688 <_ZNSt8__detail16_Hashtable_allocISaINS_10_Hash_nodeISt4pairIKPKcNSt7__cxx1112basic_stringIcSt11char_traitsIcESaIcEEEELb0EEEEE17_M_node_allocatorEv>
    81f8:	be 01 00 00 00       	mov    $0x1,%esi
    81fd:	48 89 c7             	mov    %rax,%rdi
    8200:	e8 45 0f 00 00       	callq  914a <_ZNSt16allocator_traitsISaINSt8__detail10_Hash_nodeISt4pairIKPKcNSt7__cxx1112basic_stringIcSt11char_traitsIcESaIcEEEELb0EEEEE8allocateERSE_m>
    8205:	48 89 45 d8          	mov    %rax,-0x28(%rbp)
    8209:	48 8b 45 d8          	mov    -0x28(%rbp),%rax
    820d:	48 89 c7             	mov    %rax,%rdi
    8210:	e8 cd 02 00 00       	callq  84e2 <_ZSt11__addressofINSt8__detail10_Hash_nodeISt4pairIKPKcNSt7__cxx1112basic_stringIcSt11char_traitsIcESaIcEEEELb0EEEEPT_RSE_>
    8215:	48 89 45 e0          	mov    %rax,-0x20(%rbp)
    8219:	48 8b 45 c8          	mov    -0x38(%rbp),%rax
    821d:	48 89 c7             	mov    %rax,%rdi
    8220:	e8 63 e4 ff ff       	callq  6688 <_ZNSt8__detail16_Hashtable_allocISaINS_10_Hash_nodeISt4pairIKPKcNSt7__cxx1112basic_stringIcSt11char_traitsIcESaIcEEEELb0EEEEE17_M_node_allocatorEv>
    8225:	48 89 c2             	mov    %rax,%rdx
    8228:	48 8d 45 d7          	lea    -0x29(%rbp),%rax
    822c:	48 89 d6             	mov    %rdx,%rsi
    822f:	48 89 c7             	mov    %rax,%rdi
    8232:	e8 6b e4 ff ff       	callq  66a2 <_ZNSaISt4pairIKPKcNSt7__cxx1112basic_stringIcSt11char_traitsIcESaIcEEEEEC1INSt8__detail10_Hash_nodeIS9_Lb0EEEEERKSaIT_E>
    8237:	48 8b 45 e0          	mov    -0x20(%rbp),%rax
    823b:	48 89 c6             	mov    %rax,%rsi
    823e:	bf 30 00 00 00       	mov    $0x30,%edi
    8243:	e8 65 ab ff ff       	callq  2dad <_ZnwmPv>
    8248:	48 85 c0             	test   %rax,%rax
    824b:	74 08                	je     8255 <_ZNSt8__detail16_Hashtable_allocISaINS_10_Hash_nodeISt4pairIKPKcNSt7__cxx1112basic_stringIcSt11char_traitsIcESaIcEEEELb0EEEEE16_M_allocate_nodeIJRKSC_EEEPSD_DpOT_+0x89>
    824d:	48 89 c7             	mov    %rax,%rdi
    8250:	e8 5b ff ff ff       	callq  81b0 <_ZNSt8__detail10_Hash_nodeISt4pairIKPKcNSt7__cxx1112basic_stringIcSt11char_traitsIcESaIcEEEELb0EEC1Ev>
    8255:	48 8b 45 c0          	mov    -0x40(%rbp),%rax
    8259:	48 89 c7             	mov    %rax,%rdi
    825c:	e8 cd e2 ff ff       	callq  652e <_ZSt7forwardIRKSt4pairIKPKcNSt7__cxx1112basic_stringIcSt11char_traitsIcESaIcEEEEEOT_RNSt16remove_referenceISD_E4typeE>
    8261:	48 89 c3             	mov    %rax,%rbx
    8264:	48 8b 45 e0          	mov    -0x20(%rbp),%rax
    8268:	48 89 c7             	mov    %rax,%rdi
    826b:	e8 4a d3 ff ff       	callq  55ba <_ZNSt8__detail21_Hash_node_value_baseISt4pairIKPKcNSt7__cxx1112basic_stringIcSt11char_traitsIcESaIcEEEEE9_M_valptrEv>
    8270:	48 89 c1             	mov    %rax,%rcx
    8273:	48 8d 45 d7          	lea    -0x29(%rbp),%rax
    8277:	48 89 da             	mov    %rbx,%rdx
    827a:	48 89 ce             	mov    %rcx,%rsi
    827d:	48 89 c7             	mov    %rax,%rdi
    8280:	e8 ef 0e 00 00       	callq  9174 <_ZNSt16allocator_traitsISaISt4pairIKPKcNSt7__cxx1112basic_stringIcSt11char_traitsIcESaIcEEEEEE9constructISA_JRKSA_EEEvRSB_PT_DpOT0_>
    8285:	48 8b 5d e0          	mov    -0x20(%rbp),%rbx
    8289:	48 8d 45 d7          	lea    -0x29(%rbp),%rax
    828d:	48 89 c7             	mov    %rax,%rdi
    8290:	e8 0b c1 ff ff       	callq  43a0 <_ZNSaISt4pairIKPKcNSt7__cxx1112basic_stringIcSt11char_traitsIcESaIcEEEEED1Ev>
    8295:	48 89 d8             	mov    %rbx,%rax
    8298:	48 8b 55 e8          	mov    -0x18(%rbp),%rdx
    829c:	64 48 33 14 25 28 00 	xor    %fs:0x28,%rdx
    82a3:	00 00 
    82a5:	74 5c                	je     8303 <_ZNSt8__detail16_Hashtable_allocISaINS_10_Hash_nodeISt4pairIKPKcNSt7__cxx1112basic_stringIcSt11char_traitsIcESaIcEEEELb0EEEEE16_M_allocate_nodeIJRKSC_EEEPSD_DpOT_+0x137>
    82a7:	eb 55                	jmp    82fe <_ZNSt8__detail16_Hashtable_allocISaINS_10_Hash_nodeISt4pairIKPKcNSt7__cxx1112basic_stringIcSt11char_traitsIcESaIcEEEELb0EEEEE16_M_allocate_nodeIJRKSC_EEEPSD_DpOT_+0x132>
    82a9:	48 89 c3             	mov    %rax,%rbx
    82ac:	48 8d 45 d7          	lea    -0x29(%rbp),%rax
    82b0:	48 89 c7             	mov    %rax,%rdi
    82b3:	e8 e8 c0 ff ff       	callq  43a0 <_ZNSaISt4pairIKPKcNSt7__cxx1112basic_stringIcSt11char_traitsIcESaIcEEEEED1Ev>
    82b8:	48 89 d8             	mov    %rbx,%rax
    82bb:	48 89 c7             	mov    %rax,%rdi
    82be:	e8 ad 91 ff ff       	callq  1470 <__cxa_begin_catch@plt>
    82c3:	48 8b 45 c8          	mov    -0x38(%rbp),%rax
    82c7:	48 89 c7             	mov    %rax,%rdi
    82ca:	e8 b9 e3 ff ff       	callq  6688 <_ZNSt8__detail16_Hashtable_allocISaINS_10_Hash_nodeISt4pairIKPKcNSt7__cxx1112basic_stringIcSt11char_traitsIcESaIcEEEELb0EEEEE17_M_node_allocatorEv>
    82cf:	48 89 c1             	mov    %rax,%rcx
    82d2:	48 8b 45 d8          	mov    -0x28(%rbp),%rax
    82d6:	ba 01 00 00 00       	mov    $0x1,%edx
    82db:	48 89 c6             	mov    %rax,%rsi
    82de:	48 89 cf             	mov    %rcx,%rdi
    82e1:	e8 01 e4 ff ff       	callq  66e7 <_ZNSt16allocator_traitsISaINSt8__detail10_Hash_nodeISt4pairIKPKcNSt7__cxx1112basic_stringIcSt11char_traitsIcESaIcEEEELb0EEEEE10deallocateERSE_PSD_m>
    82e6:	e8 c5 92 ff ff       	callq  15b0 <__cxa_rethrow@plt>
    82eb:	48 89 c3             	mov    %rax,%rbx
    82ee:	e8 ed 92 ff ff       	callq  15e0 <__cxa_end_catch@plt>
    82f3:	48 89 d8             	mov    %rbx,%rax
    82f6:	48 89 c7             	mov    %rax,%rdi
    82f9:	e8 02 93 ff ff       	callq  1600 <_Unwind_Resume@plt>
    82fe:	e8 5d 92 ff ff       	callq  1560 <__stack_chk_fail@plt>
    8303:	48 83 c4 38          	add    $0x38,%rsp
    8307:	5b                   	pop    %rbx
    8308:	5d                   	pop    %rbp
    8309:	c3                   	retq   

000000000000830a <_ZNSt10_HashtableIPKcSt4pairIKS1_NSt7__cxx1112basic_stringIcSt11char_traitsIcESaIcEEEESaISA_ENSt8__detail10_Select1stESt8equal_toIS1_ESt4hashIS1_ENSC_18_Mod_range_hashingENSC_20_Default_ranged_hashENSC_20_Prime_rehash_policyENSC_17_Hashtable_traitsILb0ELb0ELb1EEEE9_M_rehashEmRKm>:
    830a:	55                   	push   %rbp
    830b:	48 89 e5             	mov    %rsp,%rbp
    830e:	53                   	push   %rbx
    830f:	48 83 ec 38          	sub    $0x38,%rsp
    8313:	48 89 7d d8          	mov    %rdi,-0x28(%rbp)
    8317:	48 89 75 d0          	mov    %rsi,-0x30(%rbp)
    831b:	48 89 55 c8          	mov    %rdx,-0x38(%rbp)
    831f:	64 48 8b 04 25 28 00 	mov    %fs:0x28,%rax
    8326:	00 00 
    8328:	48 89 45 e8          	mov    %rax,-0x18(%rbp)
    832c:	31 c0                	xor    %eax,%eax
    832e:	48 8b 55 d0          	mov    -0x30(%rbp),%rdx
    8332:	48 8b 45 d8          	mov    -0x28(%rbp),%rax
    8336:	48 83 ec 08          	sub    $0x8,%rsp
    833a:	51                   	push   %rcx
    833b:	48 89 d6             	mov    %rdx,%rsi
    833e:	48 89 c7             	mov    %rax,%rdi
    8341:	e8 68 0e 00 00       	callq  91ae <_ZNSt10_HashtableIPKcSt4pairIKS1_NSt7__cxx1112basic_stringIcSt11char_traitsIcESaIcEEEESaISA_ENSt8__detail10_Select1stESt8equal_toIS1_ESt4hashIS1_ENSC_18_Mod_range_hashingENSC_20_Default_ranged_hashENSC_20_Prime_rehash_policyENSC_17_Hashtable_traitsILb0ELb0ELb1EEEE13_M_rehash_auxEmSt17integral_constantIbLb1EE>
    8346:	48 83 c4 10          	add    $0x10,%rsp
    834a:	90                   	nop
    834b:	48 8b 45 e8          	mov    -0x18(%rbp),%rax
    834f:	64 48 33 04 25 28 00 	xor    %fs:0x28,%rax
    8356:	00 00 
    8358:	74 41                	je     839b <_ZNSt10_HashtableIPKcSt4pairIKS1_NSt7__cxx1112basic_stringIcSt11char_traitsIcESaIcEEEESaISA_ENSt8__detail10_Select1stESt8equal_toIS1_ESt4hashIS1_ENSC_18_Mod_range_hashingENSC_20_Default_ranged_hashENSC_20_Prime_rehash_policyENSC_17_Hashtable_traitsILb0ELb0ELb1EEEE9_M_rehashEmRKm+0x91>
    835a:	eb 3a                	jmp    8396 <_ZNSt10_HashtableIPKcSt4pairIKS1_NSt7__cxx1112basic_stringIcSt11char_traitsIcESaIcEEEESaISA_ENSt8__detail10_Select1stESt8equal_toIS1_ESt4hashIS1_ENSC_18_Mod_range_hashingENSC_20_Default_ranged_hashENSC_20_Prime_rehash_policyENSC_17_Hashtable_traitsILb0ELb0ELb1EEEE9_M_rehashEmRKm+0x8c>
    835c:	48 89 c7             	mov    %rax,%rdi
    835f:	e8 0c 91 ff ff       	callq  1470 <__cxa_begin_catch@plt>
    8364:	48 8b 45 d8          	mov    -0x28(%rbp),%rax
    8368:	48 8d 50 20          	lea    0x20(%rax),%rdx
    836c:	48 8b 45 c8          	mov    -0x38(%rbp),%rax
    8370:	48 8b 00             	mov    (%rax),%rax
    8373:	48 89 c6             	mov    %rax,%rsi
    8376:	48 89 d7             	mov    %rdx,%rdi
    8379:	e8 34 ac ff ff       	callq  2fb2 <_ZNSt8__detail20_Prime_rehash_policy8_M_resetEm>
    837e:	e8 2d 92 ff ff       	callq  15b0 <__cxa_rethrow@plt>
    8383:	48 89 c3             	mov    %rax,%rbx
    8386:	e8 55 92 ff ff       	callq  15e0 <__cxa_end_catch@plt>
    838b:	48 89 d8             	mov    %rbx,%rax
    838e:	48 89 c7             	mov    %rax,%rdi
    8391:	e8 6a 92 ff ff       	callq  1600 <_Unwind_Resume@plt>
    8396:	e8 c5 91 ff ff       	callq  1560 <__stack_chk_fail@plt>
    839b:	48 8b 5d f8          	mov    -0x8(%rbp),%rbx
    839f:	c9                   	leaveq 
    83a0:	c3                   	retq   
    83a1:	90                   	nop

00000000000083a2 <_ZNSt8__detail21_Hash_node_value_baseISt4pairIKPKcNSt7__cxx1112basic_stringIcSt11char_traitsIcESaIcEEEEE4_M_vEv>:
    83a2:	55                   	push   %rbp
    83a3:	48 89 e5             	mov    %rsp,%rbp
    83a6:	48 83 ec 10          	sub    $0x10,%rsp
    83aa:	48 89 7d f8          	mov    %rdi,-0x8(%rbp)
    83ae:	48 8b 45 f8          	mov    -0x8(%rbp),%rax
    83b2:	48 89 c7             	mov    %rax,%rdi
    83b5:	e8 00 d2 ff ff       	callq  55ba <_ZNSt8__detail21_Hash_node_value_baseISt4pairIKPKcNSt7__cxx1112basic_stringIcSt11char_traitsIcESaIcEEEEE9_M_valptrEv>
    83ba:	c9                   	leaveq 
    83bb:	c3                   	retq   

00000000000083bc <_ZNKSt8__detail10_Select1stclIRSt4pairIKPKcNSt7__cxx1112basic_stringIcSt11char_traitsIcESaIcEEEEEEDTcl3getILi0EEcl7forwardIT_Efp_EEEOSE_>:
    83bc:	55                   	push   %rbp
    83bd:	48 89 e5             	mov    %rsp,%rbp
    83c0:	48 83 ec 10          	sub    $0x10,%rsp
    83c4:	48 89 7d f8          	mov    %rdi,-0x8(%rbp)
    83c8:	48 89 75 f0          	mov    %rsi,-0x10(%rbp)
    83cc:	48 8b 45 f0          	mov    -0x10(%rbp),%rax
    83d0:	48 89 c7             	mov    %rax,%rdi
    83d3:	e8 4e ef ff ff       	callq  7326 <_ZSt7forwardIRSt4pairIKPKcNSt7__cxx1112basic_stringIcSt11char_traitsIcESaIcEEEEEOT_RNSt16remove_referenceISC_E4typeE>
    83d8:	48 89 c7             	mov    %rax,%rdi
    83db:	e8 43 0f 00 00       	callq  9323 <_ZSt3getILm0EKPKcNSt7__cxx1112basic_stringIcSt11char_traitsIcESaIcEEEERNSt13tuple_elementIXT_ESt4pairIT0_T1_EE4typeERSD_>
    83e0:	c9                   	leaveq 
    83e1:	c3                   	retq   

00000000000083e2 <_ZNKSt8__detail15_Hash_code_baseIPKcSt4pairIKS2_NSt7__cxx1112basic_stringIcSt11char_traitsIcESaIcEEEENS_10_Select1stESt4hashIS2_ENS_18_Mod_range_hashingENS_20_Default_ranged_hashELb0EE13_M_store_codeEPNS_10_Hash_nodeISB_Lb0EEEm>:
    83e2:	55                   	push   %rbp
    83e3:	48 89 e5             	mov    %rsp,%rbp
    83e6:	48 89 7d f8          	mov    %rdi,-0x8(%rbp)
    83ea:	48 89 75 f0          	mov    %rsi,-0x10(%rbp)
    83ee:	48 89 55 e8          	mov    %rdx,-0x18(%rbp)
    83f2:	90                   	nop
    83f3:	5d                   	pop    %rbp
    83f4:	c3                   	retq   
    83f5:	90                   	nop

00000000000083f6 <_ZNSt10_HashtableIPKcSt4pairIKS1_NSt7__cxx1112basic_stringIcSt11char_traitsIcESaIcEEEESaISA_ENSt8__detail10_Select1stESt8equal_toIS1_ESt4hashIS1_ENSC_18_Mod_range_hashingENSC_20_Default_ranged_hashENSC_20_Prime_rehash_policyENSC_17_Hashtable_traitsILb0ELb0ELb1EEEE22_M_insert_bucket_beginEmPNSC_10_Hash_nodeISA_Lb0EEE>:
    83f6:	55                   	push   %rbp
    83f7:	48 89 e5             	mov    %rsp,%rbp
    83fa:	53                   	push   %rbx
    83fb:	48 83 ec 28          	sub    $0x28,%rsp
    83ff:	48 89 7d e8          	mov    %rdi,-0x18(%rbp)
    8403:	48 89 75 e0          	mov    %rsi,-0x20(%rbp)
    8407:	48 89 55 d8          	mov    %rdx,-0x28(%rbp)
    840b:	48 8b 45 e8          	mov    -0x18(%rbp),%rax
    840f:	48 8b 00             	mov    (%rax),%rax
    8412:	48 8b 55 e0          	mov    -0x20(%rbp),%rdx
    8416:	48 c1 e2 03          	shl    $0x3,%rdx
    841a:	48 01 d0             	add    %rdx,%rax
    841d:	48 8b 00             	mov    (%rax),%rax
    8420:	48 85 c0             	test   %rax,%rax
    8423:	74 3d                	je     8462 <_ZNSt10_HashtableIPKcSt4pairIKS1_NSt7__cxx1112basic_stringIcSt11char_traitsIcESaIcEEEESaISA_ENSt8__detail10_Select1stESt8equal_toIS1_ESt4hashIS1_ENSC_18_Mod_range_hashingENSC_20_Default_ranged_hashENSC_20_Prime_rehash_policyENSC_17_Hashtable_traitsILb0ELb0ELb1EEEE22_M_insert_bucket_beginEmPNSC_10_Hash_nodeISA_Lb0EEE+0x6c>
    8425:	48 8b 45 e8          	mov    -0x18(%rbp),%rax
    8429:	48 8b 00             	mov    (%rax),%rax
    842c:	48 8b 55 e0          	mov    -0x20(%rbp),%rdx
    8430:	48 c1 e2 03          	shl    $0x3,%rdx
    8434:	48 01 d0             	add    %rdx,%rax
    8437:	48 8b 00             	mov    (%rax),%rax
    843a:	48 8b 10             	mov    (%rax),%rdx
    843d:	48 8b 45 d8          	mov    -0x28(%rbp),%rax
    8441:	48 89 10             	mov    %rdx,(%rax)
    8444:	48 8b 45 e8          	mov    -0x18(%rbp),%rax
    8448:	48 8b 00             	mov    (%rax),%rax
    844b:	48 8b 55 e0          	mov    -0x20(%rbp),%rdx
    844f:	48 c1 e2 03          	shl    $0x3,%rdx
    8453:	48 01 d0             	add    %rdx,%rax
    8456:	48 8b 00             	mov    (%rax),%rax
    8459:	48 8b 55 d8          	mov    -0x28(%rbp),%rdx
    845d:	48 89 10             	mov    %rdx,(%rax)
    8460:	eb 78                	jmp    84da <_ZNSt10_HashtableIPKcSt4pairIKS1_NSt7__cxx1112basic_stringIcSt11char_traitsIcESaIcEEEESaISA_ENSt8__detail10_Select1stESt8equal_toIS1_ESt4hashIS1_ENSC_18_Mod_range_hashingENSC_20_Default_ranged_hashENSC_20_Prime_rehash_policyENSC_17_Hashtable_traitsILb0ELb0ELb1EEEE22_M_insert_bucket_beginEmPNSC_10_Hash_nodeISA_Lb0EEE+0xe4>
    8462:	48 8b 45 e8          	mov    -0x18(%rbp),%rax
    8466:	48 8b 50 10          	mov    0x10(%rax),%rdx
    846a:	48 8b 45 d8          	mov    -0x28(%rbp),%rax
    846e:	48 89 10             	mov    %rdx,(%rax)
    8471:	48 8b 45 e8          	mov    -0x18(%rbp),%rax
    8475:	48 8b 55 d8          	mov    -0x28(%rbp),%rdx
    8479:	48 89 50 10          	mov    %rdx,0x10(%rax)
    847d:	48 8b 45 d8          	mov    -0x28(%rbp),%rax
    8481:	48 8b 00             	mov    (%rax),%rax
    8484:	48 85 c0             	test   %rax,%rax
    8487:	74 34                	je     84bd <_ZNSt10_HashtableIPKcSt4pairIKS1_NSt7__cxx1112basic_stringIcSt11char_traitsIcESaIcEEEESaISA_ENSt8__detail10_Select1stESt8equal_toIS1_ESt4hashIS1_ENSC_18_Mod_range_hashingENSC_20_Default_ranged_hashENSC_20_Prime_rehash_policyENSC_17_Hashtable_traitsILb0ELb0ELb1EEEE22_M_insert_bucket_beginEmPNSC_10_Hash_nodeISA_Lb0EEE+0xc7>
    8489:	48 8b 45 e8          	mov    -0x18(%rbp),%rax
    848d:	48 8b 18             	mov    (%rax),%rbx
    8490:	48 8b 45 d8          	mov    -0x28(%rbp),%rax
    8494:	48 89 c7             	mov    %rax,%rdi
    8497:	e8 cc d3 ff ff       	callq  5868 <_ZNKSt8__detail10_Hash_nodeISt4pairIKPKcNSt7__cxx1112basic_stringIcSt11char_traitsIcESaIcEEEELb0EE7_M_nextEv>
    849c:	48 89 c2             	mov    %rax,%rdx
    849f:	48 8b 45 e8          	mov    -0x18(%rbp),%rax
    84a3:	48 89 d6             	mov    %rdx,%rsi
    84a6:	48 89 c7             	mov    %rax,%rdi
    84a9:	e8 26 fb ff ff       	callq  7fd4 <_ZNKSt10_HashtableIPKcSt4pairIKS1_NSt7__cxx1112basic_stringIcSt11char_traitsIcESaIcEEEESaISA_ENSt8__detail10_Select1stESt8equal_toIS1_ESt4hashIS1_ENSC_18_Mod_range_hashingENSC_20_Default_ranged_hashENSC_20_Prime_rehash_policyENSC_17_Hashtable_traitsILb0ELb0ELb1EEEE15_M_bucket_indexEPNSC_10_Hash_nodeISA_Lb0EEE>
    84ae:	48 c1 e0 03          	shl    $0x3,%rax
    84b2:	48 8d 14 03          	lea    (%rbx,%rax,1),%rdx
    84b6:	48 8b 45 d8          	mov    -0x28(%rbp),%rax
    84ba:	48 89 02             	mov    %rax,(%rdx)
    84bd:	48 8b 45 e8          	mov    -0x18(%rbp),%rax
    84c1:	48 8b 00             	mov    (%rax),%rax
    84c4:	48 8b 55 e0          	mov    -0x20(%rbp),%rdx
    84c8:	48 c1 e2 03          	shl    $0x3,%rdx
    84cc:	48 01 d0             	add    %rdx,%rax
    84cf:	48 8b 55 e8          	mov    -0x18(%rbp),%rdx
    84d3:	48 83 c2 10          	add    $0x10,%rdx
    84d7:	48 89 10             	mov    %rdx,(%rax)
    84da:	90                   	nop
    84db:	48 83 c4 28          	add    $0x28,%rsp
    84df:	5b                   	pop    %rbx
    84e0:	5d                   	pop    %rbp
    84e1:	c3                   	retq   

00000000000084e2 <_ZSt11__addressofINSt8__detail10_Hash_nodeISt4pairIKPKcNSt7__cxx1112basic_stringIcSt11char_traitsIcESaIcEEEELb0EEEEPT_RSE_>:
    84e2:	55                   	push   %rbp
    84e3:	48 89 e5             	mov    %rsp,%rbp
    84e6:	48 89 7d f8          	mov    %rdi,-0x8(%rbp)
    84ea:	48 8b 45 f8          	mov    -0x8(%rbp),%rax
    84ee:	5d                   	pop    %rbp
    84ef:	c3                   	retq   

00000000000084f0 <_ZSt7forwardIRKSt4hashIiEEOT_RNSt16remove_referenceIS4_E4typeE>:
    84f0:	55                   	push   %rbp
    84f1:	48 89 e5             	mov    %rsp,%rbp
    84f4:	48 89 7d f8          	mov    %rdi,-0x8(%rbp)
    84f8:	48 8b 45 f8          	mov    -0x8(%rbp),%rax
    84fc:	5d                   	pop    %rbp
    84fd:	c3                   	retq   

00000000000084fe <_ZNSt8__detail21_Hashtable_ebo_helperILi1ESt4hashIiELb1EEC1IRKS2_EEOT_>:
    84fe:	55                   	push   %rbp
    84ff:	48 89 e5             	mov    %rsp,%rbp
    8502:	48 83 ec 10          	sub    $0x10,%rsp
    8506:	48 89 7d f8          	mov    %rdi,-0x8(%rbp)
    850a:	48 89 75 f0          	mov    %rsi,-0x10(%rbp)
    850e:	48 8b 45 f0          	mov    -0x10(%rbp),%rax
    8512:	48 89 c7             	mov    %rax,%rdi
    8515:	e8 d6 ff ff ff       	callq  84f0 <_ZSt7forwardIRKSt4hashIiEEOT_RNSt16remove_referenceIS4_E4typeE>
    851a:	90                   	nop
    851b:	c9                   	leaveq 
    851c:	c3                   	retq   
    851d:	90                   	nop

000000000000851e <_ZNSaINSt8__detail10_Hash_nodeISt4pairIKiNSt7__cxx1112basic_stringIcSt11char_traitsIcESaIcEEEELb0EEEEC1ERKSB_>:
    851e:	55                   	push   %rbp
    851f:	48 89 e5             	mov    %rsp,%rbp
    8522:	48 83 ec 10          	sub    $0x10,%rsp
    8526:	48 89 7d f8          	mov    %rdi,-0x8(%rbp)
    852a:	48 89 75 f0          	mov    %rsi,-0x10(%rbp)
    852e:	48 8b 55 f0          	mov    -0x10(%rbp),%rdx
    8532:	48 8b 45 f8          	mov    -0x8(%rbp),%rax
    8536:	48 89 d6             	mov    %rdx,%rsi
    8539:	48 89 c7             	mov    %rax,%rdi
    853c:	e8 fd 0d 00 00       	callq  933e <_ZN9__gnu_cxx13new_allocatorINSt8__detail10_Hash_nodeISt4pairIKiNSt7__cxx1112basic_stringIcSt11char_traitsIcESaIcEEEELb0EEEEC1ERKSD_>
    8541:	90                   	nop
    8542:	c9                   	leaveq 
    8543:	c3                   	retq   

0000000000008544 <_ZSt10__distanceIPKSt4pairIKiNSt7__cxx1112basic_stringIcSt11char_traitsIcESaIcEEEEENSt15iterator_traitsIT_E15difference_typeESC_SC_St26random_access_iterator_tag>:
    8544:	55                   	push   %rbp
    8545:	48 89 e5             	mov    %rsp,%rbp
    8548:	48 89 7d f8          	mov    %rdi,-0x8(%rbp)
    854c:	48 89 75 f0          	mov    %rsi,-0x10(%rbp)
    8550:	48 8b 55 f0          	mov    -0x10(%rbp),%rdx
    8554:	48 8b 45 f8          	mov    -0x8(%rbp),%rax
    8558:	48 29 c2             	sub    %rax,%rdx
    855b:	48 89 d0             	mov    %rdx,%rax
    855e:	48 c1 f8 03          	sar    $0x3,%rax
    8562:	48 89 c2             	mov    %rax,%rdx
    8565:	48 b8 cd cc cc cc cc 	movabs $0xcccccccccccccccd,%rax
    856c:	cc cc cc 
    856f:	48 0f af c2          	imul   %rdx,%rax
    8573:	5d                   	pop    %rbp
    8574:	c3                   	retq   

0000000000008575 <_ZSt3getILm0EKiNSt7__cxx1112basic_stringIcSt11char_traitsIcESaIcEEEERKNSt13tuple_elementIXT_ESt4pairIT0_T1_EE4typeERKSB_>:
    8575:	55                   	push   %rbp
    8576:	48 89 e5             	mov    %rsp,%rbp
    8579:	48 83 ec 10          	sub    $0x10,%rsp
    857d:	48 89 7d f8          	mov    %rdi,-0x8(%rbp)
    8581:	48 8b 45 f8          	mov    -0x8(%rbp),%rax
    8585:	48 89 c7             	mov    %rax,%rdi
    8588:	e8 c0 0d 00 00       	callq  934d <_ZNSt10__pair_getILm0EE11__const_getIKiNSt7__cxx1112basic_stringIcSt11char_traitsIcESaIcEEEEERKT_RKSt4pairIS9_T0_E>
    858d:	c9                   	leaveq 
    858e:	c3                   	retq   
    858f:	90                   	nop

0000000000008590 <_ZNKSt8__detail15_Hash_code_baseIiSt4pairIKiNSt7__cxx1112basic_stringIcSt11char_traitsIcESaIcEEEENS_10_Select1stESt4hashIiENS_18_Mod_range_hashingENS_20_Default_ranged_hashELb0EE5_M_h1Ev>:
    8590:	55                   	push   %rbp
    8591:	48 89 e5             	mov    %rsp,%rbp
    8594:	48 83 ec 10          	sub    $0x10,%rsp
    8598:	48 89 7d f8          	mov    %rdi,-0x8(%rbp)
    859c:	48 8b 45 f8          	mov    -0x8(%rbp),%rax
    85a0:	48 89 c7             	mov    %rax,%rdi
    85a3:	e8 b3 0d 00 00       	callq  935b <_ZNSt8__detail21_Hashtable_ebo_helperILi1ESt4hashIiELb1EE7_S_cgetERKS3_>
    85a8:	c9                   	leaveq 
    85a9:	c3                   	retq   

00000000000085aa <_ZNKSt8__detail15_Hash_code_baseIiSt4pairIKiNSt7__cxx1112basic_stringIcSt11char_traitsIcESaIcEEEENS_10_Select1stESt4hashIiENS_18_Mod_range_hashingENS_20_Default_ranged_hashELb0EE15_M_bucket_indexERS2_mm>:
    85aa:	55                   	push   %rbp
    85ab:	48 89 e5             	mov    %rsp,%rbp
    85ae:	48 83 ec 20          	sub    $0x20,%rsp
    85b2:	48 89 7d f8          	mov    %rdi,-0x8(%rbp)
    85b6:	48 89 75 f0          	mov    %rsi,-0x10(%rbp)
    85ba:	48 89 55 e8          	mov    %rdx,-0x18(%rbp)
    85be:	48 89 4d e0          	mov    %rcx,-0x20(%rbp)
    85c2:	48 8b 45 f8          	mov    -0x8(%rbp),%rax
    85c6:	48 89 c7             	mov    %rax,%rdi
    85c9:	e8 9c 0d 00 00       	callq  936a <_ZNKSt8__detail15_Hash_code_baseIiSt4pairIKiNSt7__cxx1112basic_stringIcSt11char_traitsIcESaIcEEEENS_10_Select1stESt4hashIiENS_18_Mod_range_hashingENS_20_Default_ranged_hashELb0EE5_M_h2Ev>
    85ce:	48 89 c1             	mov    %rax,%rcx
    85d1:	48 8b 55 e0          	mov    -0x20(%rbp),%rdx
    85d5:	48 8b 45 e8          	mov    -0x18(%rbp),%rax
    85d9:	48 89 c6             	mov    %rax,%rsi
    85dc:	48 89 cf             	mov    %rcx,%rdi
    85df:	e8 c0 a8 ff ff       	callq  2ea4 <_ZNKSt8__detail18_Mod_range_hashingclEmm>
    85e4:	c9                   	leaveq 
    85e5:	c3                   	retq   

00000000000085e6 <_ZNKSt10_HashtableIiSt4pairIKiNSt7__cxx1112basic_stringIcSt11char_traitsIcESaIcEEEESaIS8_ENSt8__detail10_Select1stESt8equal_toIiESt4hashIiENSA_18_Mod_range_hashingENSA_20_Default_ranged_hashENSA_20_Prime_rehash_policyENSA_17_Hashtable_traitsILb0ELb0ELb1EEEE19_M_find_before_nodeEmRS1_m>:
    85e6:	55                   	push   %rbp
    85e7:	48 89 e5             	mov    %rsp,%rbp
    85ea:	48 83 ec 30          	sub    $0x30,%rsp
    85ee:	48 89 7d e8          	mov    %rdi,-0x18(%rbp)
    85f2:	48 89 75 e0          	mov    %rsi,-0x20(%rbp)
    85f6:	48 89 55 d8          	mov    %rdx,-0x28(%rbp)
    85fa:	48 89 4d d0          	mov    %rcx,-0x30(%rbp)
    85fe:	48 8b 45 e8          	mov    -0x18(%rbp),%rax
    8602:	48 8b 00             	mov    (%rax),%rax
    8605:	48 8b 55 e0          	mov    -0x20(%rbp),%rdx
    8609:	48 c1 e2 03          	shl    $0x3,%rdx
    860d:	48 01 d0             	add    %rdx,%rax
    8610:	48 8b 00             	mov    (%rax),%rax
    8613:	48 89 45 f0          	mov    %rax,-0x10(%rbp)
    8617:	48 83 7d f0 00       	cmpq   $0x0,-0x10(%rbp)
    861c:	75 0a                	jne    8628 <_ZNKSt10_HashtableIiSt4pairIKiNSt7__cxx1112basic_stringIcSt11char_traitsIcESaIcEEEESaIS8_ENSt8__detail10_Select1stESt8equal_toIiESt4hashIiENSA_18_Mod_range_hashingENSA_20_Default_ranged_hashENSA_20_Prime_rehash_policyENSA_17_Hashtable_traitsILb0ELb0ELb1EEEE19_M_find_before_nodeEmRS1_m+0x42>
    861e:	b8 00 00 00 00       	mov    $0x0,%eax
    8623:	e9 8d 00 00 00       	jmpq   86b5 <_ZNKSt10_HashtableIiSt4pairIKiNSt7__cxx1112basic_stringIcSt11char_traitsIcESaIcEEEESaIS8_ENSt8__detail10_Select1stESt8equal_toIiESt4hashIiENSA_18_Mod_range_hashingENSA_20_Default_ranged_hashENSA_20_Prime_rehash_policyENSA_17_Hashtable_traitsILb0ELb0ELb1EEEE19_M_find_before_nodeEmRS1_m+0xcf>
    8628:	48 8b 45 f0          	mov    -0x10(%rbp),%rax
    862c:	48 8b 00             	mov    (%rax),%rax
    862f:	48 89 45 f8          	mov    %rax,-0x8(%rbp)
    8633:	48 8b 4d f8          	mov    -0x8(%rbp),%rcx
    8637:	48 8b 55 d0          	mov    -0x30(%rbp),%rdx
    863b:	48 8b 75 d8          	mov    -0x28(%rbp),%rsi
    863f:	48 8b 45 e8          	mov    -0x18(%rbp),%rax
    8643:	48 89 c7             	mov    %rax,%rdi
    8646:	e8 39 0d 00 00       	callq  9384 <_ZNKSt8__detail15_Hashtable_baseIiSt4pairIKiNSt7__cxx1112basic_stringIcSt11char_traitsIcESaIcEEEENS_10_Select1stESt8equal_toIiESt4hashIiENS_18_Mod_range_hashingENS_20_Default_ranged_hashENS_17_Hashtable_traitsILb0ELb0ELb1EEEE9_M_equalsERS2_mPNS_10_Hash_nodeIS9_Lb0EEE>
    864b:	84 c0                	test   %al,%al
    864d:	74 06                	je     8655 <_ZNKSt10_HashtableIiSt4pairIKiNSt7__cxx1112basic_stringIcSt11char_traitsIcESaIcEEEESaIS8_ENSt8__detail10_Select1stESt8equal_toIiESt4hashIiENSA_18_Mod_range_hashingENSA_20_Default_ranged_hashENSA_20_Prime_rehash_policyENSA_17_Hashtable_traitsILb0ELb0ELb1EEEE19_M_find_before_nodeEmRS1_m+0x6f>
    864f:	48 8b 45 f0          	mov    -0x10(%rbp),%rax
    8653:	eb 60                	jmp    86b5 <_ZNKSt10_HashtableIiSt4pairIKiNSt7__cxx1112basic_stringIcSt11char_traitsIcESaIcEEEESaIS8_ENSt8__detail10_Select1stESt8equal_toIiESt4hashIiENSA_18_Mod_range_hashingENSA_20_Default_ranged_hashENSA_20_Prime_rehash_policyENSA_17_Hashtable_traitsILb0ELb0ELb1EEEE19_M_find_before_nodeEmRS1_m+0xcf>
    8655:	48 8b 45 f8          	mov    -0x8(%rbp),%rax
    8659:	48 8b 00             	mov    (%rax),%rax
    865c:	48 85 c0             	test   %rax,%rax
    865f:	74 24                	je     8685 <_ZNKSt10_HashtableIiSt4pairIKiNSt7__cxx1112basic_stringIcSt11char_traitsIcESaIcEEEESaIS8_ENSt8__detail10_Select1stESt8equal_toIiESt4hashIiENSA_18_Mod_range_hashingENSA_20_Default_ranged_hashENSA_20_Prime_rehash_policyENSA_17_Hashtable_traitsILb0ELb0ELb1EEEE19_M_find_before_nodeEmRS1_m+0x9f>
    8661:	48 8b 45 f8          	mov    -0x8(%rbp),%rax
    8665:	48 89 c7             	mov    %rax,%rdi
    8668:	e8 f3 d5 ff ff       	callq  5c60 <_ZNKSt8__detail10_Hash_nodeISt4pairIKiNSt7__cxx1112basic_stringIcSt11char_traitsIcESaIcEEEELb0EE7_M_nextEv>
    866d:	48 89 c2             	mov    %rax,%rdx
    8670:	48 8b 45 e8          	mov    -0x18(%rbp),%rax
    8674:	48 89 d6             	mov    %rdx,%rsi
    8677:	48 89 c7             	mov    %rax,%rdi
    867a:	e8 61 0d 00 00       	callq  93e0 <_ZNKSt10_HashtableIiSt4pairIKiNSt7__cxx1112basic_stringIcSt11char_traitsIcESaIcEEEESaIS8_ENSt8__detail10_Select1stESt8equal_toIiESt4hashIiENSA_18_Mod_range_hashingENSA_20_Default_ranged_hashENSA_20_Prime_rehash_policyENSA_17_Hashtable_traitsILb0ELb0ELb1EEEE15_M_bucket_indexEPNSA_10_Hash_nodeIS8_Lb0EEE>
    867f:	48 39 45 e0          	cmp    %rax,-0x20(%rbp)
    8683:	74 07                	je     868c <_ZNKSt10_HashtableIiSt4pairIKiNSt7__cxx1112basic_stringIcSt11char_traitsIcESaIcEEEESaIS8_ENSt8__detail10_Select1stESt8equal_toIiESt4hashIiENSA_18_Mod_range_hashingENSA_20_Default_ranged_hashENSA_20_Prime_rehash_policyENSA_17_Hashtable_traitsILb0ELb0ELb1EEEE19_M_find_before_nodeEmRS1_m+0xa6>
    8685:	b8 01 00 00 00       	mov    $0x1,%eax
    868a:	eb 05                	jmp    8691 <_ZNKSt10_HashtableIiSt4pairIKiNSt7__cxx1112basic_stringIcSt11char_traitsIcESaIcEEEESaIS8_ENSt8__detail10_Select1stESt8equal_toIiESt4hashIiENSA_18_Mod_range_hashingENSA_20_Default_ranged_hashENSA_20_Prime_rehash_policyENSA_17_Hashtable_traitsILb0ELb0ELb1EEEE19_M_find_before_nodeEmRS1_m+0xab>
    868c:	b8 00 00 00 00       	mov    $0x0,%eax
    8691:	84 c0                	test   %al,%al
    8693:	75 1a                	jne    86af <_ZNKSt10_HashtableIiSt4pairIKiNSt7__cxx1112basic_stringIcSt11char_traitsIcESaIcEEEESaIS8_ENSt8__detail10_Select1stESt8equal_toIiESt4hashIiENSA_18_Mod_range_hashingENSA_20_Default_ranged_hashENSA_20_Prime_rehash_policyENSA_17_Hashtable_traitsILb0ELb0ELb1EEEE19_M_find_before_nodeEmRS1_m+0xc9>
    8695:	48 8b 45 f8          	mov    -0x8(%rbp),%rax
    8699:	48 89 45 f0          	mov    %rax,-0x10(%rbp)
    869d:	48 8b 45 f8          	mov    -0x8(%rbp),%rax
    86a1:	48 89 c7             	mov    %rax,%rdi
    86a4:	e8 b7 d5 ff ff       	callq  5c60 <_ZNKSt8__detail10_Hash_nodeISt4pairIKiNSt7__cxx1112basic_stringIcSt11char_traitsIcESaIcEEEELb0EE7_M_nextEv>
    86a9:	48 89 45 f8          	mov    %rax,-0x8(%rbp)
    86ad:	eb 84                	jmp    8633 <_ZNKSt10_HashtableIiSt4pairIKiNSt7__cxx1112basic_stringIcSt11char_traitsIcESaIcEEEESaIS8_ENSt8__detail10_Select1stESt8equal_toIiESt4hashIiENSA_18_Mod_range_hashingENSA_20_Default_ranged_hashENSA_20_Prime_rehash_policyENSA_17_Hashtable_traitsILb0ELb0ELb1EEEE19_M_find_before_nodeEmRS1_m+0x4d>
    86af:	90                   	nop
    86b0:	b8 00 00 00 00       	mov    $0x0,%eax
    86b5:	c9                   	leaveq 
    86b6:	c3                   	retq   
    86b7:	90                   	nop

00000000000086b8 <_ZNSt8__detail19_Node_iterator_baseISt4pairIKiNSt7__cxx1112basic_stringIcSt11char_traitsIcESaIcEEEELb0EEC1EPNS_10_Hash_nodeIS9_Lb0EEE>:
    86b8:	55                   	push   %rbp
    86b9:	48 89 e5             	mov    %rsp,%rbp
    86bc:	48 89 7d f8          	mov    %rdi,-0x8(%rbp)
    86c0:	48 89 75 f0          	mov    %rsi,-0x10(%rbp)
    86c4:	48 8b 45 f8          	mov    -0x8(%rbp),%rax
    86c8:	48 8b 55 f0          	mov    -0x10(%rbp),%rdx
    86cc:	48 89 10             	mov    %rdx,(%rax)
    86cf:	90                   	nop
    86d0:	5d                   	pop    %rbp
    86d1:	c3                   	retq   

00000000000086d2 <_ZNSt4pairINSt8__detail14_Node_iteratorIS_IKiNSt7__cxx1112basic_stringIcSt11char_traitsIcESaIcEEEELb0ELb0EEEbEC1ISA_bLb1EEEOT_OT0_>:
    86d2:	55                   	push   %rbp
    86d3:	48 89 e5             	mov    %rsp,%rbp
    86d6:	48 83 ec 20          	sub    $0x20,%rsp
    86da:	48 89 7d f8          	mov    %rdi,-0x8(%rbp)
    86de:	48 89 75 f0          	mov    %rsi,-0x10(%rbp)
    86e2:	48 89 55 e8          	mov    %rdx,-0x18(%rbp)
    86e6:	48 8b 45 f0          	mov    -0x10(%rbp),%rax
    86ea:	48 89 c7             	mov    %rax,%rdi
    86ed:	e8 c8 f0 ff ff       	callq  77ba <_ZSt7forwardINSt8__detail14_Node_iteratorISt4pairIKiNSt7__cxx1112basic_stringIcSt11char_traitsIcESaIcEEEELb0ELb0EEEEOT_RNSt16remove_referenceISC_E4typeE>
    86f2:	48 89 c2             	mov    %rax,%rdx
    86f5:	48 8b 45 f8          	mov    -0x8(%rbp),%rax
    86f9:	48 8b 12             	mov    (%rdx),%rdx
    86fc:	48 89 10             	mov    %rdx,(%rax)
    86ff:	48 8b 45 e8          	mov    -0x18(%rbp),%rax
    8703:	48 89 c7             	mov    %rax,%rdi
    8706:	e8 c2 a8 ff ff       	callq  2fcd <_ZSt7forwardIbEOT_RNSt16remove_referenceIS0_E4typeE>
    870b:	0f b6 10             	movzbl (%rax),%edx
    870e:	48 8b 45 f8          	mov    -0x8(%rbp),%rax
    8712:	88 50 08             	mov    %dl,0x8(%rax)
    8715:	90                   	nop
    8716:	c9                   	leaveq 
    8717:	c3                   	retq   

0000000000008718 <_ZNSt8__detail21_Hash_node_value_baseISt4pairIKiNSt7__cxx1112basic_stringIcSt11char_traitsIcESaIcEEEEEC1Ev>:
    8718:	55                   	push   %rbp
    8719:	48 89 e5             	mov    %rsp,%rbp
    871c:	48 83 ec 10          	sub    $0x10,%rsp
    8720:	48 89 7d f8          	mov    %rdi,-0x8(%rbp)
    8724:	48 8b 45 f8          	mov    -0x8(%rbp),%rax
    8728:	48 89 c7             	mov    %rax,%rdi
    872b:	e8 5e a7 ff ff       	callq  2e8e <_ZNSt8__detail15_Hash_node_baseC1Ev>
    8730:	90                   	nop
    8731:	c9                   	leaveq 
    8732:	c3                   	retq   
    8733:	90                   	nop

0000000000008734 <_ZNSt8__detail10_Hash_nodeISt4pairIKiNSt7__cxx1112basic_stringIcSt11char_traitsIcESaIcEEEELb0EEC1Ev>:
    8734:	55                   	push   %rbp
    8735:	48 89 e5             	mov    %rsp,%rbp
    8738:	48 83 ec 10          	sub    $0x10,%rsp
    873c:	48 89 7d f8          	mov    %rdi,-0x8(%rbp)
    8740:	48 8b 45 f8          	mov    -0x8(%rbp),%rax
    8744:	48 89 c7             	mov    %rax,%rdi
    8747:	e8 cc ff ff ff       	callq  8718 <_ZNSt8__detail21_Hash_node_value_baseISt4pairIKiNSt7__cxx1112basic_stringIcSt11char_traitsIcESaIcEEEEEC1Ev>
    874c:	90                   	nop
    874d:	c9                   	leaveq 
    874e:	c3                   	retq   
    874f:	90                   	nop

0000000000008750 <_ZNSt8__detail16_Hashtable_allocISaINS_10_Hash_nodeISt4pairIKiNSt7__cxx1112basic_stringIcSt11char_traitsIcESaIcEEEELb0EEEEE16_M_allocate_nodeIJRKSA_EEEPSB_DpOT_>:
    8750:	55                   	push   %rbp
    8751:	48 89 e5             	mov    %rsp,%rbp
    8754:	53                   	push   %rbx
    8755:	48 83 ec 38          	sub    $0x38,%rsp
    8759:	48 89 7d c8          	mov    %rdi,-0x38(%rbp)
    875d:	48 89 75 c0          	mov    %rsi,-0x40(%rbp)
    8761:	64 48 8b 04 25 28 00 	mov    %fs:0x28,%rax
    8768:	00 00 
    876a:	48 89 45 e8          	mov    %rax,-0x18(%rbp)
    876e:	31 c0                	xor    %eax,%eax
    8770:	48 8b 45 c8          	mov    -0x38(%rbp),%rax
    8774:	48 89 c7             	mov    %rax,%rdi
    8777:	e8 46 e3 ff ff       	callq  6ac2 <_ZNSt8__detail16_Hashtable_allocISaINS_10_Hash_nodeISt4pairIKiNSt7__cxx1112basic_stringIcSt11char_traitsIcESaIcEEEELb0EEEEE17_M_node_allocatorEv>
    877c:	be 01 00 00 00       	mov    $0x1,%esi
    8781:	48 89 c7             	mov    %rax,%rdi
    8784:	e8 84 0c 00 00       	callq  940d <_ZNSt16allocator_traitsISaINSt8__detail10_Hash_nodeISt4pairIKiNSt7__cxx1112basic_stringIcSt11char_traitsIcESaIcEEEELb0EEEEE8allocateERSC_m>
    8789:	48 89 45 d8          	mov    %rax,-0x28(%rbp)
    878d:	48 8b 45 d8          	mov    -0x28(%rbp),%rax
    8791:	48 89 c7             	mov    %rax,%rdi
    8794:	e8 cd 02 00 00       	callq  8a66 <_ZSt11__addressofINSt8__detail10_Hash_nodeISt4pairIKiNSt7__cxx1112basic_stringIcSt11char_traitsIcESaIcEEEELb0EEEEPT_RSC_>
    8799:	48 89 45 e0          	mov    %rax,-0x20(%rbp)
    879d:	48 8b 45 c8          	mov    -0x38(%rbp),%rax
    87a1:	48 89 c7             	mov    %rax,%rdi
    87a4:	e8 19 e3 ff ff       	callq  6ac2 <_ZNSt8__detail16_Hashtable_allocISaINS_10_Hash_nodeISt4pairIKiNSt7__cxx1112basic_stringIcSt11char_traitsIcESaIcEEEELb0EEEEE17_M_node_allocatorEv>
    87a9:	48 89 c2             	mov    %rax,%rdx
    87ac:	48 8d 45 d7          	lea    -0x29(%rbp),%rax
    87b0:	48 89 d6             	mov    %rdx,%rsi
    87b3:	48 89 c7             	mov    %rax,%rdi
    87b6:	e8 21 e3 ff ff       	callq  6adc <_ZNSaISt4pairIKiNSt7__cxx1112basic_stringIcSt11char_traitsIcESaIcEEEEEC1INSt8__detail10_Hash_nodeIS7_Lb0EEEEERKSaIT_E>
    87bb:	48 8b 45 e0          	mov    -0x20(%rbp),%rax
    87bf:	48 89 c6             	mov    %rax,%rsi
    87c2:	bf 30 00 00 00       	mov    $0x30,%edi
    87c7:	e8 e1 a5 ff ff       	callq  2dad <_ZnwmPv>
    87cc:	48 85 c0             	test   %rax,%rax
    87cf:	74 08                	je     87d9 <_ZNSt8__detail16_Hashtable_allocISaINS_10_Hash_nodeISt4pairIKiNSt7__cxx1112basic_stringIcSt11char_traitsIcESaIcEEEELb0EEEEE16_M_allocate_nodeIJRKSA_EEEPSB_DpOT_+0x89>
    87d1:	48 89 c7             	mov    %rax,%rdi
    87d4:	e8 5b ff ff ff       	callq  8734 <_ZNSt8__detail10_Hash_nodeISt4pairIKiNSt7__cxx1112basic_stringIcSt11char_traitsIcESaIcEEEELb0EEC1Ev>
    87d9:	48 8b 45 c0          	mov    -0x40(%rbp),%rax
    87dd:	48 89 c7             	mov    %rax,%rdi
    87e0:	e8 83 e1 ff ff       	callq  6968 <_ZSt7forwardIRKSt4pairIKiNSt7__cxx1112basic_stringIcSt11char_traitsIcESaIcEEEEEOT_RNSt16remove_referenceISB_E4typeE>
    87e5:	48 89 c3             	mov    %rax,%rbx
    87e8:	48 8b 45 e0          	mov    -0x20(%rbp),%rax
    87ec:	48 89 c7             	mov    %rax,%rdi
    87ef:	e8 08 e3 ff ff       	callq  6afc <_ZNSt8__detail21_Hash_node_value_baseISt4pairIKiNSt7__cxx1112basic_stringIcSt11char_traitsIcESaIcEEEEE9_M_valptrEv>
    87f4:	48 89 c1             	mov    %rax,%rcx
    87f7:	48 8d 45 d7          	lea    -0x29(%rbp),%rax
    87fb:	48 89 da             	mov    %rbx,%rdx
    87fe:	48 89 ce             	mov    %rcx,%rsi
    8801:	48 89 c7             	mov    %rax,%rdi
    8804:	e8 2e 0c 00 00       	callq  9437 <_ZNSt16allocator_traitsISaISt4pairIKiNSt7__cxx1112basic_stringIcSt11char_traitsIcESaIcEEEEEE9constructIS8_JRKS8_EEEvRS9_PT_DpOT0_>
    8809:	48 8b 5d e0          	mov    -0x20(%rbp),%rbx
    880d:	48 8d 45 d7          	lea    -0x29(%rbp),%rax
    8811:	48 89 c7             	mov    %rax,%rdi
    8814:	e8 89 bc ff ff       	callq  44a2 <_ZNSaISt4pairIKiNSt7__cxx1112basic_stringIcSt11char_traitsIcESaIcEEEEED1Ev>
    8819:	48 89 d8             	mov    %rbx,%rax
    881c:	48 8b 55 e8          	mov    -0x18(%rbp),%rdx
    8820:	64 48 33 14 25 28 00 	xor    %fs:0x28,%rdx
    8827:	00 00 
    8829:	74 5c                	je     8887 <_ZNSt8__detail16_Hashtable_allocISaINS_10_Hash_nodeISt4pairIKiNSt7__cxx1112basic_stringIcSt11char_traitsIcESaIcEEEELb0EEEEE16_M_allocate_nodeIJRKSA_EEEPSB_DpOT_+0x137>
    882b:	eb 55                	jmp    8882 <_ZNSt8__detail16_Hashtable_allocISaINS_10_Hash_nodeISt4pairIKiNSt7__cxx1112basic_stringIcSt11char_traitsIcESaIcEEEELb0EEEEE16_M_allocate_nodeIJRKSA_EEEPSB_DpOT_+0x132>
    882d:	48 89 c3             	mov    %rax,%rbx
    8830:	48 8d 45 d7          	lea    -0x29(%rbp),%rax
    8834:	48 89 c7             	mov    %rax,%rdi
    8837:	e8 66 bc ff ff       	callq  44a2 <_ZNSaISt4pairIKiNSt7__cxx1112basic_stringIcSt11char_traitsIcESaIcEEEEED1Ev>
    883c:	48 89 d8             	mov    %rbx,%rax
    883f:	48 89 c7             	mov    %rax,%rdi
    8842:	e8 29 8c ff ff       	callq  1470 <__cxa_begin_catch@plt>
    8847:	48 8b 45 c8          	mov    -0x38(%rbp),%rax
    884b:	48 89 c7             	mov    %rax,%rdi
    884e:	e8 6f e2 ff ff       	callq  6ac2 <_ZNSt8__detail16_Hashtable_allocISaINS_10_Hash_nodeISt4pairIKiNSt7__cxx1112basic_stringIcSt11char_traitsIcESaIcEEEELb0EEEEE17_M_node_allocatorEv>
    8853:	48 89 c1             	mov    %rax,%rcx
    8856:	48 8b 45 d8          	mov    -0x28(%rbp),%rax
    885a:	ba 01 00 00 00       	mov    $0x1,%edx
    885f:	48 89 c6             	mov    %rax,%rsi
    8862:	48 89 cf             	mov    %rcx,%rdi
    8865:	e8 d6 e2 ff ff       	callq  6b40 <_ZNSt16allocator_traitsISaINSt8__detail10_Hash_nodeISt4pairIKiNSt7__cxx1112basic_stringIcSt11char_traitsIcESaIcEEEELb0EEEEE10deallocateERSC_PSB_m>
    886a:	e8 41 8d ff ff       	callq  15b0 <__cxa_rethrow@plt>
    886f:	48 89 c3             	mov    %rax,%rbx
    8872:	e8 69 8d ff ff       	callq  15e0 <__cxa_end_catch@plt>
    8877:	48 89 d8             	mov    %rbx,%rax
    887a:	48 89 c7             	mov    %rax,%rdi
    887d:	e8 7e 8d ff ff       	callq  1600 <_Unwind_Resume@plt>
    8882:	e8 d9 8c ff ff       	callq  1560 <__stack_chk_fail@plt>
    8887:	48 83 c4 38          	add    $0x38,%rsp
    888b:	5b                   	pop    %rbx
    888c:	5d                   	pop    %rbp
    888d:	c3                   	retq   

000000000000888e <_ZNSt10_HashtableIiSt4pairIKiNSt7__cxx1112basic_stringIcSt11char_traitsIcESaIcEEEESaIS8_ENSt8__detail10_Select1stESt8equal_toIiESt4hashIiENSA_18_Mod_range_hashingENSA_20_Default_ranged_hashENSA_20_Prime_rehash_policyENSA_17_Hashtable_traitsILb0ELb0ELb1EEEE9_M_rehashEmRKm>:
    888e:	55                   	push   %rbp
    888f:	48 89 e5             	mov    %rsp,%rbp
    8892:	53                   	push   %rbx
    8893:	48 83 ec 38          	sub    $0x38,%rsp
    8897:	48 89 7d d8          	mov    %rdi,-0x28(%rbp)
    889b:	48 89 75 d0          	mov    %rsi,-0x30(%rbp)
    889f:	48 89 55 c8          	mov    %rdx,-0x38(%rbp)
    88a3:	64 48 8b 04 25 28 00 	mov    %fs:0x28,%rax
    88aa:	00 00 
    88ac:	48 89 45 e8          	mov    %rax,-0x18(%rbp)
    88b0:	31 c0                	xor    %eax,%eax
    88b2:	48 8b 55 d0          	mov    -0x30(%rbp),%rdx
    88b6:	48 8b 45 d8          	mov    -0x28(%rbp),%rax
    88ba:	48 83 ec 08          	sub    $0x8,%rsp
    88be:	51                   	push   %rcx
    88bf:	48 89 d6             	mov    %rdx,%rsi
    88c2:	48 89 c7             	mov    %rax,%rdi
    88c5:	e8 a6 0b 00 00       	callq  9470 <_ZNSt10_HashtableIiSt4pairIKiNSt7__cxx1112basic_stringIcSt11char_traitsIcESaIcEEEESaIS8_ENSt8__detail10_Select1stESt8equal_toIiESt4hashIiENSA_18_Mod_range_hashingENSA_20_Default_ranged_hashENSA_20_Prime_rehash_policyENSA_17_Hashtable_traitsILb0ELb0ELb1EEEE13_M_rehash_auxEmSt17integral_constantIbLb1EE>
    88ca:	48 83 c4 10          	add    $0x10,%rsp
    88ce:	90                   	nop
    88cf:	48 8b 45 e8          	mov    -0x18(%rbp),%rax
    88d3:	64 48 33 04 25 28 00 	xor    %fs:0x28,%rax
    88da:	00 00 
    88dc:	74 41                	je     891f <_ZNSt10_HashtableIiSt4pairIKiNSt7__cxx1112basic_stringIcSt11char_traitsIcESaIcEEEESaIS8_ENSt8__detail10_Select1stESt8equal_toIiESt4hashIiENSA_18_Mod_range_hashingENSA_20_Default_ranged_hashENSA_20_Prime_rehash_policyENSA_17_Hashtable_traitsILb0ELb0ELb1EEEE9_M_rehashEmRKm+0x91>
    88de:	eb 3a                	jmp    891a <_ZNSt10_HashtableIiSt4pairIKiNSt7__cxx1112basic_stringIcSt11char_traitsIcESaIcEEEESaIS8_ENSt8__detail10_Select1stESt8equal_toIiESt4hashIiENSA_18_Mod_range_hashingENSA_20_Default_ranged_hashENSA_20_Prime_rehash_policyENSA_17_Hashtable_traitsILb0ELb0ELb1EEEE9_M_rehashEmRKm+0x8c>
    88e0:	48 89 c7             	mov    %rax,%rdi
    88e3:	e8 88 8b ff ff       	callq  1470 <__cxa_begin_catch@plt>
    88e8:	48 8b 45 d8          	mov    -0x28(%rbp),%rax
    88ec:	48 8d 50 20          	lea    0x20(%rax),%rdx
    88f0:	48 8b 45 c8          	mov    -0x38(%rbp),%rax
    88f4:	48 8b 00             	mov    (%rax),%rax
    88f7:	48 89 c6             	mov    %rax,%rsi
    88fa:	48 89 d7             	mov    %rdx,%rdi
    88fd:	e8 b0 a6 ff ff       	callq  2fb2 <_ZNSt8__detail20_Prime_rehash_policy8_M_resetEm>
    8902:	e8 a9 8c ff ff       	callq  15b0 <__cxa_rethrow@plt>
    8907:	48 89 c3             	mov    %rax,%rbx
    890a:	e8 d1 8c ff ff       	callq  15e0 <__cxa_end_catch@plt>
    890f:	48 89 d8             	mov    %rbx,%rax
    8912:	48 89 c7             	mov    %rax,%rdi
    8915:	e8 e6 8c ff ff       	callq  1600 <_Unwind_Resume@plt>
    891a:	e8 41 8c ff ff       	callq  1560 <__stack_chk_fail@plt>
    891f:	48 8b 5d f8          	mov    -0x8(%rbp),%rbx
    8923:	c9                   	leaveq 
    8924:	c3                   	retq   
    8925:	90                   	nop

0000000000008926 <_ZNSt8__detail21_Hash_node_value_baseISt4pairIKiNSt7__cxx1112basic_stringIcSt11char_traitsIcESaIcEEEEE4_M_vEv>:
    8926:	55                   	push   %rbp
    8927:	48 89 e5             	mov    %rsp,%rbp
    892a:	48 83 ec 10          	sub    $0x10,%rsp
    892e:	48 89 7d f8          	mov    %rdi,-0x8(%rbp)
    8932:	48 8b 45 f8          	mov    -0x8(%rbp),%rax
    8936:	48 89 c7             	mov    %rax,%rdi
    8939:	e8 be e1 ff ff       	callq  6afc <_ZNSt8__detail21_Hash_node_value_baseISt4pairIKiNSt7__cxx1112basic_stringIcSt11char_traitsIcESaIcEEEEE9_M_valptrEv>
    893e:	c9                   	leaveq 
    893f:	c3                   	retq   

0000000000008940 <_ZNKSt8__detail10_Select1stclIRSt4pairIKiNSt7__cxx1112basic_stringIcSt11char_traitsIcESaIcEEEEEEDTcl3getILi0EEcl7forwardIT_Efp_EEEOSC_>:
    8940:	55                   	push   %rbp
    8941:	48 89 e5             	mov    %rsp,%rbp
    8944:	48 83 ec 10          	sub    $0x10,%rsp
    8948:	48 89 7d f8          	mov    %rdi,-0x8(%rbp)
    894c:	48 89 75 f0          	mov    %rsi,-0x10(%rbp)
    8950:	48 8b 45 f0          	mov    -0x10(%rbp),%rax
    8954:	48 89 c7             	mov    %rax,%rdi
    8957:	e8 16 ef ff ff       	callq  7872 <_ZSt7forwardIRSt4pairIKiNSt7__cxx1112basic_stringIcSt11char_traitsIcESaIcEEEEEOT_RNSt16remove_referenceISA_E4typeE>
    895c:	48 89 c7             	mov    %rax,%rdi
    895f:	e8 81 0c 00 00       	callq  95e5 <_ZSt3getILm0EKiNSt7__cxx1112basic_stringIcSt11char_traitsIcESaIcEEEERNSt13tuple_elementIXT_ESt4pairIT0_T1_EE4typeERSB_>
    8964:	c9                   	leaveq 
    8965:	c3                   	retq   

0000000000008966 <_ZNKSt8__detail15_Hash_code_baseIiSt4pairIKiNSt7__cxx1112basic_stringIcSt11char_traitsIcESaIcEEEENS_10_Select1stESt4hashIiENS_18_Mod_range_hashingENS_20_Default_ranged_hashELb0EE13_M_store_codeEPNS_10_Hash_nodeIS9_Lb0EEEm>:
    8966:	55                   	push   %rbp
    8967:	48 89 e5             	mov    %rsp,%rbp
    896a:	48 89 7d f8          	mov    %rdi,-0x8(%rbp)
    896e:	48 89 75 f0          	mov    %rsi,-0x10(%rbp)
    8972:	48 89 55 e8          	mov    %rdx,-0x18(%rbp)
    8976:	90                   	nop
    8977:	5d                   	pop    %rbp
    8978:	c3                   	retq   
    8979:	90                   	nop

000000000000897a <_ZNSt10_HashtableIiSt4pairIKiNSt7__cxx1112basic_stringIcSt11char_traitsIcESaIcEEEESaIS8_ENSt8__detail10_Select1stESt8equal_toIiESt4hashIiENSA_18_Mod_range_hashingENSA_20_Default_ranged_hashENSA_20_Prime_rehash_policyENSA_17_Hashtable_traitsILb0ELb0ELb1EEEE22_M_insert_bucket_beginEmPNSA_10_Hash_nodeIS8_Lb0EEE>:
    897a:	55                   	push   %rbp
    897b:	48 89 e5             	mov    %rsp,%rbp
    897e:	53                   	push   %rbx
    897f:	48 83 ec 28          	sub    $0x28,%rsp
    8983:	48 89 7d e8          	mov    %rdi,-0x18(%rbp)
    8987:	48 89 75 e0          	mov    %rsi,-0x20(%rbp)
    898b:	48 89 55 d8          	mov    %rdx,-0x28(%rbp)
    898f:	48 8b 45 e8          	mov    -0x18(%rbp),%rax
    8993:	48 8b 00             	mov    (%rax),%rax
    8996:	48 8b 55 e0          	mov    -0x20(%rbp),%rdx
    899a:	48 c1 e2 03          	shl    $0x3,%rdx
    899e:	48 01 d0             	add    %rdx,%rax
    89a1:	48 8b 00             	mov    (%rax),%rax
    89a4:	48 85 c0             	test   %rax,%rax
    89a7:	74 3d                	je     89e6 <_ZNSt10_HashtableIiSt4pairIKiNSt7__cxx1112basic_stringIcSt11char_traitsIcESaIcEEEESaIS8_ENSt8__detail10_Select1stESt8equal_toIiESt4hashIiENSA_18_Mod_range_hashingENSA_20_Default_ranged_hashENSA_20_Prime_rehash_policyENSA_17_Hashtable_traitsILb0ELb0ELb1EEEE22_M_insert_bucket_beginEmPNSA_10_Hash_nodeIS8_Lb0EEE+0x6c>
    89a9:	48 8b 45 e8          	mov    -0x18(%rbp),%rax
    89ad:	48 8b 00             	mov    (%rax),%rax
    89b0:	48 8b 55 e0          	mov    -0x20(%rbp),%rdx
    89b4:	48 c1 e2 03          	shl    $0x3,%rdx
    89b8:	48 01 d0             	add    %rdx,%rax
    89bb:	48 8b 00             	mov    (%rax),%rax
    89be:	48 8b 10             	mov    (%rax),%rdx
    89c1:	48 8b 45 d8          	mov    -0x28(%rbp),%rax
    89c5:	48 89 10             	mov    %rdx,(%rax)
    89c8:	48 8b 45 e8          	mov    -0x18(%rbp),%rax
    89cc:	48 8b 00             	mov    (%rax),%rax
    89cf:	48 8b 55 e0          	mov    -0x20(%rbp),%rdx
    89d3:	48 c1 e2 03          	shl    $0x3,%rdx
    89d7:	48 01 d0             	add    %rdx,%rax
    89da:	48 8b 00             	mov    (%rax),%rax
    89dd:	48 8b 55 d8          	mov    -0x28(%rbp),%rdx
    89e1:	48 89 10             	mov    %rdx,(%rax)
    89e4:	eb 78                	jmp    8a5e <_ZNSt10_HashtableIiSt4pairIKiNSt7__cxx1112basic_stringIcSt11char_traitsIcESaIcEEEESaIS8_ENSt8__detail10_Select1stESt8equal_toIiESt4hashIiENSA_18_Mod_range_hashingENSA_20_Default_ranged_hashENSA_20_Prime_rehash_policyENSA_17_Hashtable_traitsILb0ELb0ELb1EEEE22_M_insert_bucket_beginEmPNSA_10_Hash_nodeIS8_Lb0EEE+0xe4>
    89e6:	48 8b 45 e8          	mov    -0x18(%rbp),%rax
    89ea:	48 8b 50 10          	mov    0x10(%rax),%rdx
    89ee:	48 8b 45 d8          	mov    -0x28(%rbp),%rax
    89f2:	48 89 10             	mov    %rdx,(%rax)
    89f5:	48 8b 45 e8          	mov    -0x18(%rbp),%rax
    89f9:	48 8b 55 d8          	mov    -0x28(%rbp),%rdx
    89fd:	48 89 50 10          	mov    %rdx,0x10(%rax)
    8a01:	48 8b 45 d8          	mov    -0x28(%rbp),%rax
    8a05:	48 8b 00             	mov    (%rax),%rax
    8a08:	48 85 c0             	test   %rax,%rax
    8a0b:	74 34                	je     8a41 <_ZNSt10_HashtableIiSt4pairIKiNSt7__cxx1112basic_stringIcSt11char_traitsIcESaIcEEEESaIS8_ENSt8__detail10_Select1stESt8equal_toIiESt4hashIiENSA_18_Mod_range_hashingENSA_20_Default_ranged_hashENSA_20_Prime_rehash_policyENSA_17_Hashtable_traitsILb0ELb0ELb1EEEE22_M_insert_bucket_beginEmPNSA_10_Hash_nodeIS8_Lb0EEE+0xc7>
    8a0d:	48 8b 45 e8          	mov    -0x18(%rbp),%rax
    8a11:	48 8b 18             	mov    (%rax),%rbx
    8a14:	48 8b 45 d8          	mov    -0x28(%rbp),%rax
    8a18:	48 89 c7             	mov    %rax,%rdi
    8a1b:	e8 40 d2 ff ff       	callq  5c60 <_ZNKSt8__detail10_Hash_nodeISt4pairIKiNSt7__cxx1112basic_stringIcSt11char_traitsIcESaIcEEEELb0EE7_M_nextEv>
    8a20:	48 89 c2             	mov    %rax,%rdx
    8a23:	48 8b 45 e8          	mov    -0x18(%rbp),%rax
    8a27:	48 89 d6             	mov    %rdx,%rsi
    8a2a:	48 89 c7             	mov    %rax,%rdi
    8a2d:	e8 ae 09 00 00       	callq  93e0 <_ZNKSt10_HashtableIiSt4pairIKiNSt7__cxx1112basic_stringIcSt11char_traitsIcESaIcEEEESaIS8_ENSt8__detail10_Select1stESt8equal_toIiESt4hashIiENSA_18_Mod_range_hashingENSA_20_Default_ranged_hashENSA_20_Prime_rehash_policyENSA_17_Hashtable_traitsILb0ELb0ELb1EEEE15_M_bucket_indexEPNSA_10_Hash_nodeIS8_Lb0EEE>
    8a32:	48 c1 e0 03          	shl    $0x3,%rax
    8a36:	48 8d 14 03          	lea    (%rbx,%rax,1),%rdx
    8a3a:	48 8b 45 d8          	mov    -0x28(%rbp),%rax
    8a3e:	48 89 02             	mov    %rax,(%rdx)
    8a41:	48 8b 45 e8          	mov    -0x18(%rbp),%rax
    8a45:	48 8b 00             	mov    (%rax),%rax
    8a48:	48 8b 55 e0          	mov    -0x20(%rbp),%rdx
    8a4c:	48 c1 e2 03          	shl    $0x3,%rdx
    8a50:	48 01 d0             	add    %rdx,%rax
    8a53:	48 8b 55 e8          	mov    -0x18(%rbp),%rdx
    8a57:	48 83 c2 10          	add    $0x10,%rdx
    8a5b:	48 89 10             	mov    %rdx,(%rax)
    8a5e:	90                   	nop
    8a5f:	48 83 c4 28          	add    $0x28,%rsp
    8a63:	5b                   	pop    %rbx
    8a64:	5d                   	pop    %rbp
    8a65:	c3                   	retq   

0000000000008a66 <_ZSt11__addressofINSt8__detail10_Hash_nodeISt4pairIKiNSt7__cxx1112basic_stringIcSt11char_traitsIcESaIcEEEELb0EEEEPT_RSC_>:
    8a66:	55                   	push   %rbp
    8a67:	48 89 e5             	mov    %rsp,%rbp
    8a6a:	48 89 7d f8          	mov    %rdi,-0x8(%rbp)
    8a6e:	48 8b 45 f8          	mov    -0x8(%rbp),%rax
    8a72:	5d                   	pop    %rbp
    8a73:	c3                   	retq   

0000000000008a74 <_ZN9__gnu_cxx16__aligned_bufferISt4pairIKiNSt7__cxx1112basic_stringIcSt11char_traitsIcESaIcEEEEE7_M_addrEv>:
    8a74:	55                   	push   %rbp
    8a75:	48 89 e5             	mov    %rsp,%rbp
    8a78:	48 89 7d f8          	mov    %rdi,-0x8(%rbp)
    8a7c:	48 8b 45 f8          	mov    -0x8(%rbp),%rax
    8a80:	5d                   	pop    %rbp
    8a81:	c3                   	retq   

0000000000008a82 <_ZSt7forwardIRKSt4hashINSt7__cxx1112basic_stringIcSt11char_traitsIcESaIcEEEEEOT_RNSt16remove_referenceISA_E4typeE>:
    8a82:	55                   	push   %rbp
    8a83:	48 89 e5             	mov    %rsp,%rbp
    8a86:	48 89 7d f8          	mov    %rdi,-0x8(%rbp)
    8a8a:	48 8b 45 f8          	mov    -0x8(%rbp),%rax
    8a8e:	5d                   	pop    %rbp
    8a8f:	c3                   	retq   

0000000000008a90 <_ZNSt8__detail21_Hashtable_ebo_helperILi1ESt4hashINSt7__cxx1112basic_stringIcSt11char_traitsIcESaIcEEEELb1EEC1IRKS8_EEOT_>:
    8a90:	55                   	push   %rbp
    8a91:	48 89 e5             	mov    %rsp,%rbp
    8a94:	48 83 ec 10          	sub    $0x10,%rsp
    8a98:	48 89 7d f8          	mov    %rdi,-0x8(%rbp)
    8a9c:	48 89 75 f0          	mov    %rsi,-0x10(%rbp)
    8aa0:	48 8b 45 f0          	mov    -0x10(%rbp),%rax
    8aa4:	48 89 c7             	mov    %rax,%rdi
    8aa7:	e8 d6 ff ff ff       	callq  8a82 <_ZSt7forwardIRKSt4hashINSt7__cxx1112basic_stringIcSt11char_traitsIcESaIcEEEEEOT_RNSt16remove_referenceISA_E4typeE>
    8aac:	90                   	nop
    8aad:	c9                   	leaveq 
    8aae:	c3                   	retq   
    8aaf:	90                   	nop

0000000000008ab0 <_ZNSaINSt8__detail10_Hash_nodeISt4pairIKNSt7__cxx1112basic_stringIcSt11char_traitsIcESaIcEEEmELb1EEEEC1ERKSB_>:
    8ab0:	55                   	push   %rbp
    8ab1:	48 89 e5             	mov    %rsp,%rbp
    8ab4:	48 83 ec 10          	sub    $0x10,%rsp
    8ab8:	48 89 7d f8          	mov    %rdi,-0x8(%rbp)
    8abc:	48 89 75 f0          	mov    %rsi,-0x10(%rbp)
    8ac0:	48 8b 55 f0          	mov    -0x10(%rbp),%rdx
    8ac4:	48 8b 45 f8          	mov    -0x8(%rbp),%rax
    8ac8:	48 89 d6             	mov    %rdx,%rsi
    8acb:	48 89 c7             	mov    %rax,%rdi
    8ace:	e8 2d 0b 00 00       	callq  9600 <_ZN9__gnu_cxx13new_allocatorINSt8__detail10_Hash_nodeISt4pairIKNSt7__cxx1112basic_stringIcSt11char_traitsIcESaIcEEEmELb1EEEEC1ERKSD_>
    8ad3:	90                   	nop
    8ad4:	c9                   	leaveq 
    8ad5:	c3                   	retq   

0000000000008ad6 <_ZSt10__distanceIPKSt4pairIKNSt7__cxx1112basic_stringIcSt11char_traitsIcESaIcEEEmEENSt15iterator_traitsIT_E15difference_typeESC_SC_St26random_access_iterator_tag>:
    8ad6:	55                   	push   %rbp
    8ad7:	48 89 e5             	mov    %rsp,%rbp
    8ada:	48 89 7d f8          	mov    %rdi,-0x8(%rbp)
    8ade:	48 89 75 f0          	mov    %rsi,-0x10(%rbp)
    8ae2:	48 8b 55 f0          	mov    -0x10(%rbp),%rdx
    8ae6:	48 8b 45 f8          	mov    -0x8(%rbp),%rax
    8aea:	48 29 c2             	sub    %rax,%rdx
    8aed:	48 89 d0             	mov    %rdx,%rax
    8af0:	48 c1 f8 03          	sar    $0x3,%rax
    8af4:	48 89 c2             	mov    %rax,%rdx
    8af7:	48 b8 cd cc cc cc cc 	movabs $0xcccccccccccccccd,%rax
    8afe:	cc cc cc 
    8b01:	48 0f af c2          	imul   %rdx,%rax
    8b05:	5d                   	pop    %rbp
    8b06:	c3                   	retq   

0000000000008b07 <_ZSt3getILm0EKNSt7__cxx1112basic_stringIcSt11char_traitsIcESaIcEEEmERKNSt13tuple_elementIXT_ESt4pairIT0_T1_EE4typeERKSB_>:
    8b07:	55                   	push   %rbp
    8b08:	48 89 e5             	mov    %rsp,%rbp
    8b0b:	48 83 ec 10          	sub    $0x10,%rsp
    8b0f:	48 89 7d f8          	mov    %rdi,-0x8(%rbp)
    8b13:	48 8b 45 f8          	mov    -0x8(%rbp),%rax
    8b17:	48 89 c7             	mov    %rax,%rdi
    8b1a:	e8 f0 0a 00 00       	callq  960f <_ZNSt10__pair_getILm0EE11__const_getIKNSt7__cxx1112basic_stringIcSt11char_traitsIcESaIcEEEmEERKT_RKSt4pairIS9_T0_E>
    8b1f:	c9                   	leaveq 
    8b20:	c3                   	retq   
    8b21:	90                   	nop

0000000000008b22 <_ZNKSt8__detail15_Hash_code_baseINSt7__cxx1112basic_stringIcSt11char_traitsIcESaIcEEESt4pairIKS6_mENS_10_Select1stESt4hashIS6_ENS_18_Mod_range_hashingENS_20_Default_ranged_hashELb1EE5_M_h1Ev>:
    8b22:	55                   	push   %rbp
    8b23:	48 89 e5             	mov    %rsp,%rbp
    8b26:	48 83 ec 10          	sub    $0x10,%rsp
    8b2a:	48 89 7d f8          	mov    %rdi,-0x8(%rbp)
    8b2e:	48 8b 45 f8          	mov    -0x8(%rbp),%rax
    8b32:	48 89 c7             	mov    %rax,%rdi
    8b35:	e8 e3 0a 00 00       	callq  961d <_ZNSt8__detail21_Hashtable_ebo_helperILi1ESt4hashINSt7__cxx1112basic_stringIcSt11char_traitsIcESaIcEEEELb1EE7_S_cgetERKS9_>
    8b3a:	c9                   	leaveq 
    8b3b:	c3                   	retq   

0000000000008b3c <_ZNKSt8__detail15_Hash_code_baseINSt7__cxx1112basic_stringIcSt11char_traitsIcESaIcEEESt4pairIKS6_mENS_10_Select1stESt4hashIS6_ENS_18_Mod_range_hashingENS_20_Default_ranged_hashELb1EE15_M_bucket_indexERS8_mm>:
    8b3c:	55                   	push   %rbp
    8b3d:	48 89 e5             	mov    %rsp,%rbp
    8b40:	48 83 ec 20          	sub    $0x20,%rsp
    8b44:	48 89 7d f8          	mov    %rdi,-0x8(%rbp)
    8b48:	48 89 75 f0          	mov    %rsi,-0x10(%rbp)
    8b4c:	48 89 55 e8          	mov    %rdx,-0x18(%rbp)
    8b50:	48 89 4d e0          	mov    %rcx,-0x20(%rbp)
    8b54:	48 8b 45 f8          	mov    -0x8(%rbp),%rax
    8b58:	48 89 c7             	mov    %rax,%rdi
    8b5b:	e8 cc 0a 00 00       	callq  962c <_ZNKSt8__detail15_Hash_code_baseINSt7__cxx1112basic_stringIcSt11char_traitsIcESaIcEEESt4pairIKS6_mENS_10_Select1stESt4hashIS6_ENS_18_Mod_range_hashingENS_20_Default_ranged_hashELb1EE5_M_h2Ev>
    8b60:	48 89 c1             	mov    %rax,%rcx
    8b63:	48 8b 55 e0          	mov    -0x20(%rbp),%rdx
    8b67:	48 8b 45 e8          	mov    -0x18(%rbp),%rax
    8b6b:	48 89 c6             	mov    %rax,%rsi
    8b6e:	48 89 cf             	mov    %rcx,%rdi
    8b71:	e8 2e a3 ff ff       	callq  2ea4 <_ZNKSt8__detail18_Mod_range_hashingclEmm>
    8b76:	c9                   	leaveq 
    8b77:	c3                   	retq   

0000000000008b78 <_ZNKSt10_HashtableINSt7__cxx1112basic_stringIcSt11char_traitsIcESaIcEEESt4pairIKS5_mESaIS8_ENSt8__detail10_Select1stESt8equal_toIS5_ESt4hashIS5_ENSA_18_Mod_range_hashingENSA_20_Default_ranged_hashENSA_20_Prime_rehash_policyENSA_17_Hashtable_traitsILb1ELb0ELb1EEEE19_M_find_before_nodeEmRS7_m>:
    8b78:	55                   	push   %rbp
    8b79:	48 89 e5             	mov    %rsp,%rbp
    8b7c:	48 83 ec 30          	sub    $0x30,%rsp
    8b80:	48 89 7d e8          	mov    %rdi,-0x18(%rbp)
    8b84:	48 89 75 e0          	mov    %rsi,-0x20(%rbp)
    8b88:	48 89 55 d8          	mov    %rdx,-0x28(%rbp)
    8b8c:	48 89 4d d0          	mov    %rcx,-0x30(%rbp)
    8b90:	48 8b 45 e8          	mov    -0x18(%rbp),%rax
    8b94:	48 8b 00             	mov    (%rax),%rax
    8b97:	48 8b 55 e0          	mov    -0x20(%rbp),%rdx
    8b9b:	48 c1 e2 03          	shl    $0x3,%rdx
    8b9f:	48 01 d0             	add    %rdx,%rax
    8ba2:	48 8b 00             	mov    (%rax),%rax
    8ba5:	48 89 45 f0          	mov    %rax,-0x10(%rbp)
    8ba9:	48 83 7d f0 00       	cmpq   $0x0,-0x10(%rbp)
    8bae:	75 0a                	jne    8bba <_ZNKSt10_HashtableINSt7__cxx1112basic_stringIcSt11char_traitsIcESaIcEEESt4pairIKS5_mESaIS8_ENSt8__detail10_Select1stESt8equal_toIS5_ESt4hashIS5_ENSA_18_Mod_range_hashingENSA_20_Default_ranged_hashENSA_20_Prime_rehash_policyENSA_17_Hashtable_traitsILb1ELb0ELb1EEEE19_M_find_before_nodeEmRS7_m+0x42>
    8bb0:	b8 00 00 00 00       	mov    $0x0,%eax
    8bb5:	e9 8d 00 00 00       	jmpq   8c47 <_ZNKSt10_HashtableINSt7__cxx1112basic_stringIcSt11char_traitsIcESaIcEEESt4pairIKS5_mESaIS8_ENSt8__detail10_Select1stESt8equal_toIS5_ESt4hashIS5_ENSA_18_Mod_range_hashingENSA_20_Default_ranged_hashENSA_20_Prime_rehash_policyENSA_17_Hashtable_traitsILb1ELb0ELb1EEEE19_M_find_before_nodeEmRS7_m+0xcf>
    8bba:	48 8b 45 f0          	mov    -0x10(%rbp),%rax
    8bbe:	48 8b 00             	mov    (%rax),%rax
    8bc1:	48 89 45 f8          	mov    %rax,-0x8(%rbp)
    8bc5:	48 8b 4d f8          	mov    -0x8(%rbp),%rcx
    8bc9:	48 8b 55 d0          	mov    -0x30(%rbp),%rdx
    8bcd:	48 8b 75 d8          	mov    -0x28(%rbp),%rsi
    8bd1:	48 8b 45 e8          	mov    -0x18(%rbp),%rax
    8bd5:	48 89 c7             	mov    %rax,%rdi
    8bd8:	e8 69 0a 00 00       	callq  9646 <_ZNKSt8__detail15_Hashtable_baseINSt7__cxx1112basic_stringIcSt11char_traitsIcESaIcEEESt4pairIKS6_mENS_10_Select1stESt8equal_toIS6_ESt4hashIS6_ENS_18_Mod_range_hashingENS_20_Default_ranged_hashENS_17_Hashtable_traitsILb1ELb0ELb1EEEE9_M_equalsERS8_mPNS_10_Hash_nodeIS9_Lb1EEE>
    8bdd:	84 c0                	test   %al,%al
    8bdf:	74 06                	je     8be7 <_ZNKSt10_HashtableINSt7__cxx1112basic_stringIcSt11char_traitsIcESaIcEEESt4pairIKS5_mESaIS8_ENSt8__detail10_Select1stESt8equal_toIS5_ESt4hashIS5_ENSA_18_Mod_range_hashingENSA_20_Default_ranged_hashENSA_20_Prime_rehash_policyENSA_17_Hashtable_traitsILb1ELb0ELb1EEEE19_M_find_before_nodeEmRS7_m+0x6f>
    8be1:	48 8b 45 f0          	mov    -0x10(%rbp),%rax
    8be5:	eb 60                	jmp    8c47 <_ZNKSt10_HashtableINSt7__cxx1112basic_stringIcSt11char_traitsIcESaIcEEESt4pairIKS5_mESaIS8_ENSt8__detail10_Select1stESt8equal_toIS5_ESt4hashIS5_ENSA_18_Mod_range_hashingENSA_20_Default_ranged_hashENSA_20_Prime_rehash_policyENSA_17_Hashtable_traitsILb1ELb0ELb1EEEE19_M_find_before_nodeEmRS7_m+0xcf>
    8be7:	48 8b 45 f8          	mov    -0x8(%rbp),%rax
    8beb:	48 8b 00             	mov    (%rax),%rax
    8bee:	48 85 c0             	test   %rax,%rax
    8bf1:	74 24                	je     8c17 <_ZNKSt10_HashtableINSt7__cxx1112basic_stringIcSt11char_traitsIcESaIcEEESt4pairIKS5_mESaIS8_ENSt8__detail10_Select1stESt8equal_toIS5_ESt4hashIS5_ENSA_18_Mod_range_hashingENSA_20_Default_ranged_hashENSA_20_Prime_rehash_policyENSA_17_Hashtable_traitsILb1ELb0ELb1EEEE19_M_find_before_nodeEmRS7_m+0x9f>
    8bf3:	48 8b 45 f8          	mov    -0x8(%rbp),%rax
    8bf7:	48 89 c7             	mov    %rax,%rdi
    8bfa:	e8 ff c9 ff ff       	callq  55fe <_ZNKSt8__detail10_Hash_nodeISt4pairIKNSt7__cxx1112basic_stringIcSt11char_traitsIcESaIcEEEmELb1EE7_M_nextEv>
    8bff:	48 89 c2             	mov    %rax,%rdx
    8c02:	48 8b 45 e8          	mov    -0x18(%rbp),%rax
    8c06:	48 89 d6             	mov    %rdx,%rsi
    8c09:	48 89 c7             	mov    %rax,%rdi
    8c0c:	e8 91 0a 00 00       	callq  96a2 <_ZNKSt10_HashtableINSt7__cxx1112basic_stringIcSt11char_traitsIcESaIcEEESt4pairIKS5_mESaIS8_ENSt8__detail10_Select1stESt8equal_toIS5_ESt4hashIS5_ENSA_18_Mod_range_hashingENSA_20_Default_ranged_hashENSA_20_Prime_rehash_policyENSA_17_Hashtable_traitsILb1ELb0ELb1EEEE15_M_bucket_indexEPNSA_10_Hash_nodeIS8_Lb1EEE>
    8c11:	48 39 45 e0          	cmp    %rax,-0x20(%rbp)
    8c15:	74 07                	je     8c1e <_ZNKSt10_HashtableINSt7__cxx1112basic_stringIcSt11char_traitsIcESaIcEEESt4pairIKS5_mESaIS8_ENSt8__detail10_Select1stESt8equal_toIS5_ESt4hashIS5_ENSA_18_Mod_range_hashingENSA_20_Default_ranged_hashENSA_20_Prime_rehash_policyENSA_17_Hashtable_traitsILb1ELb0ELb1EEEE19_M_find_before_nodeEmRS7_m+0xa6>
    8c17:	b8 01 00 00 00       	mov    $0x1,%eax
    8c1c:	eb 05                	jmp    8c23 <_ZNKSt10_HashtableINSt7__cxx1112basic_stringIcSt11char_traitsIcESaIcEEESt4pairIKS5_mESaIS8_ENSt8__detail10_Select1stESt8equal_toIS5_ESt4hashIS5_ENSA_18_Mod_range_hashingENSA_20_Default_ranged_hashENSA_20_Prime_rehash_policyENSA_17_Hashtable_traitsILb1ELb0ELb1EEEE19_M_find_before_nodeEmRS7_m+0xab>
    8c1e:	b8 00 00 00 00       	mov    $0x0,%eax
    8c23:	84 c0                	test   %al,%al
    8c25:	75 1a                	jne    8c41 <_ZNKSt10_HashtableINSt7__cxx1112basic_stringIcSt11char_traitsIcESaIcEEESt4pairIKS5_mESaIS8_ENSt8__detail10_Select1stESt8equal_toIS5_ESt4hashIS5_ENSA_18_Mod_range_hashingENSA_20_Default_ranged_hashENSA_20_Prime_rehash_policyENSA_17_Hashtable_traitsILb1ELb0ELb1EEEE19_M_find_before_nodeEmRS7_m+0xc9>
    8c27:	48 8b 45 f8          	mov    -0x8(%rbp),%rax
    8c2b:	48 89 45 f0          	mov    %rax,-0x10(%rbp)
    8c2f:	48 8b 45 f8          	mov    -0x8(%rbp),%rax
    8c33:	48 89 c7             	mov    %rax,%rdi
    8c36:	e8 c3 c9 ff ff       	callq  55fe <_ZNKSt8__detail10_Hash_nodeISt4pairIKNSt7__cxx1112basic_stringIcSt11char_traitsIcESaIcEEEmELb1EE7_M_nextEv>
    8c3b:	48 89 45 f8          	mov    %rax,-0x8(%rbp)
    8c3f:	eb 84                	jmp    8bc5 <_ZNKSt10_HashtableINSt7__cxx1112basic_stringIcSt11char_traitsIcESaIcEEESt4pairIKS5_mESaIS8_ENSt8__detail10_Select1stESt8equal_toIS5_ESt4hashIS5_ENSA_18_Mod_range_hashingENSA_20_Default_ranged_hashENSA_20_Prime_rehash_policyENSA_17_Hashtable_traitsILb1ELb0ELb1EEEE19_M_find_before_nodeEmRS7_m+0x4d>
    8c41:	90                   	nop
    8c42:	b8 00 00 00 00       	mov    $0x0,%eax
    8c47:	c9                   	leaveq 
    8c48:	c3                   	retq   
    8c49:	90                   	nop

0000000000008c4a <_ZNSt4pairINSt8__detail14_Node_iteratorIS_IKNSt7__cxx1112basic_stringIcSt11char_traitsIcESaIcEEEmELb0ELb1EEEbEC1ISA_bLb1EEEOT_OT0_>:
    8c4a:	55                   	push   %rbp
    8c4b:	48 89 e5             	mov    %rsp,%rbp
    8c4e:	48 83 ec 20          	sub    $0x20,%rsp
    8c52:	48 89 7d f8          	mov    %rdi,-0x8(%rbp)
    8c56:	48 89 75 f0          	mov    %rsi,-0x10(%rbp)
    8c5a:	48 89 55 e8          	mov    %rdx,-0x18(%rbp)
    8c5e:	48 8b 45 f0          	mov    -0x10(%rbp),%rax
    8c62:	48 89 c7             	mov    %rax,%rdi
    8c65:	e8 37 f0 ff ff       	callq  7ca1 <_ZSt7forwardINSt8__detail14_Node_iteratorISt4pairIKNSt7__cxx1112basic_stringIcSt11char_traitsIcESaIcEEEmELb0ELb1EEEEOT_RNSt16remove_referenceISC_E4typeE>
    8c6a:	48 89 c2             	mov    %rax,%rdx
    8c6d:	48 8b 45 f8          	mov    -0x8(%rbp),%rax
    8c71:	48 8b 12             	mov    (%rdx),%rdx
    8c74:	48 89 10             	mov    %rdx,(%rax)
    8c77:	48 8b 45 e8          	mov    -0x18(%rbp),%rax
    8c7b:	48 89 c7             	mov    %rax,%rdi
    8c7e:	e8 4a a3 ff ff       	callq  2fcd <_ZSt7forwardIbEOT_RNSt16remove_referenceIS0_E4typeE>
    8c83:	0f b6 10             	movzbl (%rax),%edx
    8c86:	48 8b 45 f8          	mov    -0x8(%rbp),%rax
    8c8a:	88 50 08             	mov    %dl,0x8(%rax)
    8c8d:	90                   	nop
    8c8e:	c9                   	leaveq 
    8c8f:	c3                   	retq   

0000000000008c90 <_ZNSt8__detail21_Hash_node_value_baseISt4pairIKNSt7__cxx1112basic_stringIcSt11char_traitsIcESaIcEEEmEEC1Ev>:
    8c90:	55                   	push   %rbp
    8c91:	48 89 e5             	mov    %rsp,%rbp
    8c94:	48 83 ec 10          	sub    $0x10,%rsp
    8c98:	48 89 7d f8          	mov    %rdi,-0x8(%rbp)
    8c9c:	48 8b 45 f8          	mov    -0x8(%rbp),%rax
    8ca0:	48 89 c7             	mov    %rax,%rdi
    8ca3:	e8 e6 a1 ff ff       	callq  2e8e <_ZNSt8__detail15_Hash_node_baseC1Ev>
    8ca8:	90                   	nop
    8ca9:	c9                   	leaveq 
    8caa:	c3                   	retq   
    8cab:	90                   	nop

0000000000008cac <_ZNSt8__detail10_Hash_nodeISt4pairIKNSt7__cxx1112basic_stringIcSt11char_traitsIcESaIcEEEmELb1EEC1Ev>:
    8cac:	55                   	push   %rbp
    8cad:	48 89 e5             	mov    %rsp,%rbp
    8cb0:	48 83 ec 10          	sub    $0x10,%rsp
    8cb4:	48 89 7d f8          	mov    %rdi,-0x8(%rbp)
    8cb8:	48 8b 45 f8          	mov    -0x8(%rbp),%rax
    8cbc:	48 89 c7             	mov    %rax,%rdi
    8cbf:	e8 cc ff ff ff       	callq  8c90 <_ZNSt8__detail21_Hash_node_value_baseISt4pairIKNSt7__cxx1112basic_stringIcSt11char_traitsIcESaIcEEEmEEC1Ev>
    8cc4:	90                   	nop
    8cc5:	c9                   	leaveq 
    8cc6:	c3                   	retq   
    8cc7:	90                   	nop

0000000000008cc8 <_ZNSt8__detail16_Hashtable_allocISaINS_10_Hash_nodeISt4pairIKNSt7__cxx1112basic_stringIcSt11char_traitsIcESaIcEEEmELb1EEEEE16_M_allocate_nodeIJRKSA_EEEPSB_DpOT_>:
    8cc8:	55                   	push   %rbp
    8cc9:	48 89 e5             	mov    %rsp,%rbp
    8ccc:	53                   	push   %rbx
    8ccd:	48 83 ec 38          	sub    $0x38,%rsp
    8cd1:	48 89 7d c8          	mov    %rdi,-0x38(%rbp)
    8cd5:	48 89 75 c0          	mov    %rsi,-0x40(%rbp)
    8cd9:	64 48 8b 04 25 28 00 	mov    %fs:0x28,%rax
    8ce0:	00 00 
    8ce2:	48 89 45 e8          	mov    %rax,-0x18(%rbp)
    8ce6:	31 c0                	xor    %eax,%eax
    8ce8:	48 8b 45 c8          	mov    -0x38(%rbp),%rax
    8cec:	48 89 c7             	mov    %rax,%rdi
    8cef:	e8 c2 e1 ff ff       	callq  6eb6 <_ZNSt8__detail16_Hashtable_allocISaINS_10_Hash_nodeISt4pairIKNSt7__cxx1112basic_stringIcSt11char_traitsIcESaIcEEEmELb1EEEEE17_M_node_allocatorEv>
    8cf4:	be 01 00 00 00       	mov    $0x1,%esi
    8cf9:	48 89 c7             	mov    %rax,%rdi
    8cfc:	e8 ce 09 00 00       	callq  96cf <_ZNSt16allocator_traitsISaINSt8__detail10_Hash_nodeISt4pairIKNSt7__cxx1112basic_stringIcSt11char_traitsIcESaIcEEEmELb1EEEEE8allocateERSC_m>
    8d01:	48 89 45 d8          	mov    %rax,-0x28(%rbp)
    8d05:	48 8b 45 d8          	mov    -0x28(%rbp),%rax
    8d09:	48 89 c7             	mov    %rax,%rdi
    8d0c:	e8 d9 02 00 00       	callq  8fea <_ZSt11__addressofINSt8__detail10_Hash_nodeISt4pairIKNSt7__cxx1112basic_stringIcSt11char_traitsIcESaIcEEEmELb1EEEEPT_RSC_>
    8d11:	48 89 45 e0          	mov    %rax,-0x20(%rbp)
    8d15:	48 8b 45 c8          	mov    -0x38(%rbp),%rax
    8d19:	48 89 c7             	mov    %rax,%rdi
    8d1c:	e8 95 e1 ff ff       	callq  6eb6 <_ZNSt8__detail16_Hashtable_allocISaINS_10_Hash_nodeISt4pairIKNSt7__cxx1112basic_stringIcSt11char_traitsIcESaIcEEEmELb1EEEEE17_M_node_allocatorEv>
    8d21:	48 89 c2             	mov    %rax,%rdx
    8d24:	48 8d 45 d7          	lea    -0x29(%rbp),%rax
    8d28:	48 89 d6             	mov    %rdx,%rsi
    8d2b:	48 89 c7             	mov    %rax,%rdi
    8d2e:	e8 9d e1 ff ff       	callq  6ed0 <_ZNSaISt4pairIKNSt7__cxx1112basic_stringIcSt11char_traitsIcESaIcEEEmEEC1INSt8__detail10_Hash_nodeIS7_Lb1EEEEERKSaIT_E>
    8d33:	48 8b 45 e0          	mov    -0x20(%rbp),%rax
    8d37:	48 89 c6             	mov    %rax,%rsi
    8d3a:	bf 38 00 00 00       	mov    $0x38,%edi
    8d3f:	e8 69 a0 ff ff       	callq  2dad <_ZnwmPv>
    8d44:	48 85 c0             	test   %rax,%rax
    8d47:	74 08                	je     8d51 <_ZNSt8__detail16_Hashtable_allocISaINS_10_Hash_nodeISt4pairIKNSt7__cxx1112basic_stringIcSt11char_traitsIcESaIcEEEmELb1EEEEE16_M_allocate_nodeIJRKSA_EEEPSB_DpOT_+0x89>
    8d49:	48 89 c7             	mov    %rax,%rdi
    8d4c:	e8 5b ff ff ff       	callq  8cac <_ZNSt8__detail10_Hash_nodeISt4pairIKNSt7__cxx1112basic_stringIcSt11char_traitsIcESaIcEEEmELb1EEC1Ev>
    8d51:	48 8b 45 c0          	mov    -0x40(%rbp),%rax
    8d55:	48 89 c7             	mov    %rax,%rdi
    8d58:	e8 ff df ff ff       	callq  6d5c <_ZSt7forwardIRKSt4pairIKNSt7__cxx1112basic_stringIcSt11char_traitsIcESaIcEEEmEEOT_RNSt16remove_referenceISB_E4typeE>
    8d5d:	48 89 c3             	mov    %rax,%rbx
    8d60:	48 8b 45 e0          	mov    -0x20(%rbp),%rax
    8d64:	48 89 c7             	mov    %rax,%rdi
    8d67:	e8 ec c0 ff ff       	callq  4e58 <_ZNSt8__detail21_Hash_node_value_baseISt4pairIKNSt7__cxx1112basic_stringIcSt11char_traitsIcESaIcEEEmEE9_M_valptrEv>
    8d6c:	48 89 c1             	mov    %rax,%rcx
    8d6f:	48 8d 45 d7          	lea    -0x29(%rbp),%rax
    8d73:	48 89 da             	mov    %rbx,%rdx
    8d76:	48 89 ce             	mov    %rcx,%rsi
    8d79:	48 89 c7             	mov    %rax,%rdi
    8d7c:	e8 78 09 00 00       	callq  96f9 <_ZNSt16allocator_traitsISaISt4pairIKNSt7__cxx1112basic_stringIcSt11char_traitsIcESaIcEEEmEEE9constructIS8_JRKS8_EEEvRS9_PT_DpOT0_>
    8d81:	48 8b 5d e0          	mov    -0x20(%rbp),%rbx
    8d85:	48 8d 45 d7          	lea    -0x29(%rbp),%rax
    8d89:	48 89 c7             	mov    %rax,%rdi
    8d8c:	e8 13 b8 ff ff       	callq  45a4 <_ZNSaISt4pairIKNSt7__cxx1112basic_stringIcSt11char_traitsIcESaIcEEEmEED1Ev>
    8d91:	48 89 d8             	mov    %rbx,%rax
    8d94:	48 8b 55 e8          	mov    -0x18(%rbp),%rdx
    8d98:	64 48 33 14 25 28 00 	xor    %fs:0x28,%rdx
    8d9f:	00 00 
    8da1:	74 5c                	je     8dff <_ZNSt8__detail16_Hashtable_allocISaINS_10_Hash_nodeISt4pairIKNSt7__cxx1112basic_stringIcSt11char_traitsIcESaIcEEEmELb1EEEEE16_M_allocate_nodeIJRKSA_EEEPSB_DpOT_+0x137>
    8da3:	eb 55                	jmp    8dfa <_ZNSt8__detail16_Hashtable_allocISaINS_10_Hash_nodeISt4pairIKNSt7__cxx1112basic_stringIcSt11char_traitsIcESaIcEEEmELb1EEEEE16_M_allocate_nodeIJRKSA_EEEPSB_DpOT_+0x132>
    8da5:	48 89 c3             	mov    %rax,%rbx
    8da8:	48 8d 45 d7          	lea    -0x29(%rbp),%rax
    8dac:	48 89 c7             	mov    %rax,%rdi
    8daf:	e8 f0 b7 ff ff       	callq  45a4 <_ZNSaISt4pairIKNSt7__cxx1112basic_stringIcSt11char_traitsIcESaIcEEEmEED1Ev>
    8db4:	48 89 d8             	mov    %rbx,%rax
    8db7:	48 89 c7             	mov    %rax,%rdi
    8dba:	e8 b1 86 ff ff       	callq  1470 <__cxa_begin_catch@plt>
    8dbf:	48 8b 45 c8          	mov    -0x38(%rbp),%rax
    8dc3:	48 89 c7             	mov    %rax,%rdi
    8dc6:	e8 eb e0 ff ff       	callq  6eb6 <_ZNSt8__detail16_Hashtable_allocISaINS_10_Hash_nodeISt4pairIKNSt7__cxx1112basic_stringIcSt11char_traitsIcESaIcEEEmELb1EEEEE17_M_node_allocatorEv>
    8dcb:	48 89 c1             	mov    %rax,%rcx
    8dce:	48 8b 45 d8          	mov    -0x28(%rbp),%rax
    8dd2:	ba 01 00 00 00       	mov    $0x1,%edx
    8dd7:	48 89 c6             	mov    %rax,%rsi
    8dda:	48 89 cf             	mov    %rcx,%rdi
    8ddd:	e8 33 e1 ff ff       	callq  6f15 <_ZNSt16allocator_traitsISaINSt8__detail10_Hash_nodeISt4pairIKNSt7__cxx1112basic_stringIcSt11char_traitsIcESaIcEEEmELb1EEEEE10deallocateERSC_PSB_m>
    8de2:	e8 c9 87 ff ff       	callq  15b0 <__cxa_rethrow@plt>
    8de7:	48 89 c3             	mov    %rax,%rbx
    8dea:	e8 f1 87 ff ff       	callq  15e0 <__cxa_end_catch@plt>
    8def:	48 89 d8             	mov    %rbx,%rax
    8df2:	48 89 c7             	mov    %rax,%rdi
    8df5:	e8 06 88 ff ff       	callq  1600 <_Unwind_Resume@plt>
    8dfa:	e8 61 87 ff ff       	callq  1560 <__stack_chk_fail@plt>
    8dff:	48 83 c4 38          	add    $0x38,%rsp
    8e03:	5b                   	pop    %rbx
    8e04:	5d                   	pop    %rbp
    8e05:	c3                   	retq   

0000000000008e06 <_ZNSt10_HashtableINSt7__cxx1112basic_stringIcSt11char_traitsIcESaIcEEESt4pairIKS5_mESaIS8_ENSt8__detail10_Select1stESt8equal_toIS5_ESt4hashIS5_ENSA_18_Mod_range_hashingENSA_20_Default_ranged_hashENSA_20_Prime_rehash_policyENSA_17_Hashtable_traitsILb1ELb0ELb1EEEE9_M_rehashEmRKm>:
    8e06:	55                   	push   %rbp
    8e07:	48 89 e5             	mov    %rsp,%rbp
    8e0a:	53                   	push   %rbx
    8e0b:	48 83 ec 38          	sub    $0x38,%rsp
    8e0f:	48 89 7d d8          	mov    %rdi,-0x28(%rbp)
    8e13:	48 89 75 d0          	mov    %rsi,-0x30(%rbp)
    8e17:	48 89 55 c8          	mov    %rdx,-0x38(%rbp)
    8e1b:	64 48 8b 04 25 28 00 	mov    %fs:0x28,%rax
    8e22:	00 00 
    8e24:	48 89 45 e8          	mov    %rax,-0x18(%rbp)
    8e28:	31 c0                	xor    %eax,%eax
    8e2a:	48 8b 55 d0          	mov    -0x30(%rbp),%rdx
    8e2e:	48 8b 45 d8          	mov    -0x28(%rbp),%rax
    8e32:	48 83 ec 08          	sub    $0x8,%rsp
    8e36:	51                   	push   %rcx
    8e37:	48 89 d6             	mov    %rdx,%rsi
    8e3a:	48 89 c7             	mov    %rax,%rdi
    8e3d:	e8 f0 08 00 00       	callq  9732 <_ZNSt10_HashtableINSt7__cxx1112basic_stringIcSt11char_traitsIcESaIcEEESt4pairIKS5_mESaIS8_ENSt8__detail10_Select1stESt8equal_toIS5_ESt4hashIS5_ENSA_18_Mod_range_hashingENSA_20_Default_ranged_hashENSA_20_Prime_rehash_policyENSA_17_Hashtable_traitsILb1ELb0ELb1EEEE13_M_rehash_auxEmSt17integral_constantIbLb1EE>
    8e42:	48 83 c4 10          	add    $0x10,%rsp
    8e46:	90                   	nop
    8e47:	48 8b 45 e8          	mov    -0x18(%rbp),%rax
    8e4b:	64 48 33 04 25 28 00 	xor    %fs:0x28,%rax
    8e52:	00 00 
    8e54:	74 41                	je     8e97 <_ZNSt10_HashtableINSt7__cxx1112basic_stringIcSt11char_traitsIcESaIcEEESt4pairIKS5_mESaIS8_ENSt8__detail10_Select1stESt8equal_toIS5_ESt4hashIS5_ENSA_18_Mod_range_hashingENSA_20_Default_ranged_hashENSA_20_Prime_rehash_policyENSA_17_Hashtable_traitsILb1ELb0ELb1EEEE9_M_rehashEmRKm+0x91>
    8e56:	eb 3a                	jmp    8e92 <_ZNSt10_HashtableINSt7__cxx1112basic_stringIcSt11char_traitsIcESaIcEEESt4pairIKS5_mESaIS8_ENSt8__detail10_Select1stESt8equal_toIS5_ESt4hashIS5_ENSA_18_Mod_range_hashingENSA_20_Default_ranged_hashENSA_20_Prime_rehash_policyENSA_17_Hashtable_traitsILb1ELb0ELb1EEEE9_M_rehashEmRKm+0x8c>
    8e58:	48 89 c7             	mov    %rax,%rdi
    8e5b:	e8 10 86 ff ff       	callq  1470 <__cxa_begin_catch@plt>
    8e60:	48 8b 45 d8          	mov    -0x28(%rbp),%rax
    8e64:	48 8d 50 20          	lea    0x20(%rax),%rdx
    8e68:	48 8b 45 c8          	mov    -0x38(%rbp),%rax
    8e6c:	48 8b 00             	mov    (%rax),%rax
    8e6f:	48 89 c6             	mov    %rax,%rsi
    8e72:	48 89 d7             	mov    %rdx,%rdi
    8e75:	e8 38 a1 ff ff       	callq  2fb2 <_ZNSt8__detail20_Prime_rehash_policy8_M_resetEm>
    8e7a:	e8 31 87 ff ff       	callq  15b0 <__cxa_rethrow@plt>
    8e7f:	48 89 c3             	mov    %rax,%rbx
    8e82:	e8 59 87 ff ff       	callq  15e0 <__cxa_end_catch@plt>
    8e87:	48 89 d8             	mov    %rbx,%rax
    8e8a:	48 89 c7             	mov    %rax,%rdi
    8e8d:	e8 6e 87 ff ff       	callq  1600 <_Unwind_Resume@plt>
    8e92:	e8 c9 86 ff ff       	callq  1560 <__stack_chk_fail@plt>
    8e97:	48 8b 5d f8          	mov    -0x8(%rbp),%rbx
    8e9b:	c9                   	leaveq 
    8e9c:	c3                   	retq   
    8e9d:	90                   	nop

0000000000008e9e <_ZNSt8__detail21_Hash_node_value_baseISt4pairIKNSt7__cxx1112basic_stringIcSt11char_traitsIcESaIcEEEmEE4_M_vEv>:
    8e9e:	55                   	push   %rbp
    8e9f:	48 89 e5             	mov    %rsp,%rbp
    8ea2:	48 83 ec 10          	sub    $0x10,%rsp
    8ea6:	48 89 7d f8          	mov    %rdi,-0x8(%rbp)
    8eaa:	48 8b 45 f8          	mov    -0x8(%rbp),%rax
    8eae:	48 89 c7             	mov    %rax,%rdi
    8eb1:	e8 a2 bf ff ff       	callq  4e58 <_ZNSt8__detail21_Hash_node_value_baseISt4pairIKNSt7__cxx1112basic_stringIcSt11char_traitsIcESaIcEEEmEE9_M_valptrEv>
    8eb6:	c9                   	leaveq 
    8eb7:	c3                   	retq   

0000000000008eb8 <_ZNKSt8__detail10_Select1stclIRSt4pairIKNSt7__cxx1112basic_stringIcSt11char_traitsIcESaIcEEEmEEEDTcl3getILi0EEcl7forwardIT_Efp_EEEOSC_>:
    8eb8:	55                   	push   %rbp
    8eb9:	48 89 e5             	mov    %rsp,%rbp
    8ebc:	48 83 ec 10          	sub    $0x10,%rsp
    8ec0:	48 89 7d f8          	mov    %rdi,-0x8(%rbp)
    8ec4:	48 89 75 f0          	mov    %rsi,-0x10(%rbp)
    8ec8:	48 8b 45 f0          	mov    -0x10(%rbp),%rax
    8ecc:	48 89 c7             	mov    %rax,%rdi
    8ecf:	e8 84 ee ff ff       	callq  7d58 <_ZSt7forwardIRSt4pairIKNSt7__cxx1112basic_stringIcSt11char_traitsIcESaIcEEEmEEOT_RNSt16remove_referenceISA_E4typeE>
    8ed4:	48 89 c7             	mov    %rax,%rdi
    8ed7:	e8 cb 09 00 00       	callq  98a7 <_ZSt3getILm0EKNSt7__cxx1112basic_stringIcSt11char_traitsIcESaIcEEEmERNSt13tuple_elementIXT_ESt4pairIT0_T1_EE4typeERSB_>
    8edc:	c9                   	leaveq 
    8edd:	c3                   	retq   

0000000000008ede <_ZNKSt8__detail15_Hash_code_baseINSt7__cxx1112basic_stringIcSt11char_traitsIcESaIcEEESt4pairIKS6_mENS_10_Select1stESt4hashIS6_ENS_18_Mod_range_hashingENS_20_Default_ranged_hashELb1EE13_M_store_codeEPNS_10_Hash_nodeIS9_Lb1EEEm>:
    8ede:	55                   	push   %rbp
    8edf:	48 89 e5             	mov    %rsp,%rbp
    8ee2:	48 89 7d f8          	mov    %rdi,-0x8(%rbp)
    8ee6:	48 89 75 f0          	mov    %rsi,-0x10(%rbp)
    8eea:	48 89 55 e8          	mov    %rdx,-0x18(%rbp)
    8eee:	48 8b 45 f0          	mov    -0x10(%rbp),%rax
    8ef2:	48 8b 55 e8          	mov    -0x18(%rbp),%rdx
    8ef6:	48 89 50 30          	mov    %rdx,0x30(%rax)
    8efa:	90                   	nop
    8efb:	5d                   	pop    %rbp
    8efc:	c3                   	retq   
    8efd:	90                   	nop

0000000000008efe <_ZNSt10_HashtableINSt7__cxx1112basic_stringIcSt11char_traitsIcESaIcEEESt4pairIKS5_mESaIS8_ENSt8__detail10_Select1stESt8equal_toIS5_ESt4hashIS5_ENSA_18_Mod_range_hashingENSA_20_Default_ranged_hashENSA_20_Prime_rehash_policyENSA_17_Hashtable_traitsILb1ELb0ELb1EEEE22_M_insert_bucket_beginEmPNSA_10_Hash_nodeIS8_Lb1EEE>:
    8efe:	55                   	push   %rbp
    8eff:	48 89 e5             	mov    %rsp,%rbp
    8f02:	53                   	push   %rbx
    8f03:	48 83 ec 28          	sub    $0x28,%rsp
    8f07:	48 89 7d e8          	mov    %rdi,-0x18(%rbp)
    8f0b:	48 89 75 e0          	mov    %rsi,-0x20(%rbp)
    8f0f:	48 89 55 d8          	mov    %rdx,-0x28(%rbp)
    8f13:	48 8b 45 e8          	mov    -0x18(%rbp),%rax
    8f17:	48 8b 00             	mov    (%rax),%rax
    8f1a:	48 8b 55 e0          	mov    -0x20(%rbp),%rdx
    8f1e:	48 c1 e2 03          	shl    $0x3,%rdx
    8f22:	48 01 d0             	add    %rdx,%rax
    8f25:	48 8b 00             	mov    (%rax),%rax
    8f28:	48 85 c0             	test   %rax,%rax
    8f2b:	74 3d                	je     8f6a <_ZNSt10_HashtableINSt7__cxx1112basic_stringIcSt11char_traitsIcESaIcEEESt4pairIKS5_mESaIS8_ENSt8__detail10_Select1stESt8equal_toIS5_ESt4hashIS5_ENSA_18_Mod_range_hashingENSA_20_Default_ranged_hashENSA_20_Prime_rehash_policyENSA_17_Hashtable_traitsILb1ELb0ELb1EEEE22_M_insert_bucket_beginEmPNSA_10_Hash_nodeIS8_Lb1EEE+0x6c>
    8f2d:	48 8b 45 e8          	mov    -0x18(%rbp),%rax
    8f31:	48 8b 00             	mov    (%rax),%rax
    8f34:	48 8b 55 e0          	mov    -0x20(%rbp),%rdx
    8f38:	48 c1 e2 03          	shl    $0x3,%rdx
    8f3c:	48 01 d0             	add    %rdx,%rax
    8f3f:	48 8b 00             	mov    (%rax),%rax
    8f42:	48 8b 10             	mov    (%rax),%rdx
    8f45:	48 8b 45 d8          	mov    -0x28(%rbp),%rax
    8f49:	48 89 10             	mov    %rdx,(%rax)
    8f4c:	48 8b 45 e8          	mov    -0x18(%rbp),%rax
    8f50:	48 8b 00             	mov    (%rax),%rax
    8f53:	48 8b 55 e0          	mov    -0x20(%rbp),%rdx
    8f57:	48 c1 e2 03          	shl    $0x3,%rdx
    8f5b:	48 01 d0             	add    %rdx,%rax
    8f5e:	48 8b 00             	mov    (%rax),%rax
    8f61:	48 8b 55 d8          	mov    -0x28(%rbp),%rdx
    8f65:	48 89 10             	mov    %rdx,(%rax)
    8f68:	eb 78                	jmp    8fe2 <_ZNSt10_HashtableINSt7__cxx1112basic_stringIcSt11char_traitsIcESaIcEEESt4pairIKS5_mESaIS8_ENSt8__detail10_Select1stESt8equal_toIS5_ESt4hashIS5_ENSA_18_Mod_range_hashingENSA_20_Default_ranged_hashENSA_20_Prime_rehash_policyENSA_17_Hashtable_traitsILb1ELb0ELb1EEEE22_M_insert_bucket_beginEmPNSA_10_Hash_nodeIS8_Lb1EEE+0xe4>
    8f6a:	48 8b 45 e8          	mov    -0x18(%rbp),%rax
    8f6e:	48 8b 50 10          	mov    0x10(%rax),%rdx
    8f72:	48 8b 45 d8          	mov    -0x28(%rbp),%rax
    8f76:	48 89 10             	mov    %rdx,(%rax)
    8f79:	48 8b 45 e8          	mov    -0x18(%rbp),%rax
    8f7d:	48 8b 55 d8          	mov    -0x28(%rbp),%rdx
    8f81:	48 89 50 10          	mov    %rdx,0x10(%rax)
    8f85:	48 8b 45 d8          	mov    -0x28(%rbp),%rax
    8f89:	48 8b 00             	mov    (%rax),%rax
    8f8c:	48 85 c0             	test   %rax,%rax
    8f8f:	74 34                	je     8fc5 <_ZNSt10_HashtableINSt7__cxx1112basic_stringIcSt11char_traitsIcESaIcEEESt4pairIKS5_mESaIS8_ENSt8__detail10_Select1stESt8equal_toIS5_ESt4hashIS5_ENSA_18_Mod_range_hashingENSA_20_Default_ranged_hashENSA_20_Prime_rehash_policyENSA_17_Hashtable_traitsILb1ELb0ELb1EEEE22_M_insert_bucket_beginEmPNSA_10_Hash_nodeIS8_Lb1EEE+0xc7>
    8f91:	48 8b 45 e8          	mov    -0x18(%rbp),%rax
    8f95:	48 8b 18             	mov    (%rax),%rbx
    8f98:	48 8b 45 d8          	mov    -0x28(%rbp),%rax
    8f9c:	48 89 c7             	mov    %rax,%rdi
    8f9f:	e8 5a c6 ff ff       	callq  55fe <_ZNKSt8__detail10_Hash_nodeISt4pairIKNSt7__cxx1112basic_stringIcSt11char_traitsIcESaIcEEEmELb1EE7_M_nextEv>
    8fa4:	48 89 c2             	mov    %rax,%rdx
    8fa7:	48 8b 45 e8          	mov    -0x18(%rbp),%rax
    8fab:	48 89 d6             	mov    %rdx,%rsi
    8fae:	48 89 c7             	mov    %rax,%rdi
    8fb1:	e8 ec 06 00 00       	callq  96a2 <_ZNKSt10_HashtableINSt7__cxx1112basic_stringIcSt11char_traitsIcESaIcEEESt4pairIKS5_mESaIS8_ENSt8__detail10_Select1stESt8equal_toIS5_ESt4hashIS5_ENSA_18_Mod_range_hashingENSA_20_Default_ranged_hashENSA_20_Prime_rehash_policyENSA_17_Hashtable_traitsILb1ELb0ELb1EEEE15_M_bucket_indexEPNSA_10_Hash_nodeIS8_Lb1EEE>
    8fb6:	48 c1 e0 03          	shl    $0x3,%rax
    8fba:	48 8d 14 03          	lea    (%rbx,%rax,1),%rdx
    8fbe:	48 8b 45 d8          	mov    -0x28(%rbp),%rax
    8fc2:	48 89 02             	mov    %rax,(%rdx)
    8fc5:	48 8b 45 e8          	mov    -0x18(%rbp),%rax
    8fc9:	48 8b 00             	mov    (%rax),%rax
    8fcc:	48 8b 55 e0          	mov    -0x20(%rbp),%rdx
    8fd0:	48 c1 e2 03          	shl    $0x3,%rdx
    8fd4:	48 01 d0             	add    %rdx,%rax
    8fd7:	48 8b 55 e8          	mov    -0x18(%rbp),%rdx
    8fdb:	48 83 c2 10          	add    $0x10,%rdx
    8fdf:	48 89 10             	mov    %rdx,(%rax)
    8fe2:	90                   	nop
    8fe3:	48 83 c4 28          	add    $0x28,%rsp
    8fe7:	5b                   	pop    %rbx
    8fe8:	5d                   	pop    %rbp
    8fe9:	c3                   	retq   

0000000000008fea <_ZSt11__addressofINSt8__detail10_Hash_nodeISt4pairIKNSt7__cxx1112basic_stringIcSt11char_traitsIcESaIcEEEmELb1EEEEPT_RSC_>:
    8fea:	55                   	push   %rbp
    8feb:	48 89 e5             	mov    %rsp,%rbp
    8fee:	48 89 7d f8          	mov    %rdi,-0x8(%rbp)
    8ff2:	48 8b 45 f8          	mov    -0x8(%rbp),%rax
    8ff6:	5d                   	pop    %rbp
    8ff7:	c3                   	retq   

0000000000008ff8 <_ZNSt8__detail21_Hashtable_ebo_helperILi2ENS_18_Mod_range_hashingELb1EE7_S_cgetERKS2_>:
    8ff8:	55                   	push   %rbp
    8ff9:	48 89 e5             	mov    %rsp,%rbp
    8ffc:	48 89 7d f8          	mov    %rdi,-0x8(%rbp)
    9000:	48 8b 45 f8          	mov    -0x8(%rbp),%rax
    9004:	5d                   	pop    %rbp
    9005:	c3                   	retq   

0000000000009006 <_ZNSt8__detail13_Equal_helperIPKcSt4pairIKS2_NSt7__cxx1112basic_stringIcSt11char_traitsIcESaIcEEEENS_10_Select1stESt8equal_toIS2_EmLb0EE9_S_equalsERKSE_RKSC_RS4_mPNS_10_Hash_nodeISB_Lb0EEE>:
    9006:	55                   	push   %rbp
    9007:	48 89 e5             	mov    %rsp,%rbp
    900a:	48 83 ec 30          	sub    $0x30,%rsp
    900e:	48 89 7d f8          	mov    %rdi,-0x8(%rbp)
    9012:	48 89 75 f0          	mov    %rsi,-0x10(%rbp)
    9016:	48 89 55 e8          	mov    %rdx,-0x18(%rbp)
    901a:	48 89 4d e0          	mov    %rcx,-0x20(%rbp)
    901e:	4c 89 45 d8          	mov    %r8,-0x28(%rbp)
    9022:	48 8b 45 d8          	mov    -0x28(%rbp),%rax
    9026:	48 89 c7             	mov    %rax,%rdi
    9029:	e8 74 f3 ff ff       	callq  83a2 <_ZNSt8__detail21_Hash_node_value_baseISt4pairIKPKcNSt7__cxx1112basic_stringIcSt11char_traitsIcESaIcEEEEE4_M_vEv>
    902e:	48 89 c2             	mov    %rax,%rdx
    9031:	48 8b 45 f0          	mov    -0x10(%rbp),%rax
    9035:	48 89 d6             	mov    %rdx,%rsi
    9038:	48 89 c7             	mov    %rax,%rdi
    903b:	e8 7c f3 ff ff       	callq  83bc <_ZNKSt8__detail10_Select1stclIRSt4pairIKPKcNSt7__cxx1112basic_stringIcSt11char_traitsIcESaIcEEEEEEDTcl3getILi0EEcl7forwardIT_Efp_EEEOSE_>
    9040:	48 89 c2             	mov    %rax,%rdx
    9043:	48 8b 4d e8          	mov    -0x18(%rbp),%rcx
    9047:	48 8b 45 f8          	mov    -0x8(%rbp),%rax
    904b:	48 89 ce             	mov    %rcx,%rsi
    904e:	48 89 c7             	mov    %rax,%rdi
    9051:	e8 6c 08 00 00       	callq  98c2 <_ZNKSt8equal_toIPKcEclERKS1_S4_>
    9056:	c9                   	leaveq 
    9057:	c3                   	retq   

0000000000009058 <_ZNKSt8__detail15_Hashtable_baseIPKcSt4pairIKS2_NSt7__cxx1112basic_stringIcSt11char_traitsIcESaIcEEEENS_10_Select1stESt8equal_toIS2_ESt4hashIS2_ENS_18_Mod_range_hashingENS_20_Default_ranged_hashENS_17_Hashtable_traitsILb0ELb0ELb1EEEE5_M_eqEv>:
    9058:	55                   	push   %rbp
    9059:	48 89 e5             	mov    %rsp,%rbp
    905c:	48 83 ec 10          	sub    $0x10,%rsp
    9060:	48 89 7d f8          	mov    %rdi,-0x8(%rbp)
    9064:	48 8b 45 f8          	mov    -0x8(%rbp),%rax
    9068:	48 89 c7             	mov    %rax,%rdi
    906b:	e8 78 08 00 00       	callq  98e8 <_ZNSt8__detail21_Hashtable_ebo_helperILi0ESt8equal_toIPKcELb1EE7_S_cgetERKS5_>
    9070:	c9                   	leaveq 
    9071:	c3                   	retq   

0000000000009072 <_ZNKSt8__detail15_Hash_code_baseIPKcSt4pairIKS2_NSt7__cxx1112basic_stringIcSt11char_traitsIcESaIcEEEENS_10_Select1stESt4hashIS2_ENS_18_Mod_range_hashingENS_20_Default_ranged_hashELb0EE10_M_extractEv>:
    9072:	55                   	push   %rbp
    9073:	48 89 e5             	mov    %rsp,%rbp
    9076:	48 83 ec 10          	sub    $0x10,%rsp
    907a:	48 89 7d f8          	mov    %rdi,-0x8(%rbp)
    907e:	48 8b 45 f8          	mov    -0x8(%rbp),%rax
    9082:	48 89 c7             	mov    %rax,%rdi
    9085:	e8 6c 08 00 00       	callq  98f6 <_ZNSt8__detail21_Hashtable_ebo_helperILi0ENS_10_Select1stELb1EE7_S_cgetERKS2_>
    908a:	c9                   	leaveq 
    908b:	c3                   	retq   

000000000000908c <_ZNKSt8__detail15_Hash_code_baseIPKcSt4pairIKS2_NSt7__cxx1112basic_stringIcSt11char_traitsIcESaIcEEEENS_10_Select1stESt4hashIS2_ENS_18_Mod_range_hashingENS_20_Default_ranged_hashELb0EE15_M_bucket_indexEPKNS_10_Hash_nodeISB_Lb0EEEm>:
    908c:	55                   	push   %rbp
    908d:	48 89 e5             	mov    %rsp,%rbp
    9090:	41 55                	push   %r13
    9092:	41 54                	push   %r12
    9094:	53                   	push   %rbx
    9095:	48 83 ec 28          	sub    $0x28,%rsp
    9099:	48 89 7d d8          	mov    %rdi,-0x28(%rbp)
    909d:	48 89 75 d0          	mov    %rsi,-0x30(%rbp)
    90a1:	48 89 55 c8          	mov    %rdx,-0x38(%rbp)
    90a5:	48 8b 45 d8          	mov    -0x28(%rbp),%rax
    90a9:	48 89 c7             	mov    %rax,%rdi
    90ac:	e8 ad ee ff ff       	callq  7f5e <_ZNKSt8__detail15_Hash_code_baseIPKcSt4pairIKS2_NSt7__cxx1112basic_stringIcSt11char_traitsIcESaIcEEEENS_10_Select1stESt4hashIS2_ENS_18_Mod_range_hashingENS_20_Default_ranged_hashELb0EE5_M_h2Ev>
    90b1:	48 89 c3             	mov    %rax,%rbx
    90b4:	48 8b 45 d8          	mov    -0x28(%rbp),%rax
    90b8:	48 89 c7             	mov    %rax,%rdi
    90bb:	e8 a4 de ff ff       	callq  6f64 <_ZNKSt8__detail15_Hash_code_baseIPKcSt4pairIKS2_NSt7__cxx1112basic_stringIcSt11char_traitsIcESaIcEEEENS_10_Select1stESt4hashIS2_ENS_18_Mod_range_hashingENS_20_Default_ranged_hashELb0EE5_M_h1Ev>
    90c0:	49 89 c4             	mov    %rax,%r12
    90c3:	48 8b 45 d8          	mov    -0x28(%rbp),%rax
    90c7:	48 89 c7             	mov    %rax,%rdi
    90ca:	e8 a3 ff ff ff       	callq  9072 <_ZNKSt8__detail15_Hash_code_baseIPKcSt4pairIKS2_NSt7__cxx1112basic_stringIcSt11char_traitsIcESaIcEEEENS_10_Select1stESt4hashIS2_ENS_18_Mod_range_hashingENS_20_Default_ranged_hashELb0EE10_M_extractEv>
    90cf:	49 89 c5             	mov    %rax,%r13
    90d2:	48 8b 45 d0          	mov    -0x30(%rbp),%rax
    90d6:	48 89 c7             	mov    %rax,%rdi
    90d9:	e8 26 08 00 00       	callq  9904 <_ZNKSt8__detail21_Hash_node_value_baseISt4pairIKPKcNSt7__cxx1112basic_stringIcSt11char_traitsIcESaIcEEEEE4_M_vEv>
    90de:	48 89 c6             	mov    %rax,%rsi
    90e1:	4c 89 ef             	mov    %r13,%rdi
    90e4:	e8 5f e1 ff ff       	callq  7248 <_ZNKSt8__detail10_Select1stclIRKSt4pairIKPKcNSt7__cxx1112basic_stringIcSt11char_traitsIcESaIcEEEEEEDTcl3getILi0EEcl7forwardIT_Efp_EEEOSF_>
    90e9:	48 8b 00             	mov    (%rax),%rax
    90ec:	48 89 c6             	mov    %rax,%rsi
    90ef:	4c 89 e7             	mov    %r12,%rdi
    90f2:	e8 87 de ff ff       	callq  6f7e <_ZNKSt4hashIPKcEclES1_>
    90f7:	48 89 c1             	mov    %rax,%rcx
    90fa:	48 8b 45 c8          	mov    -0x38(%rbp),%rax
    90fe:	48 89 c2             	mov    %rax,%rdx
    9101:	48 89 ce             	mov    %rcx,%rsi
    9104:	48 89 df             	mov    %rbx,%rdi
    9107:	e8 98 9d ff ff       	callq  2ea4 <_ZNKSt8__detail18_Mod_range_hashingclEmm>
    910c:	48 83 c4 28          	add    $0x28,%rsp
    9110:	5b                   	pop    %rbx
    9111:	41 5c                	pop    %r12
    9113:	41 5d                	pop    %r13
    9115:	5d                   	pop    %rbp
    9116:	c3                   	retq   
    9117:	90                   	nop

0000000000009118 <_ZN9__gnu_cxx13new_allocatorINSt8__detail10_Hash_nodeISt4pairIKPKcNSt7__cxx1112basic_stringIcSt11char_traitsIcESaIcEEEELb0EEEEC1ERKSF_>:
    9118:	55                   	push   %rbp
    9119:	48 89 e5             	mov    %rsp,%rbp
    911c:	48 89 7d f8          	mov    %rdi,-0x8(%rbp)
    9120:	48 89 75 f0          	mov    %rsi,-0x10(%rbp)
    9124:	90                   	nop
    9125:	5d                   	pop    %rbp
    9126:	c3                   	retq   
    9127:	90                   	nop

0000000000009128 <_ZNK9__gnu_cxx13new_allocatorIPNSt8__detail15_Hash_node_baseEE8max_sizeEv>:
    9128:	55                   	push   %rbp
    9129:	48 89 e5             	mov    %rsp,%rbp
    912c:	48 89 7d f8          	mov    %rdi,-0x8(%rbp)
    9130:	48 b8 ff ff ff ff ff 	movabs $0x1fffffffffffffff,%rax
    9137:	ff ff 1f 
    913a:	5d                   	pop    %rbp
    913b:	c3                   	retq   

000000000000913c <_ZNSt10__pair_getILm0EE11__const_getIKPKcNSt7__cxx1112basic_stringIcSt11char_traitsIcESaIcEEEEERKT_RKSt4pairISB_T0_E>:
    913c:	55                   	push   %rbp
    913d:	48 89 e5             	mov    %rsp,%rbp
    9140:	48 89 7d f8          	mov    %rdi,-0x8(%rbp)
    9144:	48 8b 45 f8          	mov    -0x8(%rbp),%rax
    9148:	5d                   	pop    %rbp
    9149:	c3                   	retq   

000000000000914a <_ZNSt16allocator_traitsISaINSt8__detail10_Hash_nodeISt4pairIKPKcNSt7__cxx1112basic_stringIcSt11char_traitsIcESaIcEEEELb0EEEEE8allocateERSE_m>:
    914a:	55                   	push   %rbp
    914b:	48 89 e5             	mov    %rsp,%rbp
    914e:	48 83 ec 10          	sub    $0x10,%rsp
    9152:	48 89 7d f8          	mov    %rdi,-0x8(%rbp)
    9156:	48 89 75 f0          	mov    %rsi,-0x10(%rbp)
    915a:	48 8b 4d f0          	mov    -0x10(%rbp),%rcx
    915e:	48 8b 45 f8          	mov    -0x8(%rbp),%rax
    9162:	ba 00 00 00 00       	mov    $0x0,%edx
    9167:	48 89 ce             	mov    %rcx,%rsi
    916a:	48 89 c7             	mov    %rax,%rdi
    916d:	e8 ac 07 00 00       	callq  991e <_ZN9__gnu_cxx13new_allocatorINSt8__detail10_Hash_nodeISt4pairIKPKcNSt7__cxx1112basic_stringIcSt11char_traitsIcESaIcEEEELb0EEEE8allocateEmPKv>
    9172:	c9                   	leaveq 
    9173:	c3                   	retq   

0000000000009174 <_ZNSt16allocator_traitsISaISt4pairIKPKcNSt7__cxx1112basic_stringIcSt11char_traitsIcESaIcEEEEEE9constructISA_JRKSA_EEEvRSB_PT_DpOT0_>:
    9174:	55                   	push   %rbp
    9175:	48 89 e5             	mov    %rsp,%rbp
    9178:	48 83 ec 20          	sub    $0x20,%rsp
    917c:	48 89 7d f8          	mov    %rdi,-0x8(%rbp)
    9180:	48 89 75 f0          	mov    %rsi,-0x10(%rbp)
    9184:	48 89 55 e8          	mov    %rdx,-0x18(%rbp)
    9188:	48 8b 45 e8          	mov    -0x18(%rbp),%rax
    918c:	48 89 c7             	mov    %rax,%rdi
    918f:	e8 9a d3 ff ff       	callq  652e <_ZSt7forwardIRKSt4pairIKPKcNSt7__cxx1112basic_stringIcSt11char_traitsIcESaIcEEEEEOT_RNSt16remove_referenceISD_E4typeE>
    9194:	48 89 c2             	mov    %rax,%rdx
    9197:	48 8b 4d f0          	mov    -0x10(%rbp),%rcx
    919b:	48 8b 45 f8          	mov    -0x8(%rbp),%rax
    919f:	48 89 ce             	mov    %rcx,%rsi
    91a2:	48 89 c7             	mov    %rax,%rdi
    91a5:	e8 fc 07 00 00       	callq  99a6 <_ZN9__gnu_cxx13new_allocatorISt4pairIKPKcNSt7__cxx1112basic_stringIcSt11char_traitsIcESaIcEEEEE9constructISB_JRKSB_EEEvPT_DpOT0_>
    91aa:	90                   	nop
    91ab:	c9                   	leaveq 
    91ac:	c3                   	retq   
    91ad:	90                   	nop

00000000000091ae <_ZNSt10_HashtableIPKcSt4pairIKS1_NSt7__cxx1112basic_stringIcSt11char_traitsIcESaIcEEEESaISA_ENSt8__detail10_Select1stESt8equal_toIS1_ESt4hashIS1_ENSC_18_Mod_range_hashingENSC_20_Default_ranged_hashENSC_20_Prime_rehash_policyENSC_17_Hashtable_traitsILb0ELb0ELb1EEEE13_M_rehash_auxEmSt17integral_constantIbLb1EE>:
    91ae:	55                   	push   %rbp
    91af:	48 89 e5             	mov    %rsp,%rbp
    91b2:	48 83 ec 40          	sub    $0x40,%rsp
    91b6:	48 89 7d c8          	mov    %rdi,-0x38(%rbp)
    91ba:	48 89 75 c0          	mov    %rsi,-0x40(%rbp)
    91be:	48 8b 55 c0          	mov    -0x40(%rbp),%rdx
    91c2:	48 8b 45 c8          	mov    -0x38(%rbp),%rax
    91c6:	48 89 d6             	mov    %rdx,%rsi
    91c9:	48 89 c7             	mov    %rax,%rdi
    91cc:	e8 cd c5 ff ff       	callq  579e <_ZNSt10_HashtableIPKcSt4pairIKS1_NSt7__cxx1112basic_stringIcSt11char_traitsIcESaIcEEEESaISA_ENSt8__detail10_Select1stESt8equal_toIS1_ESt4hashIS1_ENSC_18_Mod_range_hashingENSC_20_Default_ranged_hashENSC_20_Prime_rehash_policyENSC_17_Hashtable_traitsILb0ELb0ELb1EEEE19_M_allocate_bucketsEm>
    91d1:	48 89 45 e8          	mov    %rax,-0x18(%rbp)
    91d5:	48 8b 45 c8          	mov    -0x38(%rbp),%rax
    91d9:	48 89 c7             	mov    %rax,%rdi
    91dc:	e8 23 be ff ff       	callq  5004 <_ZNKSt10_HashtableIPKcSt4pairIKS1_NSt7__cxx1112basic_stringIcSt11char_traitsIcESaIcEEEESaISA_ENSt8__detail10_Select1stESt8equal_toIS1_ESt4hashIS1_ENSC_18_Mod_range_hashingENSC_20_Default_ranged_hashENSC_20_Prime_rehash_policyENSC_17_Hashtable_traitsILb0ELb0ELb1EEEE8_M_beginEv>
    91e1:	48 89 45 d8          	mov    %rax,-0x28(%rbp)
    91e5:	48 8b 45 c8          	mov    -0x38(%rbp),%rax
    91e9:	48 c7 40 10 00 00 00 	movq   $0x0,0x10(%rax)
    91f0:	00 
    91f1:	48 c7 45 e0 00 00 00 	movq   $0x0,-0x20(%rbp)
    91f8:	00 
    91f9:	48 83 7d d8 00       	cmpq   $0x0,-0x28(%rbp)
    91fe:	0f 84 f9 00 00 00    	je     92fd <_ZNSt10_HashtableIPKcSt4pairIKS1_NSt7__cxx1112basic_stringIcSt11char_traitsIcESaIcEEEESaISA_ENSt8__detail10_Select1stESt8equal_toIS1_ESt4hashIS1_ENSC_18_Mod_range_hashingENSC_20_Default_ranged_hashENSC_20_Prime_rehash_policyENSC_17_Hashtable_traitsILb0ELb0ELb1EEEE13_M_rehash_auxEmSt17integral_constantIbLb1EE+0x14f>
    9204:	48 8b 45 d8          	mov    -0x28(%rbp),%rax
    9208:	48 89 c7             	mov    %rax,%rdi
    920b:	e8 58 c6 ff ff       	callq  5868 <_ZNKSt8__detail10_Hash_nodeISt4pairIKPKcNSt7__cxx1112basic_stringIcSt11char_traitsIcESaIcEEEELb0EE7_M_nextEv>
    9210:	48 89 45 f0          	mov    %rax,-0x10(%rbp)
    9214:	48 8b 55 c0          	mov    -0x40(%rbp),%rdx
    9218:	48 8b 4d d8          	mov    -0x28(%rbp),%rcx
    921c:	48 8b 45 c8          	mov    -0x38(%rbp),%rax
    9220:	48 89 ce             	mov    %rcx,%rsi
    9223:	48 89 c7             	mov    %rax,%rdi
    9226:	e8 61 fe ff ff       	callq  908c <_ZNKSt8__detail15_Hash_code_baseIPKcSt4pairIKS2_NSt7__cxx1112basic_stringIcSt11char_traitsIcESaIcEEEENS_10_Select1stESt4hashIS2_ENS_18_Mod_range_hashingENS_20_Default_ranged_hashELb0EE15_M_bucket_indexEPKNS_10_Hash_nodeISB_Lb0EEEm>
    922b:	48 89 45 f8          	mov    %rax,-0x8(%rbp)
    922f:	48 8b 45 f8          	mov    -0x8(%rbp),%rax
    9233:	48 8d 14 c5 00 00 00 	lea    0x0(,%rax,8),%rdx
    923a:	00 
    923b:	48 8b 45 e8          	mov    -0x18(%rbp),%rax
    923f:	48 01 d0             	add    %rdx,%rax
    9242:	48 8b 00             	mov    (%rax),%rax
    9245:	48 85 c0             	test   %rax,%rax
    9248:	75 69                	jne    92b3 <_ZNSt10_HashtableIPKcSt4pairIKS1_NSt7__cxx1112basic_stringIcSt11char_traitsIcESaIcEEEESaISA_ENSt8__detail10_Select1stESt8equal_toIS1_ESt4hashIS1_ENSC_18_Mod_range_hashingENSC_20_Default_ranged_hashENSC_20_Prime_rehash_policyENSC_17_Hashtable_traitsILb0ELb0ELb1EEEE13_M_rehash_auxEmSt17integral_constantIbLb1EE+0x105>
    924a:	48 8b 45 c8          	mov    -0x38(%rbp),%rax
    924e:	48 8b 50 10          	mov    0x10(%rax),%rdx
    9252:	48 8b 45 d8          	mov    -0x28(%rbp),%rax
    9256:	48 89 10             	mov    %rdx,(%rax)
    9259:	48 8b 45 c8          	mov    -0x38(%rbp),%rax
    925d:	48 8b 55 d8          	mov    -0x28(%rbp),%rdx
    9261:	48 89 50 10          	mov    %rdx,0x10(%rax)
    9265:	48 8b 45 f8          	mov    -0x8(%rbp),%rax
    9269:	48 8d 14 c5 00 00 00 	lea    0x0(,%rax,8),%rdx
    9270:	00 
    9271:	48 8b 45 e8          	mov    -0x18(%rbp),%rax
    9275:	48 01 d0             	add    %rdx,%rax
    9278:	48 8b 55 c8          	mov    -0x38(%rbp),%rdx
    927c:	48 83 c2 10          	add    $0x10,%rdx
    9280:	48 89 10             	mov    %rdx,(%rax)
    9283:	48 8b 45 d8          	mov    -0x28(%rbp),%rax
    9287:	48 8b 00             	mov    (%rax),%rax
    928a:	48 85 c0             	test   %rax,%rax
    928d:	74 1a                	je     92a9 <_ZNSt10_HashtableIPKcSt4pairIKS1_NSt7__cxx1112basic_stringIcSt11char_traitsIcESaIcEEEESaISA_ENSt8__detail10_Select1stESt8equal_toIS1_ESt4hashIS1_ENSC_18_Mod_range_hashingENSC_20_Default_ranged_hashENSC_20_Prime_rehash_policyENSC_17_Hashtable_traitsILb0ELb0ELb1EEEE13_M_rehash_auxEmSt17integral_constantIbLb1EE+0xfb>
    928f:	48 8b 45 e0          	mov    -0x20(%rbp),%rax
    9293:	48 8d 14 c5 00 00 00 	lea    0x0(,%rax,8),%rdx
    929a:	00 
    929b:	48 8b 45 e8          	mov    -0x18(%rbp),%rax
    929f:	48 01 c2             	add    %rax,%rdx
    92a2:	48 8b 45 d8          	mov    -0x28(%rbp),%rax
    92a6:	48 89 02             	mov    %rax,(%rdx)
    92a9:	48 8b 45 f8          	mov    -0x8(%rbp),%rax
    92ad:	48 89 45 e0          	mov    %rax,-0x20(%rbp)
    92b1:	eb 3d                	jmp    92f0 <_ZNSt10_HashtableIPKcSt4pairIKS1_NSt7__cxx1112basic_stringIcSt11char_traitsIcESaIcEEEESaISA_ENSt8__detail10_Select1stESt8equal_toIS1_ESt4hashIS1_ENSC_18_Mod_range_hashingENSC_20_Default_ranged_hashENSC_20_Prime_rehash_policyENSC_17_Hashtable_traitsILb0ELb0ELb1EEEE13_M_rehash_auxEmSt17integral_constantIbLb1EE+0x142>
    92b3:	48 8b 45 f8          	mov    -0x8(%rbp),%rax
    92b7:	48 8d 14 c5 00 00 00 	lea    0x0(,%rax,8),%rdx
    92be:	00 
    92bf:	48 8b 45 e8          	mov    -0x18(%rbp),%rax
    92c3:	48 01 d0             	add    %rdx,%rax
    92c6:	48 8b 00             	mov    (%rax),%rax
    92c9:	48 8b 10             	mov    (%rax),%rdx
    92cc:	48 8b 45 d8          	mov    -0x28(%rbp),%rax
    92d0:	48 89 10             	mov    %rdx,(%rax)
    92d3:	48 8b 45 f8          	mov    -0x8(%rbp),%rax
    92d7:	48 8d 14 c5 00 00 00 	lea    0x0(,%rax,8),%rdx
    92de:	00 
    92df:	48 8b 45 e8          	mov    -0x18(%rbp),%rax
    92e3:	48 01 d0             	add    %rdx,%rax
    92e6:	48 8b 00             	mov    (%rax),%rax
    92e9:	48 8b 55 d8          	mov    -0x28(%rbp),%rdx
    92ed:	48 89 10             	mov    %rdx,(%rax)
    92f0:	48 8b 45 f0          	mov    -0x10(%rbp),%rax
    92f4:	48 89 45 d8          	mov    %rax,-0x28(%rbp)
    92f8:	e9 fc fe ff ff       	jmpq   91f9 <_ZNSt10_HashtableIPKcSt4pairIKS1_NSt7__cxx1112basic_stringIcSt11char_traitsIcESaIcEEEESaISA_ENSt8__detail10_Select1stESt8equal_toIS1_ESt4hashIS1_ENSC_18_Mod_range_hashingENSC_20_Default_ranged_hashENSC_20_Prime_rehash_policyENSC_17_Hashtable_traitsILb0ELb0ELb1EEEE13_M_rehash_auxEmSt17integral_constantIbLb1EE+0x4b>
    92fd:	48 8b 45 c8          	mov    -0x38(%rbp),%rax
    9301:	48 89 c7             	mov    %rax,%rdi
    9304:	e8 6b b6 ff ff       	callq  4974 <_ZNSt10_HashtableIPKcSt4pairIKS1_NSt7__cxx1112basic_stringIcSt11char_traitsIcESaIcEEEESaISA_ENSt8__detail10_Select1stESt8equal_toIS1_ESt4hashIS1_ENSC_18_Mod_range_hashingENSC_20_Default_ranged_hashENSC_20_Prime_rehash_policyENSC_17_Hashtable_traitsILb0ELb0ELb1EEEE21_M_deallocate_bucketsEv>
    9309:	48 8b 45 c8          	mov    -0x38(%rbp),%rax
    930d:	48 8b 55 c0          	mov    -0x40(%rbp),%rdx
    9311:	48 89 50 08          	mov    %rdx,0x8(%rax)
    9315:	48 8b 45 c8          	mov    -0x38(%rbp),%rax
    9319:	48 8b 55 e8          	mov    -0x18(%rbp),%rdx
    931d:	48 89 10             	mov    %rdx,(%rax)
    9320:	90                   	nop
    9321:	c9                   	leaveq 
    9322:	c3                   	retq   

0000000000009323 <_ZSt3getILm0EKPKcNSt7__cxx1112basic_stringIcSt11char_traitsIcESaIcEEEERNSt13tuple_elementIXT_ESt4pairIT0_T1_EE4typeERSD_>:
    9323:	55                   	push   %rbp
    9324:	48 89 e5             	mov    %rsp,%rbp
    9327:	48 83 ec 10          	sub    $0x10,%rsp
    932b:	48 89 7d f8          	mov    %rdi,-0x8(%rbp)
    932f:	48 8b 45 f8          	mov    -0x8(%rbp),%rax
    9333:	48 89 c7             	mov    %rax,%rdi
    9336:	e8 de 06 00 00       	callq  9a19 <_ZNSt10__pair_getILm0EE5__getIKPKcNSt7__cxx1112basic_stringIcSt11char_traitsIcESaIcEEEEERT_RSt4pairISB_T0_E>
    933b:	c9                   	leaveq 
    933c:	c3                   	retq   
    933d:	90                   	nop

000000000000933e <_ZN9__gnu_cxx13new_allocatorINSt8__detail10_Hash_nodeISt4pairIKiNSt7__cxx1112basic_stringIcSt11char_traitsIcESaIcEEEELb0EEEEC1ERKSD_>:
    933e:	55                   	push   %rbp
    933f:	48 89 e5             	mov    %rsp,%rbp
    9342:	48 89 7d f8          	mov    %rdi,-0x8(%rbp)
    9346:	48 89 75 f0          	mov    %rsi,-0x10(%rbp)
    934a:	90                   	nop
    934b:	5d                   	pop    %rbp
    934c:	c3                   	retq   

000000000000934d <_ZNSt10__pair_getILm0EE11__const_getIKiNSt7__cxx1112basic_stringIcSt11char_traitsIcESaIcEEEEERKT_RKSt4pairIS9_T0_E>:
    934d:	55                   	push   %rbp
    934e:	48 89 e5             	mov    %rsp,%rbp
    9351:	48 89 7d f8          	mov    %rdi,-0x8(%rbp)
    9355:	48 8b 45 f8          	mov    -0x8(%rbp),%rax
    9359:	5d                   	pop    %rbp
    935a:	c3                   	retq   

000000000000935b <_ZNSt8__detail21_Hashtable_ebo_helperILi1ESt4hashIiELb1EE7_S_cgetERKS3_>:
    935b:	55                   	push   %rbp
    935c:	48 89 e5             	mov    %rsp,%rbp
    935f:	48 89 7d f8          	mov    %rdi,-0x8(%rbp)
    9363:	48 8b 45 f8          	mov    -0x8(%rbp),%rax
    9367:	5d                   	pop    %rbp
    9368:	c3                   	retq   
    9369:	90                   	nop

000000000000936a <_ZNKSt8__detail15_Hash_code_baseIiSt4pairIKiNSt7__cxx1112basic_stringIcSt11char_traitsIcESaIcEEEENS_10_Select1stESt4hashIiENS_18_Mod_range_hashingENS_20_Default_ranged_hashELb0EE5_M_h2Ev>:
    936a:	55                   	push   %rbp
    936b:	48 89 e5             	mov    %rsp,%rbp
    936e:	48 83 ec 10          	sub    $0x10,%rsp
    9372:	48 89 7d f8          	mov    %rdi,-0x8(%rbp)
    9376:	48 8b 45 f8          	mov    -0x8(%rbp),%rax
    937a:	48 89 c7             	mov    %rax,%rdi
    937d:	e8 76 fc ff ff       	callq  8ff8 <_ZNSt8__detail21_Hashtable_ebo_helperILi2ENS_18_Mod_range_hashingELb1EE7_S_cgetERKS2_>
    9382:	c9                   	leaveq 
    9383:	c3                   	retq   

0000000000009384 <_ZNKSt8__detail15_Hashtable_baseIiSt4pairIKiNSt7__cxx1112basic_stringIcSt11char_traitsIcESaIcEEEENS_10_Select1stESt8equal_toIiESt4hashIiENS_18_Mod_range_hashingENS_20_Default_ranged_hashENS_17_Hashtable_traitsILb0ELb0ELb1EEEE9_M_equalsERS2_mPNS_10_Hash_nodeIS9_Lb0EEE>:
    9384:	55                   	push   %rbp
    9385:	48 89 e5             	mov    %rsp,%rbp
    9388:	53                   	push   %rbx
    9389:	48 83 ec 28          	sub    $0x28,%rsp
    938d:	48 89 7d e8          	mov    %rdi,-0x18(%rbp)
    9391:	48 89 75 e0          	mov    %rsi,-0x20(%rbp)
    9395:	48 89 55 d8          	mov    %rdx,-0x28(%rbp)
    9399:	48 89 4d d0          	mov    %rcx,-0x30(%rbp)
    939d:	48 8b 45 e8          	mov    -0x18(%rbp),%rax
    93a1:	48 89 c7             	mov    %rax,%rdi
    93a4:	e8 eb 06 00 00       	callq  9a94 <_ZNKSt8__detail15_Hash_code_baseIiSt4pairIKiNSt7__cxx1112basic_stringIcSt11char_traitsIcESaIcEEEENS_10_Select1stESt4hashIiENS_18_Mod_range_hashingENS_20_Default_ranged_hashELb0EE10_M_extractEv>
    93a9:	48 89 c3             	mov    %rax,%rbx
    93ac:	48 8b 45 e8          	mov    -0x18(%rbp),%rax
    93b0:	48 89 c7             	mov    %rax,%rdi
    93b3:	e8 c2 06 00 00       	callq  9a7a <_ZNKSt8__detail15_Hashtable_baseIiSt4pairIKiNSt7__cxx1112basic_stringIcSt11char_traitsIcESaIcEEEENS_10_Select1stESt8equal_toIiESt4hashIiENS_18_Mod_range_hashingENS_20_Default_ranged_hashENS_17_Hashtable_traitsILb0ELb0ELb1EEEE5_M_eqEv>
    93b8:	48 89 c7             	mov    %rax,%rdi
    93bb:	48 8b 4d d0          	mov    -0x30(%rbp),%rcx
    93bf:	48 8b 55 d8          	mov    -0x28(%rbp),%rdx
    93c3:	48 8b 45 e0          	mov    -0x20(%rbp),%rax
    93c7:	49 89 c8             	mov    %rcx,%r8
    93ca:	48 89 d1             	mov    %rdx,%rcx
    93cd:	48 89 c2             	mov    %rax,%rdx
    93d0:	48 89 de             	mov    %rbx,%rsi
    93d3:	e8 4f 06 00 00       	callq  9a27 <_ZNSt8__detail13_Equal_helperIiSt4pairIKiNSt7__cxx1112basic_stringIcSt11char_traitsIcESaIcEEEENS_10_Select1stESt8equal_toIiEmLb0EE9_S_equalsERKSC_RKSA_RS2_mPNS_10_Hash_nodeIS9_Lb0EEE>
    93d8:	48 83 c4 28          	add    $0x28,%rsp
    93dc:	5b                   	pop    %rbx
    93dd:	5d                   	pop    %rbp
    93de:	c3                   	retq   
    93df:	90                   	nop

00000000000093e0 <_ZNKSt10_HashtableIiSt4pairIKiNSt7__cxx1112basic_stringIcSt11char_traitsIcESaIcEEEESaIS8_ENSt8__detail10_Select1stESt8equal_toIiESt4hashIiENSA_18_Mod_range_hashingENSA_20_Default_ranged_hashENSA_20_Prime_rehash_policyENSA_17_Hashtable_traitsILb0ELb0ELb1EEEE15_M_bucket_indexEPNSA_10_Hash_nodeIS8_Lb0EEE>:
    93e0:	55                   	push   %rbp
    93e1:	48 89 e5             	mov    %rsp,%rbp
    93e4:	48 83 ec 10          	sub    $0x10,%rsp
    93e8:	48 89 7d f8          	mov    %rdi,-0x8(%rbp)
    93ec:	48 89 75 f0          	mov    %rsi,-0x10(%rbp)
    93f0:	48 8b 45 f8          	mov    -0x8(%rbp),%rax
    93f4:	48 8b 50 08          	mov    0x8(%rax),%rdx
    93f8:	48 8b 4d f0          	mov    -0x10(%rbp),%rcx
    93fc:	48 8b 45 f8          	mov    -0x8(%rbp),%rax
    9400:	48 89 ce             	mov    %rcx,%rsi
    9403:	48 89 c7             	mov    %rax,%rdi
    9406:	e8 a3 06 00 00       	callq  9aae <_ZNKSt8__detail15_Hash_code_baseIiSt4pairIKiNSt7__cxx1112basic_stringIcSt11char_traitsIcESaIcEEEENS_10_Select1stESt4hashIiENS_18_Mod_range_hashingENS_20_Default_ranged_hashELb0EE15_M_bucket_indexEPKNS_10_Hash_nodeIS9_Lb0EEEm>
    940b:	c9                   	leaveq 
    940c:	c3                   	retq   

000000000000940d <_ZNSt16allocator_traitsISaINSt8__detail10_Hash_nodeISt4pairIKiNSt7__cxx1112basic_stringIcSt11char_traitsIcESaIcEEEELb0EEEEE8allocateERSC_m>:
    940d:	55                   	push   %rbp
    940e:	48 89 e5             	mov    %rsp,%rbp
    9411:	48 83 ec 10          	sub    $0x10,%rsp
    9415:	48 89 7d f8          	mov    %rdi,-0x8(%rbp)
    9419:	48 89 75 f0          	mov    %rsi,-0x10(%rbp)
    941d:	48 8b 4d f0          	mov    -0x10(%rbp),%rcx
    9421:	48 8b 45 f8          	mov    -0x8(%rbp),%rax
    9425:	ba 00 00 00 00       	mov    $0x0,%edx
    942a:	48 89 ce             	mov    %rcx,%rsi
    942d:	48 89 c7             	mov    %rax,%rdi
    9430:	e8 03 07 00 00       	callq  9b38 <_ZN9__gnu_cxx13new_allocatorINSt8__detail10_Hash_nodeISt4pairIKiNSt7__cxx1112basic_stringIcSt11char_traitsIcESaIcEEEELb0EEEE8allocateEmPKv>
    9435:	c9                   	leaveq 
    9436:	c3                   	retq   

0000000000009437 <_ZNSt16allocator_traitsISaISt4pairIKiNSt7__cxx1112basic_stringIcSt11char_traitsIcESaIcEEEEEE9constructIS8_JRKS8_EEEvRS9_PT_DpOT0_>:
    9437:	55                   	push   %rbp
    9438:	48 89 e5             	mov    %rsp,%rbp
    943b:	48 83 ec 20          	sub    $0x20,%rsp
    943f:	48 89 7d f8          	mov    %rdi,-0x8(%rbp)
    9443:	48 89 75 f0          	mov    %rsi,-0x10(%rbp)
    9447:	48 89 55 e8          	mov    %rdx,-0x18(%rbp)
    944b:	48 8b 45 e8          	mov    -0x18(%rbp),%rax
    944f:	48 89 c7             	mov    %rax,%rdi
    9452:	e8 11 d5 ff ff       	callq  6968 <_ZSt7forwardIRKSt4pairIKiNSt7__cxx1112basic_stringIcSt11char_traitsIcESaIcEEEEEOT_RNSt16remove_referenceISB_E4typeE>
    9457:	48 89 c2             	mov    %rax,%rdx
    945a:	48 8b 4d f0          	mov    -0x10(%rbp),%rcx
    945e:	48 8b 45 f8          	mov    -0x8(%rbp),%rax
    9462:	48 89 ce             	mov    %rcx,%rsi
    9465:	48 89 c7             	mov    %rax,%rdi
    9468:	e8 51 07 00 00       	callq  9bbe <_ZN9__gnu_cxx13new_allocatorISt4pairIKiNSt7__cxx1112basic_stringIcSt11char_traitsIcESaIcEEEEE9constructIS9_JRKS9_EEEvPT_DpOT0_>
    946d:	90                   	nop
    946e:	c9                   	leaveq 
    946f:	c3                   	retq   

0000000000009470 <_ZNSt10_HashtableIiSt4pairIKiNSt7__cxx1112basic_stringIcSt11char_traitsIcESaIcEEEESaIS8_ENSt8__detail10_Select1stESt8equal_toIiESt4hashIiENSA_18_Mod_range_hashingENSA_20_Default_ranged_hashENSA_20_Prime_rehash_policyENSA_17_Hashtable_traitsILb0ELb0ELb1EEEE13_M_rehash_auxEmSt17integral_constantIbLb1EE>:
    9470:	55                   	push   %rbp
    9471:	48 89 e5             	mov    %rsp,%rbp
    9474:	48 83 ec 40          	sub    $0x40,%rsp
    9478:	48 89 7d c8          	mov    %rdi,-0x38(%rbp)
    947c:	48 89 75 c0          	mov    %rsi,-0x40(%rbp)
    9480:	48 8b 55 c0          	mov    -0x40(%rbp),%rdx
    9484:	48 8b 45 c8          	mov    -0x38(%rbp),%rax
    9488:	48 89 d6             	mov    %rdx,%rsi
    948b:	48 89 c7             	mov    %rax,%rdi
    948e:	e8 03 c7 ff ff       	callq  5b96 <_ZNSt10_HashtableIiSt4pairIKiNSt7__cxx1112basic_stringIcSt11char_traitsIcESaIcEEEESaIS8_ENSt8__detail10_Select1stESt8equal_toIiESt4hashIiENSA_18_Mod_range_hashingENSA_20_Default_ranged_hashENSA_20_Prime_rehash_policyENSA_17_Hashtable_traitsILb0ELb0ELb1EEEE19_M_allocate_bucketsEm>
    9493:	48 89 45 e8          	mov    %rax,-0x18(%rbp)
    9497:	48 8b 45 c8          	mov    -0x38(%rbp),%rax
    949b:	48 89 c7             	mov    %rax,%rdi
    949e:	e8 91 bd ff ff       	callq  5234 <_ZNKSt10_HashtableIiSt4pairIKiNSt7__cxx1112basic_stringIcSt11char_traitsIcESaIcEEEESaIS8_ENSt8__detail10_Select1stESt8equal_toIiESt4hashIiENSA_18_Mod_range_hashingENSA_20_Default_ranged_hashENSA_20_Prime_rehash_policyENSA_17_Hashtable_traitsILb0ELb0ELb1EEEE8_M_beginEv>
    94a3:	48 89 45 d8          	mov    %rax,-0x28(%rbp)
    94a7:	48 8b 45 c8          	mov    -0x38(%rbp),%rax
    94ab:	48 c7 40 10 00 00 00 	movq   $0x0,0x10(%rax)
    94b2:	00 
    94b3:	48 c7 45 e0 00 00 00 	movq   $0x0,-0x20(%rbp)
    94ba:	00 
    94bb:	48 83 7d d8 00       	cmpq   $0x0,-0x28(%rbp)
    94c0:	0f 84 f9 00 00 00    	je     95bf <_ZNSt10_HashtableIiSt4pairIKiNSt7__cxx1112basic_stringIcSt11char_traitsIcESaIcEEEESaIS8_ENSt8__detail10_Select1stESt8equal_toIiESt4hashIiENSA_18_Mod_range_hashingENSA_20_Default_ranged_hashENSA_20_Prime_rehash_policyENSA_17_Hashtable_traitsILb0ELb0ELb1EEEE13_M_rehash_auxEmSt17integral_constantIbLb1EE+0x14f>
    94c6:	48 8b 45 d8          	mov    -0x28(%rbp),%rax
    94ca:	48 89 c7             	mov    %rax,%rdi
    94cd:	e8 8e c7 ff ff       	callq  5c60 <_ZNKSt8__detail10_Hash_nodeISt4pairIKiNSt7__cxx1112basic_stringIcSt11char_traitsIcESaIcEEEELb0EE7_M_nextEv>
    94d2:	48 89 45 f0          	mov    %rax,-0x10(%rbp)
    94d6:	48 8b 55 c0          	mov    -0x40(%rbp),%rdx
    94da:	48 8b 4d d8          	mov    -0x28(%rbp),%rcx
    94de:	48 8b 45 c8          	mov    -0x38(%rbp),%rax
    94e2:	48 89 ce             	mov    %rcx,%rsi
    94e5:	48 89 c7             	mov    %rax,%rdi
    94e8:	e8 c1 05 00 00       	callq  9aae <_ZNKSt8__detail15_Hash_code_baseIiSt4pairIKiNSt7__cxx1112basic_stringIcSt11char_traitsIcESaIcEEEENS_10_Select1stESt4hashIiENS_18_Mod_range_hashingENS_20_Default_ranged_hashELb0EE15_M_bucket_indexEPKNS_10_Hash_nodeIS9_Lb0EEEm>
    94ed:	48 89 45 f8          	mov    %rax,-0x8(%rbp)
    94f1:	48 8b 45 f8          	mov    -0x8(%rbp),%rax
    94f5:	48 8d 14 c5 00 00 00 	lea    0x0(,%rax,8),%rdx
    94fc:	00 
    94fd:	48 8b 45 e8          	mov    -0x18(%rbp),%rax
    9501:	48 01 d0             	add    %rdx,%rax
    9504:	48 8b 00             	mov    (%rax),%rax
    9507:	48 85 c0             	test   %rax,%rax
    950a:	75 69                	jne    9575 <_ZNSt10_HashtableIiSt4pairIKiNSt7__cxx1112basic_stringIcSt11char_traitsIcESaIcEEEESaIS8_ENSt8__detail10_Select1stESt8equal_toIiESt4hashIiENSA_18_Mod_range_hashingENSA_20_Default_ranged_hashENSA_20_Prime_rehash_policyENSA_17_Hashtable_traitsILb0ELb0ELb1EEEE13_M_rehash_auxEmSt17integral_constantIbLb1EE+0x105>
    950c:	48 8b 45 c8          	mov    -0x38(%rbp),%rax
    9510:	48 8b 50 10          	mov    0x10(%rax),%rdx
    9514:	48 8b 45 d8          	mov    -0x28(%rbp),%rax
    9518:	48 89 10             	mov    %rdx,(%rax)
    951b:	48 8b 45 c8          	mov    -0x38(%rbp),%rax
    951f:	48 8b 55 d8          	mov    -0x28(%rbp),%rdx
    9523:	48 89 50 10          	mov    %rdx,0x10(%rax)
    9527:	48 8b 45 f8          	mov    -0x8(%rbp),%rax
    952b:	48 8d 14 c5 00 00 00 	lea    0x0(,%rax,8),%rdx
    9532:	00 
    9533:	48 8b 45 e8          	mov    -0x18(%rbp),%rax
    9537:	48 01 d0             	add    %rdx,%rax
    953a:	48 8b 55 c8          	mov    -0x38(%rbp),%rdx
    953e:	48 83 c2 10          	add    $0x10,%rdx
    9542:	48 89 10             	mov    %rdx,(%rax)
    9545:	48 8b 45 d8          	mov    -0x28(%rbp),%rax
    9549:	48 8b 00             	mov    (%rax),%rax
    954c:	48 85 c0             	test   %rax,%rax
    954f:	74 1a                	je     956b <_ZNSt10_HashtableIiSt4pairIKiNSt7__cxx1112basic_stringIcSt11char_traitsIcESaIcEEEESaIS8_ENSt8__detail10_Select1stESt8equal_toIiESt4hashIiENSA_18_Mod_range_hashingENSA_20_Default_ranged_hashENSA_20_Prime_rehash_policyENSA_17_Hashtable_traitsILb0ELb0ELb1EEEE13_M_rehash_auxEmSt17integral_constantIbLb1EE+0xfb>
    9551:	48 8b 45 e0          	mov    -0x20(%rbp),%rax
    9555:	48 8d 14 c5 00 00 00 	lea    0x0(,%rax,8),%rdx
    955c:	00 
    955d:	48 8b 45 e8          	mov    -0x18(%rbp),%rax
    9561:	48 01 c2             	add    %rax,%rdx
    9564:	48 8b 45 d8          	mov    -0x28(%rbp),%rax
    9568:	48 89 02             	mov    %rax,(%rdx)
    956b:	48 8b 45 f8          	mov    -0x8(%rbp),%rax
    956f:	48 89 45 e0          	mov    %rax,-0x20(%rbp)
    9573:	eb 3d                	jmp    95b2 <_ZNSt10_HashtableIiSt4pairIKiNSt7__cxx1112basic_stringIcSt11char_traitsIcESaIcEEEESaIS8_ENSt8__detail10_Select1stESt8equal_toIiESt4hashIiENSA_18_Mod_range_hashingENSA_20_Default_ranged_hashENSA_20_Prime_rehash_policyENSA_17_Hashtable_traitsILb0ELb0ELb1EEEE13_M_rehash_auxEmSt17integral_constantIbLb1EE+0x142>
    9575:	48 8b 45 f8          	mov    -0x8(%rbp),%rax
    9579:	48 8d 14 c5 00 00 00 	lea    0x0(,%rax,8),%rdx
    9580:	00 
    9581:	48 8b 45 e8          	mov    -0x18(%rbp),%rax
    9585:	48 01 d0             	add    %rdx,%rax
    9588:	48 8b 00             	mov    (%rax),%rax
    958b:	48 8b 10             	mov    (%rax),%rdx
    958e:	48 8b 45 d8          	mov    -0x28(%rbp),%rax
    9592:	48 89 10             	mov    %rdx,(%rax)
    9595:	48 8b 45 f8          	mov    -0x8(%rbp),%rax
    9599:	48 8d 14 c5 00 00 00 	lea    0x0(,%rax,8),%rdx
    95a0:	00 
    95a1:	48 8b 45 e8          	mov    -0x18(%rbp),%rax
    95a5:	48 01 d0             	add    %rdx,%rax
    95a8:	48 8b 00             	mov    (%rax),%rax
    95ab:	48 8b 55 d8          	mov    -0x28(%rbp),%rdx
    95af:	48 89 10             	mov    %rdx,(%rax)
    95b2:	48 8b 45 f0          	mov    -0x10(%rbp),%rax
    95b6:	48 89 45 d8          	mov    %rax,-0x28(%rbp)
    95ba:	e9 fc fe ff ff       	jmpq   94bb <_ZNSt10_HashtableIiSt4pairIKiNSt7__cxx1112basic_stringIcSt11char_traitsIcESaIcEEEESaIS8_ENSt8__detail10_Select1stESt8equal_toIiESt4hashIiENSA_18_Mod_range_hashingENSA_20_Default_ranged_hashENSA_20_Prime_rehash_policyENSA_17_Hashtable_traitsILb0ELb0ELb1EEEE13_M_rehash_auxEmSt17integral_constantIbLb1EE+0x4b>
    95bf:	48 8b 45 c8          	mov    -0x38(%rbp),%rax
    95c3:	48 89 c7             	mov    %rax,%rdi
    95c6:	e8 81 b5 ff ff       	callq  4b4c <_ZNSt10_HashtableIiSt4pairIKiNSt7__cxx1112basic_stringIcSt11char_traitsIcESaIcEEEESaIS8_ENSt8__detail10_Select1stESt8equal_toIiESt4hashIiENSA_18_Mod_range_hashingENSA_20_Default_ranged_hashENSA_20_Prime_rehash_policyENSA_17_Hashtable_traitsILb0ELb0ELb1EEEE21_M_deallocate_bucketsEv>
    95cb:	48 8b 45 c8          	mov    -0x38(%rbp),%rax
    95cf:	48 8b 55 c0          	mov    -0x40(%rbp),%rdx
    95d3:	48 89 50 08          	mov    %rdx,0x8(%rax)
    95d7:	48 8b 45 c8          	mov    -0x38(%rbp),%rax
    95db:	48 8b 55 e8          	mov    -0x18(%rbp),%rdx
    95df:	48 89 10             	mov    %rdx,(%rax)
    95e2:	90                   	nop
    95e3:	c9                   	leaveq 
    95e4:	c3                   	retq   

00000000000095e5 <_ZSt3getILm0EKiNSt7__cxx1112basic_stringIcSt11char_traitsIcESaIcEEEERNSt13tuple_elementIXT_ESt4pairIT0_T1_EE4typeERSB_>:
    95e5:	55                   	push   %rbp
    95e6:	48 89 e5             	mov    %rsp,%rbp
    95e9:	48 83 ec 10          	sub    $0x10,%rsp
    95ed:	48 89 7d f8          	mov    %rdi,-0x8(%rbp)
    95f1:	48 8b 45 f8          	mov    -0x8(%rbp),%rax
    95f5:	48 89 c7             	mov    %rax,%rdi
    95f8:	e8 34 06 00 00       	callq  9c31 <_ZNSt10__pair_getILm0EE5__getIKiNSt7__cxx1112basic_stringIcSt11char_traitsIcESaIcEEEEERT_RSt4pairIS9_T0_E>
    95fd:	c9                   	leaveq 
    95fe:	c3                   	retq   
    95ff:	90                   	nop

0000000000009600 <_ZN9__gnu_cxx13new_allocatorINSt8__detail10_Hash_nodeISt4pairIKNSt7__cxx1112basic_stringIcSt11char_traitsIcESaIcEEEmELb1EEEEC1ERKSD_>:
    9600:	55                   	push   %rbp
    9601:	48 89 e5             	mov    %rsp,%rbp
    9604:	48 89 7d f8          	mov    %rdi,-0x8(%rbp)
    9608:	48 89 75 f0          	mov    %rsi,-0x10(%rbp)
    960c:	90                   	nop
    960d:	5d                   	pop    %rbp
    960e:	c3                   	retq   

000000000000960f <_ZNSt10__pair_getILm0EE11__const_getIKNSt7__cxx1112basic_stringIcSt11char_traitsIcESaIcEEEmEERKT_RKSt4pairIS9_T0_E>:
    960f:	55                   	push   %rbp
    9610:	48 89 e5             	mov    %rsp,%rbp
    9613:	48 89 7d f8          	mov    %rdi,-0x8(%rbp)
    9617:	48 8b 45 f8          	mov    -0x8(%rbp),%rax
    961b:	5d                   	pop    %rbp
    961c:	c3                   	retq   

000000000000961d <_ZNSt8__detail21_Hashtable_ebo_helperILi1ESt4hashINSt7__cxx1112basic_stringIcSt11char_traitsIcESaIcEEEELb1EE7_S_cgetERKS9_>:
    961d:	55                   	push   %rbp
    961e:	48 89 e5             	mov    %rsp,%rbp
    9621:	48 89 7d f8          	mov    %rdi,-0x8(%rbp)
    9625:	48 8b 45 f8          	mov    -0x8(%rbp),%rax
    9629:	5d                   	pop    %rbp
    962a:	c3                   	retq   
    962b:	90                   	nop

000000000000962c <_ZNKSt8__detail15_Hash_code_baseINSt7__cxx1112basic_stringIcSt11char_traitsIcESaIcEEESt4pairIKS6_mENS_10_Select1stESt4hashIS6_ENS_18_Mod_range_hashingENS_20_Default_ranged_hashELb1EE5_M_h2Ev>:
    962c:	55                   	push   %rbp
    962d:	48 89 e5             	mov    %rsp,%rbp
    9630:	48 83 ec 10          	sub    $0x10,%rsp
    9634:	48 89 7d f8          	mov    %rdi,-0x8(%rbp)
    9638:	48 8b 45 f8          	mov    -0x8(%rbp),%rax
    963c:	48 89 c7             	mov    %rax,%rdi
    963f:	e8 b4 f9 ff ff       	callq  8ff8 <_ZNSt8__detail21_Hashtable_ebo_helperILi2ENS_18_Mod_range_hashingELb1EE7_S_cgetERKS2_>
    9644:	c9                   	leaveq 
    9645:	c3                   	retq   

0000000000009646 <_ZNKSt8__detail15_Hashtable_baseINSt7__cxx1112basic_stringIcSt11char_traitsIcESaIcEEESt4pairIKS6_mENS_10_Select1stESt8equal_toIS6_ESt4hashIS6_ENS_18_Mod_range_hashingENS_20_Default_ranged_hashENS_17_Hashtable_traitsILb1ELb0ELb1EEEE9_M_equalsERS8_mPNS_10_Hash_nodeIS9_Lb1EEE>:
    9646:	55                   	push   %rbp
    9647:	48 89 e5             	mov    %rsp,%rbp
    964a:	53                   	push   %rbx
    964b:	48 83 ec 28          	sub    $0x28,%rsp
    964f:	48 89 7d e8          	mov    %rdi,-0x18(%rbp)
    9653:	48 89 75 e0          	mov    %rsi,-0x20(%rbp)
    9657:	48 89 55 d8          	mov    %rdx,-0x28(%rbp)
    965b:	48 89 4d d0          	mov    %rcx,-0x30(%rbp)
    965f:	48 8b 45 e8          	mov    -0x18(%rbp),%rax
    9663:	48 89 c7             	mov    %rax,%rdi
    9666:	e8 5f 06 00 00       	callq  9cca <_ZNKSt8__detail15_Hash_code_baseINSt7__cxx1112basic_stringIcSt11char_traitsIcESaIcEEESt4pairIKS6_mENS_10_Select1stESt4hashIS6_ENS_18_Mod_range_hashingENS_20_Default_ranged_hashELb1EE10_M_extractEv>
    966b:	48 89 c3             	mov    %rax,%rbx
    966e:	48 8b 45 e8          	mov    -0x18(%rbp),%rax
    9672:	48 89 c7             	mov    %rax,%rdi
    9675:	e8 36 06 00 00       	callq  9cb0 <_ZNKSt8__detail15_Hashtable_baseINSt7__cxx1112basic_stringIcSt11char_traitsIcESaIcEEESt4pairIKS6_mENS_10_Select1stESt8equal_toIS6_ESt4hashIS6_ENS_18_Mod_range_hashingENS_20_Default_ranged_hashENS_17_Hashtable_traitsILb1ELb0ELb1EEEE5_M_eqEv>
    967a:	48 89 c7             	mov    %rax,%rdi
    967d:	48 8b 4d d0          	mov    -0x30(%rbp),%rcx
    9681:	48 8b 55 d8          	mov    -0x28(%rbp),%rdx
    9685:	48 8b 45 e0          	mov    -0x20(%rbp),%rax
    9689:	49 89 c8             	mov    %rcx,%r8
    968c:	48 89 d1             	mov    %rdx,%rcx
    968f:	48 89 c2             	mov    %rax,%rdx
    9692:	48 89 de             	mov    %rbx,%rsi
    9695:	e8 a5 05 00 00       	callq  9c3f <_ZNSt8__detail13_Equal_helperINSt7__cxx1112basic_stringIcSt11char_traitsIcESaIcEEESt4pairIKS6_mENS_10_Select1stESt8equal_toIS6_EmLb1EE9_S_equalsERKSC_RKSA_RS8_mPNS_10_Hash_nodeIS9_Lb1EEE>
    969a:	48 83 c4 28          	add    $0x28,%rsp
    969e:	5b                   	pop    %rbx
    969f:	5d                   	pop    %rbp
    96a0:	c3                   	retq   
    96a1:	90                   	nop

00000000000096a2 <_ZNKSt10_HashtableINSt7__cxx1112basic_stringIcSt11char_traitsIcESaIcEEESt4pairIKS5_mESaIS8_ENSt8__detail10_Select1stESt8equal_toIS5_ESt4hashIS5_ENSA_18_Mod_range_hashingENSA_20_Default_ranged_hashENSA_20_Prime_rehash_policyENSA_17_Hashtable_traitsILb1ELb0ELb1EEEE15_M_bucket_indexEPNSA_10_Hash_nodeIS8_Lb1EEE>:
    96a2:	55                   	push   %rbp
    96a3:	48 89 e5             	mov    %rsp,%rbp
    96a6:	48 83 ec 10          	sub    $0x10,%rsp
    96aa:	48 89 7d f8          	mov    %rdi,-0x8(%rbp)
    96ae:	48 89 75 f0          	mov    %rsi,-0x10(%rbp)
    96b2:	48 8b 45 f8          	mov    -0x8(%rbp),%rax
    96b6:	48 8b 50 08          	mov    0x8(%rax),%rdx
    96ba:	48 8b 4d f0          	mov    -0x10(%rbp),%rcx
    96be:	48 8b 45 f8          	mov    -0x8(%rbp),%rax
    96c2:	48 89 ce             	mov    %rcx,%rsi
    96c5:	48 89 c7             	mov    %rax,%rdi
    96c8:	e8 17 06 00 00       	callq  9ce4 <_ZNKSt8__detail15_Hash_code_baseINSt7__cxx1112basic_stringIcSt11char_traitsIcESaIcEEESt4pairIKS6_mENS_10_Select1stESt4hashIS6_ENS_18_Mod_range_hashingENS_20_Default_ranged_hashELb1EE15_M_bucket_indexEPKNS_10_Hash_nodeIS9_Lb1EEEm>
    96cd:	c9                   	leaveq 
    96ce:	c3                   	retq   

00000000000096cf <_ZNSt16allocator_traitsISaINSt8__detail10_Hash_nodeISt4pairIKNSt7__cxx1112basic_stringIcSt11char_traitsIcESaIcEEEmELb1EEEEE8allocateERSC_m>:
    96cf:	55                   	push   %rbp
    96d0:	48 89 e5             	mov    %rsp,%rbp
    96d3:	48 83 ec 10          	sub    $0x10,%rsp
    96d7:	48 89 7d f8          	mov    %rdi,-0x8(%rbp)
    96db:	48 89 75 f0          	mov    %rsi,-0x10(%rbp)
    96df:	48 8b 4d f0          	mov    -0x10(%rbp),%rcx
    96e3:	48 8b 45 f8          	mov    -0x8(%rbp),%rax
    96e7:	ba 00 00 00 00       	mov    $0x0,%edx
    96ec:	48 89 ce             	mov    %rcx,%rsi
    96ef:	48 89 c7             	mov    %rax,%rdi
    96f2:	e8 29 06 00 00       	callq  9d20 <_ZN9__gnu_cxx13new_allocatorINSt8__detail10_Hash_nodeISt4pairIKNSt7__cxx1112basic_stringIcSt11char_traitsIcESaIcEEEmELb1EEEE8allocateEmPKv>
    96f7:	c9                   	leaveq 
    96f8:	c3                   	retq   

00000000000096f9 <_ZNSt16allocator_traitsISaISt4pairIKNSt7__cxx1112basic_stringIcSt11char_traitsIcESaIcEEEmEEE9constructIS8_JRKS8_EEEvRS9_PT_DpOT0_>:
    96f9:	55                   	push   %rbp
    96fa:	48 89 e5             	mov    %rsp,%rbp
    96fd:	48 83 ec 20          	sub    $0x20,%rsp
    9701:	48 89 7d f8          	mov    %rdi,-0x8(%rbp)
    9705:	48 89 75 f0          	mov    %rsi,-0x10(%rbp)
    9709:	48 89 55 e8          	mov    %rdx,-0x18(%rbp)
    970d:	48 8b 45 e8          	mov    -0x18(%rbp),%rax
    9711:	48 89 c7             	mov    %rax,%rdi
    9714:	e8 43 d6 ff ff       	callq  6d5c <_ZSt7forwardIRKSt4pairIKNSt7__cxx1112basic_stringIcSt11char_traitsIcESaIcEEEmEEOT_RNSt16remove_referenceISB_E4typeE>
    9719:	48 89 c2             	mov    %rax,%rdx
    971c:	48 8b 4d f0          	mov    -0x10(%rbp),%rcx
    9720:	48 8b 45 f8          	mov    -0x8(%rbp),%rax
    9724:	48 89 ce             	mov    %rcx,%rsi
    9727:	48 89 c7             	mov    %rax,%rdi
    972a:	e8 73 06 00 00       	callq  9da2 <_ZN9__gnu_cxx13new_allocatorISt4pairIKNSt7__cxx1112basic_stringIcSt11char_traitsIcESaIcEEEmEE9constructIS9_JRKS9_EEEvPT_DpOT0_>
    972f:	90                   	nop
    9730:	c9                   	leaveq 
    9731:	c3                   	retq   

0000000000009732 <_ZNSt10_HashtableINSt7__cxx1112basic_stringIcSt11char_traitsIcESaIcEEESt4pairIKS5_mESaIS8_ENSt8__detail10_Select1stESt8equal_toIS5_ESt4hashIS5_ENSA_18_Mod_range_hashingENSA_20_Default_ranged_hashENSA_20_Prime_rehash_policyENSA_17_Hashtable_traitsILb1ELb0ELb1EEEE13_M_rehash_auxEmSt17integral_constantIbLb1EE>:
    9732:	55                   	push   %rbp
    9733:	48 89 e5             	mov    %rsp,%rbp
    9736:	48 83 ec 40          	sub    $0x40,%rsp
    973a:	48 89 7d c8          	mov    %rdi,-0x38(%rbp)
    973e:	48 89 75 c0          	mov    %rsi,-0x40(%rbp)
    9742:	48 8b 55 c0          	mov    -0x40(%rbp),%rdx
    9746:	48 8b 45 c8          	mov    -0x38(%rbp),%rax
    974a:	48 89 d6             	mov    %rdx,%rsi
    974d:	48 89 c7             	mov    %rax,%rdi
    9750:	e8 39 c8 ff ff       	callq  5f8e <_ZNSt10_HashtableINSt7__cxx1112basic_stringIcSt11char_traitsIcESaIcEEESt4pairIKS5_mESaIS8_ENSt8__detail10_Select1stESt8equal_toIS5_ESt4hashIS5_ENSA_18_Mod_range_hashingENSA_20_Default_ranged_hashENSA_20_Prime_rehash_policyENSA_17_Hashtable_traitsILb1ELb0ELb1EEEE19_M_allocate_bucketsEm>
    9755:	48 89 45 e8          	mov    %rax,-0x18(%rbp)
    9759:	48 8b 45 c8          	mov    -0x38(%rbp),%rax
    975d:	48 89 c7             	mov    %rax,%rdi
    9760:	e8 ff bc ff ff       	callq  5464 <_ZNKSt10_HashtableINSt7__cxx1112basic_stringIcSt11char_traitsIcESaIcEEESt4pairIKS5_mESaIS8_ENSt8__detail10_Select1stESt8equal_toIS5_ESt4hashIS5_ENSA_18_Mod_range_hashingENSA_20_Default_ranged_hashENSA_20_Prime_rehash_policyENSA_17_Hashtable_traitsILb1ELb0ELb1EEEE8_M_beginEv>
    9765:	48 89 45 d8          	mov    %rax,-0x28(%rbp)
    9769:	48 8b 45 c8          	mov    -0x38(%rbp),%rax
    976d:	48 c7 40 10 00 00 00 	movq   $0x0,0x10(%rax)
    9774:	00 
    9775:	48 c7 45 e0 00 00 00 	movq   $0x0,-0x20(%rbp)
    977c:	00 
    977d:	48 83 7d d8 00       	cmpq   $0x0,-0x28(%rbp)
    9782:	0f 84 f9 00 00 00    	je     9881 <_ZNSt10_HashtableINSt7__cxx1112basic_stringIcSt11char_traitsIcESaIcEEESt4pairIKS5_mESaIS8_ENSt8__detail10_Select1stESt8equal_toIS5_ESt4hashIS5_ENSA_18_Mod_range_hashingENSA_20_Default_ranged_hashENSA_20_Prime_rehash_policyENSA_17_Hashtable_traitsILb1ELb0ELb1EEEE13_M_rehash_auxEmSt17integral_constantIbLb1EE+0x14f>
    9788:	48 8b 45 d8          	mov    -0x28(%rbp),%rax
    978c:	48 89 c7             	mov    %rax,%rdi
    978f:	e8 6a be ff ff       	callq  55fe <_ZNKSt8__detail10_Hash_nodeISt4pairIKNSt7__cxx1112basic_stringIcSt11char_traitsIcESaIcEEEmELb1EE7_M_nextEv>
    9794:	48 89 45 f0          	mov    %rax,-0x10(%rbp)
    9798:	48 8b 55 c0          	mov    -0x40(%rbp),%rdx
    979c:	48 8b 4d d8          	mov    -0x28(%rbp),%rcx
    97a0:	48 8b 45 c8          	mov    -0x38(%rbp),%rax
    97a4:	48 89 ce             	mov    %rcx,%rsi
    97a7:	48 89 c7             	mov    %rax,%rdi
    97aa:	e8 35 05 00 00       	callq  9ce4 <_ZNKSt8__detail15_Hash_code_baseINSt7__cxx1112basic_stringIcSt11char_traitsIcESaIcEEESt4pairIKS6_mENS_10_Select1stESt4hashIS6_ENS_18_Mod_range_hashingENS_20_Default_ranged_hashELb1EE15_M_bucket_indexEPKNS_10_Hash_nodeIS9_Lb1EEEm>
    97af:	48 89 45 f8          	mov    %rax,-0x8(%rbp)
    97b3:	48 8b 45 f8          	mov    -0x8(%rbp),%rax
    97b7:	48 8d 14 c5 00 00 00 	lea    0x0(,%rax,8),%rdx
    97be:	00 
    97bf:	48 8b 45 e8          	mov    -0x18(%rbp),%rax
    97c3:	48 01 d0             	add    %rdx,%rax
    97c6:	48 8b 00             	mov    (%rax),%rax
    97c9:	48 85 c0             	test   %rax,%rax
    97cc:	75 69                	jne    9837 <_ZNSt10_HashtableINSt7__cxx1112basic_stringIcSt11char_traitsIcESaIcEEESt4pairIKS5_mESaIS8_ENSt8__detail10_Select1stESt8equal_toIS5_ESt4hashIS5_ENSA_18_Mod_range_hashingENSA_20_Default_ranged_hashENSA_20_Prime_rehash_policyENSA_17_Hashtable_traitsILb1ELb0ELb1EEEE13_M_rehash_auxEmSt17integral_constantIbLb1EE+0x105>
    97ce:	48 8b 45 c8          	mov    -0x38(%rbp),%rax
    97d2:	48 8b 50 10          	mov    0x10(%rax),%rdx
    97d6:	48 8b 45 d8          	mov    -0x28(%rbp),%rax
    97da:	48 89 10             	mov    %rdx,(%rax)
    97dd:	48 8b 45 c8          	mov    -0x38(%rbp),%rax
    97e1:	48 8b 55 d8          	mov    -0x28(%rbp),%rdx
    97e5:	48 89 50 10          	mov    %rdx,0x10(%rax)
    97e9:	48 8b 45 f8          	mov    -0x8(%rbp),%rax
    97ed:	48 8d 14 c5 00 00 00 	lea    0x0(,%rax,8),%rdx
    97f4:	00 
    97f5:	48 8b 45 e8          	mov    -0x18(%rbp),%rax
    97f9:	48 01 d0             	add    %rdx,%rax
    97fc:	48 8b 55 c8          	mov    -0x38(%rbp),%rdx
    9800:	48 83 c2 10          	add    $0x10,%rdx
    9804:	48 89 10             	mov    %rdx,(%rax)
    9807:	48 8b 45 d8          	mov    -0x28(%rbp),%rax
    980b:	48 8b 00             	mov    (%rax),%rax
    980e:	48 85 c0             	test   %rax,%rax
    9811:	74 1a                	je     982d <_ZNSt10_HashtableINSt7__cxx1112basic_stringIcSt11char_traitsIcESaIcEEESt4pairIKS5_mESaIS8_ENSt8__detail10_Select1stESt8equal_toIS5_ESt4hashIS5_ENSA_18_Mod_range_hashingENSA_20_Default_ranged_hashENSA_20_Prime_rehash_policyENSA_17_Hashtable_traitsILb1ELb0ELb1EEEE13_M_rehash_auxEmSt17integral_constantIbLb1EE+0xfb>
    9813:	48 8b 45 e0          	mov    -0x20(%rbp),%rax
    9817:	48 8d 14 c5 00 00 00 	lea    0x0(,%rax,8),%rdx
    981e:	00 
    981f:	48 8b 45 e8          	mov    -0x18(%rbp),%rax
    9823:	48 01 c2             	add    %rax,%rdx
    9826:	48 8b 45 d8          	mov    -0x28(%rbp),%rax
    982a:	48 89 02             	mov    %rax,(%rdx)
    982d:	48 8b 45 f8          	mov    -0x8(%rbp),%rax
    9831:	48 89 45 e0          	mov    %rax,-0x20(%rbp)
    9835:	eb 3d                	jmp    9874 <_ZNSt10_HashtableINSt7__cxx1112basic_stringIcSt11char_traitsIcESaIcEEESt4pairIKS5_mESaIS8_ENSt8__detail10_Select1stESt8equal_toIS5_ESt4hashIS5_ENSA_18_Mod_range_hashingENSA_20_Default_ranged_hashENSA_20_Prime_rehash_policyENSA_17_Hashtable_traitsILb1ELb0ELb1EEEE13_M_rehash_auxEmSt17integral_constantIbLb1EE+0x142>
    9837:	48 8b 45 f8          	mov    -0x8(%rbp),%rax
    983b:	48 8d 14 c5 00 00 00 	lea    0x0(,%rax,8),%rdx
    9842:	00 
    9843:	48 8b 45 e8          	mov    -0x18(%rbp),%rax
    9847:	48 01 d0             	add    %rdx,%rax
    984a:	48 8b 00             	mov    (%rax),%rax
    984d:	48 8b 10             	mov    (%rax),%rdx
    9850:	48 8b 45 d8          	mov    -0x28(%rbp),%rax
    9854:	48 89 10             	mov    %rdx,(%rax)
    9857:	48 8b 45 f8          	mov    -0x8(%rbp),%rax
    985b:	48 8d 14 c5 00 00 00 	lea    0x0(,%rax,8),%rdx
    9862:	00 
    9863:	48 8b 45 e8          	mov    -0x18(%rbp),%rax
    9867:	48 01 d0             	add    %rdx,%rax
    986a:	48 8b 00             	mov    (%rax),%rax
    986d:	48 8b 55 d8          	mov    -0x28(%rbp),%rdx
    9871:	48 89 10             	mov    %rdx,(%rax)
    9874:	48 8b 45 f0          	mov    -0x10(%rbp),%rax
    9878:	48 89 45 d8          	mov    %rax,-0x28(%rbp)
    987c:	e9 fc fe ff ff       	jmpq   977d <_ZNSt10_HashtableINSt7__cxx1112basic_stringIcSt11char_traitsIcESaIcEEESt4pairIKS5_mESaIS8_ENSt8__detail10_Select1stESt8equal_toIS5_ESt4hashIS5_ENSA_18_Mod_range_hashingENSA_20_Default_ranged_hashENSA_20_Prime_rehash_policyENSA_17_Hashtable_traitsILb1ELb0ELb1EEEE13_M_rehash_auxEmSt17integral_constantIbLb1EE+0x4b>
    9881:	48 8b 45 c8          	mov    -0x38(%rbp),%rax
    9885:	48 89 c7             	mov    %rax,%rdi
    9888:	e8 97 b4 ff ff       	callq  4d24 <_ZNSt10_HashtableINSt7__cxx1112basic_stringIcSt11char_traitsIcESaIcEEESt4pairIKS5_mESaIS8_ENSt8__detail10_Select1stESt8equal_toIS5_ESt4hashIS5_ENSA_18_Mod_range_hashingENSA_20_Default_ranged_hashENSA_20_Prime_rehash_policyENSA_17_Hashtable_traitsILb1ELb0ELb1EEEE21_M_deallocate_bucketsEv>
    988d:	48 8b 45 c8          	mov    -0x38(%rbp),%rax
    9891:	48 8b 55 c0          	mov    -0x40(%rbp),%rdx
    9895:	48 89 50 08          	mov    %rdx,0x8(%rax)
    9899:	48 8b 45 c8          	mov    -0x38(%rbp),%rax
    989d:	48 8b 55 e8          	mov    -0x18(%rbp),%rdx
    98a1:	48 89 10             	mov    %rdx,(%rax)
    98a4:	90                   	nop
    98a5:	c9                   	leaveq 
    98a6:	c3                   	retq   

00000000000098a7 <_ZSt3getILm0EKNSt7__cxx1112basic_stringIcSt11char_traitsIcESaIcEEEmERNSt13tuple_elementIXT_ESt4pairIT0_T1_EE4typeERSB_>:
    98a7:	55                   	push   %rbp
    98a8:	48 89 e5             	mov    %rsp,%rbp
    98ab:	48 83 ec 10          	sub    $0x10,%rsp
    98af:	48 89 7d f8          	mov    %rdi,-0x8(%rbp)
    98b3:	48 8b 45 f8          	mov    -0x8(%rbp),%rax
    98b7:	48 89 c7             	mov    %rax,%rdi
    98ba:	e8 56 05 00 00       	callq  9e15 <_ZNSt10__pair_getILm0EE5__getIKNSt7__cxx1112basic_stringIcSt11char_traitsIcESaIcEEEmEERT_RSt4pairIS9_T0_E>
    98bf:	c9                   	leaveq 
    98c0:	c3                   	retq   
    98c1:	90                   	nop

00000000000098c2 <_ZNKSt8equal_toIPKcEclERKS1_S4_>:
    98c2:	55                   	push   %rbp
    98c3:	48 89 e5             	mov    %rsp,%rbp
    98c6:	48 89 7d f8          	mov    %rdi,-0x8(%rbp)
    98ca:	48 89 75 f0          	mov    %rsi,-0x10(%rbp)
    98ce:	48 89 55 e8          	mov    %rdx,-0x18(%rbp)
    98d2:	48 8b 45 f0          	mov    -0x10(%rbp),%rax
    98d6:	48 8b 10             	mov    (%rax),%rdx
    98d9:	48 8b 45 e8          	mov    -0x18(%rbp),%rax
    98dd:	48 8b 00             	mov    (%rax),%rax
    98e0:	48 39 c2             	cmp    %rax,%rdx
    98e3:	0f 94 c0             	sete   %al
    98e6:	5d                   	pop    %rbp
    98e7:	c3                   	retq   

00000000000098e8 <_ZNSt8__detail21_Hashtable_ebo_helperILi0ESt8equal_toIPKcELb1EE7_S_cgetERKS5_>:
    98e8:	55                   	push   %rbp
    98e9:	48 89 e5             	mov    %rsp,%rbp
    98ec:	48 89 7d f8          	mov    %rdi,-0x8(%rbp)
    98f0:	48 8b 45 f8          	mov    -0x8(%rbp),%rax
    98f4:	5d                   	pop    %rbp
    98f5:	c3                   	retq   

00000000000098f6 <_ZNSt8__detail21_Hashtable_ebo_helperILi0ENS_10_Select1stELb1EE7_S_cgetERKS2_>:
    98f6:	55                   	push   %rbp
    98f7:	48 89 e5             	mov    %rsp,%rbp
    98fa:	48 89 7d f8          	mov    %rdi,-0x8(%rbp)
    98fe:	48 8b 45 f8          	mov    -0x8(%rbp),%rax
    9902:	5d                   	pop    %rbp
    9903:	c3                   	retq   

0000000000009904 <_ZNKSt8__detail21_Hash_node_value_baseISt4pairIKPKcNSt7__cxx1112basic_stringIcSt11char_traitsIcESaIcEEEEE4_M_vEv>:
    9904:	55                   	push   %rbp
    9905:	48 89 e5             	mov    %rsp,%rbp
    9908:	48 83 ec 10          	sub    $0x10,%rsp
    990c:	48 89 7d f8          	mov    %rdi,-0x8(%rbp)
    9910:	48 8b 45 f8          	mov    -0x8(%rbp),%rax
    9914:	48 89 c7             	mov    %rax,%rdi
    9917:	e8 08 05 00 00       	callq  9e24 <_ZNKSt8__detail21_Hash_node_value_baseISt4pairIKPKcNSt7__cxx1112basic_stringIcSt11char_traitsIcESaIcEEEEE9_M_valptrEv>
    991c:	c9                   	leaveq 
    991d:	c3                   	retq   

000000000000991e <_ZN9__gnu_cxx13new_allocatorINSt8__detail10_Hash_nodeISt4pairIKPKcNSt7__cxx1112basic_stringIcSt11char_traitsIcESaIcEEEELb0EEEE8allocateEmPKv>:
    991e:	55                   	push   %rbp
    991f:	48 89 e5             	mov    %rsp,%rbp
    9922:	48 83 ec 20          	sub    $0x20,%rsp
    9926:	48 89 7d f8          	mov    %rdi,-0x8(%rbp)
    992a:	48 89 75 f0          	mov    %rsi,-0x10(%rbp)
    992e:	48 89 55 e8          	mov    %rdx,-0x18(%rbp)
    9932:	48 8b 45 f8          	mov    -0x8(%rbp),%rax
    9936:	48 89 c7             	mov    %rax,%rdi
    9939:	e8 04 05 00 00       	callq  9e42 <_ZNK9__gnu_cxx13new_allocatorINSt8__detail10_Hash_nodeISt4pairIKPKcNSt7__cxx1112basic_stringIcSt11char_traitsIcESaIcEEEELb0EEEE8max_sizeEv>
    993e:	48 39 45 f0          	cmp    %rax,-0x10(%rbp)
    9942:	0f 97 c0             	seta   %al
    9945:	84 c0                	test   %al,%al
    9947:	74 05                	je     994e <_ZN9__gnu_cxx13new_allocatorINSt8__detail10_Hash_nodeISt4pairIKPKcNSt7__cxx1112basic_stringIcSt11char_traitsIcESaIcEEEELb0EEEE8allocateEmPKv+0x30>
    9949:	e8 12 7b ff ff       	callq  1460 <_ZSt17__throw_bad_allocv@plt>
    994e:	48 8b 55 f0          	mov    -0x10(%rbp),%rdx
    9952:	48 89 d0             	mov    %rdx,%rax
    9955:	48 01 c0             	add    %rax,%rax
    9958:	48 01 d0             	add    %rdx,%rax
    995b:	48 c1 e0 04          	shl    $0x4,%rax
    995f:	48 89 c7             	mov    %rax,%rdi
    9962:	e8 c9 7b ff ff       	callq  1530 <_Znwm@plt>
    9967:	c9                   	leaveq 
    9968:	c3                   	retq   
    9969:	90                   	nop

000000000000996a <_ZNSt4pairIKPKcNSt7__cxx1112basic_stringIcSt11char_traitsIcESaIcEEEEC1ERKS9_>:
    996a:	55                   	push   %rbp
    996b:	48 89 e5             	mov    %rsp,%rbp
    996e:	48 83 ec 10          	sub    $0x10,%rsp
    9972:	48 89 7d f8          	mov    %rdi,-0x8(%rbp)
    9976:	48 89 75 f0          	mov    %rsi,-0x10(%rbp)
    997a:	48 8b 45 f0          	mov    -0x10(%rbp),%rax
    997e:	48 8b 10             	mov    (%rax),%rdx
    9981:	48 8b 45 f8          	mov    -0x8(%rbp),%rax
    9985:	48 89 10             	mov    %rdx,(%rax)
    9988:	48 8b 45 f8          	mov    -0x8(%rbp),%rax
    998c:	48 83 c0 08          	add    $0x8,%rax
    9990:	48 8b 55 f0          	mov    -0x10(%rbp),%rdx
    9994:	48 83 c2 08          	add    $0x8,%rdx
    9998:	48 89 d6             	mov    %rdx,%rsi
    999b:	48 89 c7             	mov    %rax,%rdi
    999e:	e8 dd 7a ff ff       	callq  1480 <_ZNSt7__cxx1112basic_stringIcSt11char_traitsIcESaIcEEC1ERKS4_@plt>
    99a3:	90                   	nop
    99a4:	c9                   	leaveq 
    99a5:	c3                   	retq   

00000000000099a6 <_ZN9__gnu_cxx13new_allocatorISt4pairIKPKcNSt7__cxx1112basic_stringIcSt11char_traitsIcESaIcEEEEE9constructISB_JRKSB_EEEvPT_DpOT0_>:
    99a6:	55                   	push   %rbp
    99a7:	48 89 e5             	mov    %rsp,%rbp
    99aa:	41 55                	push   %r13
    99ac:	41 54                	push   %r12
    99ae:	53                   	push   %rbx
    99af:	48 83 ec 28          	sub    $0x28,%rsp
    99b3:	48 89 7d d8          	mov    %rdi,-0x28(%rbp)
    99b7:	48 89 75 d0          	mov    %rsi,-0x30(%rbp)
    99bb:	48 89 55 c8          	mov    %rdx,-0x38(%rbp)
    99bf:	48 8b 45 c8          	mov    -0x38(%rbp),%rax
    99c3:	48 89 c7             	mov    %rax,%rdi
    99c6:	e8 63 cb ff ff       	callq  652e <_ZSt7forwardIRKSt4pairIKPKcNSt7__cxx1112basic_stringIcSt11char_traitsIcESaIcEEEEEOT_RNSt16remove_referenceISD_E4typeE>
    99cb:	49 89 c5             	mov    %rax,%r13
    99ce:	4c 8b 65 d0          	mov    -0x30(%rbp),%r12
    99d2:	4c 89 e6             	mov    %r12,%rsi
    99d5:	bf 28 00 00 00       	mov    $0x28,%edi
    99da:	e8 ce 93 ff ff       	callq  2dad <_ZnwmPv>
    99df:	48 89 c3             	mov    %rax,%rbx
    99e2:	48 85 db             	test   %rbx,%rbx
    99e5:	74 26                	je     9a0d <_ZN9__gnu_cxx13new_allocatorISt4pairIKPKcNSt7__cxx1112basic_stringIcSt11char_traitsIcESaIcEEEEE9constructISB_JRKSB_EEEvPT_DpOT0_+0x67>
    99e7:	4c 89 ee             	mov    %r13,%rsi
    99ea:	48 89 df             	mov    %rbx,%rdi
    99ed:	e8 78 ff ff ff       	callq  996a <_ZNSt4pairIKPKcNSt7__cxx1112basic_stringIcSt11char_traitsIcESaIcEEEEC1ERKS9_>
    99f2:	eb 19                	jmp    9a0d <_ZN9__gnu_cxx13new_allocatorISt4pairIKPKcNSt7__cxx1112basic_stringIcSt11char_traitsIcESaIcEEEEE9constructISB_JRKSB_EEEvPT_DpOT0_+0x67>
    99f4:	49 89 c5             	mov    %rax,%r13
    99f7:	4c 89 e6             	mov    %r12,%rsi
    99fa:	48 89 df             	mov    %rbx,%rdi
    99fd:	e8 bd 93 ff ff       	callq  2dbf <_ZdlPvS_>
    9a02:	4c 89 e8             	mov    %r13,%rax
    9a05:	48 89 c7             	mov    %rax,%rdi
    9a08:	e8 f3 7b ff ff       	callq  1600 <_Unwind_Resume@plt>
    9a0d:	90                   	nop
    9a0e:	48 83 c4 28          	add    $0x28,%rsp
    9a12:	5b                   	pop    %rbx
    9a13:	41 5c                	pop    %r12
    9a15:	41 5d                	pop    %r13
    9a17:	5d                   	pop    %rbp
    9a18:	c3                   	retq   

0000000000009a19 <_ZNSt10__pair_getILm0EE5__getIKPKcNSt7__cxx1112basic_stringIcSt11char_traitsIcESaIcEEEEERT_RSt4pairISB_T0_E>:
    9a19:	55                   	push   %rbp
    9a1a:	48 89 e5             	mov    %rsp,%rbp
    9a1d:	48 89 7d f8          	mov    %rdi,-0x8(%rbp)
    9a21:	48 8b 45 f8          	mov    -0x8(%rbp),%rax
    9a25:	5d                   	pop    %rbp
    9a26:	c3                   	retq   

0000000000009a27 <_ZNSt8__detail13_Equal_helperIiSt4pairIKiNSt7__cxx1112basic_stringIcSt11char_traitsIcESaIcEEEENS_10_Select1stESt8equal_toIiEmLb0EE9_S_equalsERKSC_RKSA_RS2_mPNS_10_Hash_nodeIS9_Lb0EEE>:
    9a27:	55                   	push   %rbp
    9a28:	48 89 e5             	mov    %rsp,%rbp
    9a2b:	48 83 ec 30          	sub    $0x30,%rsp
    9a2f:	48 89 7d f8          	mov    %rdi,-0x8(%rbp)
    9a33:	48 89 75 f0          	mov    %rsi,-0x10(%rbp)
    9a37:	48 89 55 e8          	mov    %rdx,-0x18(%rbp)
    9a3b:	48 89 4d e0          	mov    %rcx,-0x20(%rbp)
    9a3f:	4c 89 45 d8          	mov    %r8,-0x28(%rbp)
    9a43:	48 8b 45 d8          	mov    -0x28(%rbp),%rax
    9a47:	48 89 c7             	mov    %rax,%rdi
    9a4a:	e8 d7 ee ff ff       	callq  8926 <_ZNSt8__detail21_Hash_node_value_baseISt4pairIKiNSt7__cxx1112basic_stringIcSt11char_traitsIcESaIcEEEEE4_M_vEv>
    9a4f:	48 89 c2             	mov    %rax,%rdx
    9a52:	48 8b 45 f0          	mov    -0x10(%rbp),%rax
    9a56:	48 89 d6             	mov    %rdx,%rsi
    9a59:	48 89 c7             	mov    %rax,%rdi
    9a5c:	e8 df ee ff ff       	callq  8940 <_ZNKSt8__detail10_Select1stclIRSt4pairIKiNSt7__cxx1112basic_stringIcSt11char_traitsIcESaIcEEEEEEDTcl3getILi0EEcl7forwardIT_Efp_EEEOSC_>
    9a61:	48 89 c2             	mov    %rax,%rdx
    9a64:	48 8b 4d e8          	mov    -0x18(%rbp),%rcx
    9a68:	48 8b 45 f8          	mov    -0x8(%rbp),%rax
    9a6c:	48 89 ce             	mov    %rcx,%rsi
    9a6f:	48 89 c7             	mov    %rax,%rdi
    9a72:	e8 df 03 00 00       	callq  9e56 <_ZNKSt8equal_toIiEclERKiS2_>
    9a77:	c9                   	leaveq 
    9a78:	c3                   	retq   
    9a79:	90                   	nop

0000000000009a7a <_ZNKSt8__detail15_Hashtable_baseIiSt4pairIKiNSt7__cxx1112basic_stringIcSt11char_traitsIcESaIcEEEENS_10_Select1stESt8equal_toIiESt4hashIiENS_18_Mod_range_hashingENS_20_Default_ranged_hashENS_17_Hashtable_traitsILb0ELb0ELb1EEEE5_M_eqEv>:
    9a7a:	55                   	push   %rbp
    9a7b:	48 89 e5             	mov    %rsp,%rbp
    9a7e:	48 83 ec 10          	sub    $0x10,%rsp
    9a82:	48 89 7d f8          	mov    %rdi,-0x8(%rbp)
    9a86:	48 8b 45 f8          	mov    -0x8(%rbp),%rax
    9a8a:	48 89 c7             	mov    %rax,%rdi
    9a8d:	e8 e7 03 00 00       	callq  9e79 <_ZNSt8__detail21_Hashtable_ebo_helperILi0ESt8equal_toIiELb1EE7_S_cgetERKS3_>
    9a92:	c9                   	leaveq 
    9a93:	c3                   	retq   

0000000000009a94 <_ZNKSt8__detail15_Hash_code_baseIiSt4pairIKiNSt7__cxx1112basic_stringIcSt11char_traitsIcESaIcEEEENS_10_Select1stESt4hashIiENS_18_Mod_range_hashingENS_20_Default_ranged_hashELb0EE10_M_extractEv>:
    9a94:	55                   	push   %rbp
    9a95:	48 89 e5             	mov    %rsp,%rbp
    9a98:	48 83 ec 10          	sub    $0x10,%rsp
    9a9c:	48 89 7d f8          	mov    %rdi,-0x8(%rbp)
    9aa0:	48 8b 45 f8          	mov    -0x8(%rbp),%rax
    9aa4:	48 89 c7             	mov    %rax,%rdi
    9aa7:	e8 4a fe ff ff       	callq  98f6 <_ZNSt8__detail21_Hashtable_ebo_helperILi0ENS_10_Select1stELb1EE7_S_cgetERKS2_>
    9aac:	c9                   	leaveq 
    9aad:	c3                   	retq   

0000000000009aae <_ZNKSt8__detail15_Hash_code_baseIiSt4pairIKiNSt7__cxx1112basic_stringIcSt11char_traitsIcESaIcEEEENS_10_Select1stESt4hashIiENS_18_Mod_range_hashingENS_20_Default_ranged_hashELb0EE15_M_bucket_indexEPKNS_10_Hash_nodeIS9_Lb0EEEm>:
    9aae:	55                   	push   %rbp
    9aaf:	48 89 e5             	mov    %rsp,%rbp
    9ab2:	41 55                	push   %r13
    9ab4:	41 54                	push   %r12
    9ab6:	53                   	push   %rbx
    9ab7:	48 83 ec 28          	sub    $0x28,%rsp
    9abb:	48 89 7d d8          	mov    %rdi,-0x28(%rbp)
    9abf:	48 89 75 d0          	mov    %rsi,-0x30(%rbp)
    9ac3:	48 89 55 c8          	mov    %rdx,-0x38(%rbp)
    9ac7:	48 8b 45 d8          	mov    -0x28(%rbp),%rax
    9acb:	48 89 c7             	mov    %rax,%rdi
    9ace:	e8 97 f8 ff ff       	callq  936a <_ZNKSt8__detail15_Hash_code_baseIiSt4pairIKiNSt7__cxx1112basic_stringIcSt11char_traitsIcESaIcEEEENS_10_Select1stESt4hashIiENS_18_Mod_range_hashingENS_20_Default_ranged_hashELb0EE5_M_h2Ev>
    9ad3:	48 89 c3             	mov    %rax,%rbx
    9ad6:	48 8b 45 d8          	mov    -0x28(%rbp),%rax
    9ada:	48 89 c7             	mov    %rax,%rdi
    9add:	e8 ae ea ff ff       	callq  8590 <_ZNKSt8__detail15_Hash_code_baseIiSt4pairIKiNSt7__cxx1112basic_stringIcSt11char_traitsIcESaIcEEEENS_10_Select1stESt4hashIiENS_18_Mod_range_hashingENS_20_Default_ranged_hashELb0EE5_M_h1Ev>
    9ae2:	49 89 c4             	mov    %rax,%r12
    9ae5:	48 8b 45 d8          	mov    -0x28(%rbp),%rax
    9ae9:	48 89 c7             	mov    %rax,%rdi
    9aec:	e8 a3 ff ff ff       	callq  9a94 <_ZNKSt8__detail15_Hash_code_baseIiSt4pairIKiNSt7__cxx1112basic_stringIcSt11char_traitsIcESaIcEEEENS_10_Select1stESt4hashIiENS_18_Mod_range_hashingENS_20_Default_ranged_hashELb0EE10_M_extractEv>
    9af1:	49 89 c5             	mov    %rax,%r13
    9af4:	48 8b 45 d0          	mov    -0x30(%rbp),%rax
    9af8:	48 89 c7             	mov    %rax,%rdi
    9afb:	e8 88 03 00 00       	callq  9e88 <_ZNKSt8__detail21_Hash_node_value_baseISt4pairIKiNSt7__cxx1112basic_stringIcSt11char_traitsIcESaIcEEEEE4_M_vEv>
    9b00:	48 89 c6             	mov    %rax,%rsi
    9b03:	4c 89 ef             	mov    %r13,%rdi
    9b06:	e8 b3 db ff ff       	callq  76be <_ZNKSt8__detail10_Select1stclIRKSt4pairIKiNSt7__cxx1112basic_stringIcSt11char_traitsIcESaIcEEEEEEDTcl3getILi0EEcl7forwardIT_Efp_EEEOSD_>
    9b0b:	8b 00                	mov    (%rax),%eax
    9b0d:	89 c6                	mov    %eax,%esi
    9b0f:	4c 89 e7             	mov    %r12,%rdi
    9b12:	e8 f3 92 ff ff       	callq  2e0a <_ZNKSt4hashIiEclEi>
    9b17:	48 89 c1             	mov    %rax,%rcx
    9b1a:	48 8b 45 c8          	mov    -0x38(%rbp),%rax
    9b1e:	48 89 c2             	mov    %rax,%rdx
    9b21:	48 89 ce             	mov    %rcx,%rsi
    9b24:	48 89 df             	mov    %rbx,%rdi
    9b27:	e8 78 93 ff ff       	callq  2ea4 <_ZNKSt8__detail18_Mod_range_hashingclEmm>
    9b2c:	48 83 c4 28          	add    $0x28,%rsp
    9b30:	5b                   	pop    %rbx
    9b31:	41 5c                	pop    %r12
    9b33:	41 5d                	pop    %r13
    9b35:	5d                   	pop    %rbp
    9b36:	c3                   	retq   
    9b37:	90                   	nop

0000000000009b38 <_ZN9__gnu_cxx13new_allocatorINSt8__detail10_Hash_nodeISt4pairIKiNSt7__cxx1112basic_stringIcSt11char_traitsIcESaIcEEEELb0EEEE8allocateEmPKv>:
    9b38:	55                   	push   %rbp
    9b39:	48 89 e5             	mov    %rsp,%rbp
    9b3c:	48 83 ec 20          	sub    $0x20,%rsp
    9b40:	48 89 7d f8          	mov    %rdi,-0x8(%rbp)
    9b44:	48 89 75 f0          	mov    %rsi,-0x10(%rbp)
    9b48:	48 89 55 e8          	mov    %rdx,-0x18(%rbp)
    9b4c:	48 8b 45 f8          	mov    -0x8(%rbp),%rax
    9b50:	48 89 c7             	mov    %rax,%rdi
    9b53:	e8 4a 03 00 00       	callq  9ea2 <_ZNK9__gnu_cxx13new_allocatorINSt8__detail10_Hash_nodeISt4pairIKiNSt7__cxx1112basic_stringIcSt11char_traitsIcESaIcEEEELb0EEEE8max_sizeEv>
    9b58:	48 39 45 f0          	cmp    %rax,-0x10(%rbp)
    9b5c:	0f 97 c0             	seta   %al
    9b5f:	84 c0                	test   %al,%al
    9b61:	74 05                	je     9b68 <_ZN9__gnu_cxx13new_allocatorINSt8__detail10_Hash_nodeISt4pairIKiNSt7__cxx1112basic_stringIcSt11char_traitsIcESaIcEEEELb0EEEE8allocateEmPKv+0x30>
    9b63:	e8 f8 78 ff ff       	callq  1460 <_ZSt17__throw_bad_allocv@plt>
    9b68:	48 8b 55 f0          	mov    -0x10(%rbp),%rdx
    9b6c:	48 89 d0             	mov    %rdx,%rax
    9b6f:	48 01 c0             	add    %rax,%rax
    9b72:	48 01 d0             	add    %rdx,%rax
    9b75:	48 c1 e0 04          	shl    $0x4,%rax
    9b79:	48 89 c7             	mov    %rax,%rdi
    9b7c:	e8 af 79 ff ff       	callq  1530 <_Znwm@plt>
    9b81:	c9                   	leaveq 
    9b82:	c3                   	retq   
    9b83:	90                   	nop

0000000000009b84 <_ZNSt4pairIKiNSt7__cxx1112basic_stringIcSt11char_traitsIcESaIcEEEEC1ERKS7_>:
    9b84:	55                   	push   %rbp
    9b85:	48 89 e5             	mov    %rsp,%rbp
    9b88:	48 83 ec 10          	sub    $0x10,%rsp
    9b8c:	48 89 7d f8          	mov    %rdi,-0x8(%rbp)
    9b90:	48 89 75 f0          	mov    %rsi,-0x10(%rbp)
    9b94:	48 8b 45 f0          	mov    -0x10(%rbp),%rax
    9b98:	8b 10                	mov    (%rax),%edx
    9b9a:	48 8b 45 f8          	mov    -0x8(%rbp),%rax
    9b9e:	89 10                	mov    %edx,(%rax)
    9ba0:	48 8b 45 f8          	mov    -0x8(%rbp),%rax
    9ba4:	48 83 c0 08          	add    $0x8,%rax
    9ba8:	48 8b 55 f0          	mov    -0x10(%rbp),%rdx
    9bac:	48 83 c2 08          	add    $0x8,%rdx
    9bb0:	48 89 d6             	mov    %rdx,%rsi
    9bb3:	48 89 c7             	mov    %rax,%rdi
    9bb6:	e8 c5 78 ff ff       	callq  1480 <_ZNSt7__cxx1112basic_stringIcSt11char_traitsIcESaIcEEC1ERKS4_@plt>
    9bbb:	90                   	nop
    9bbc:	c9                   	leaveq 
    9bbd:	c3                   	retq   

0000000000009bbe <_ZN9__gnu_cxx13new_allocatorISt4pairIKiNSt7__cxx1112basic_stringIcSt11char_traitsIcESaIcEEEEE9constructIS9_JRKS9_EEEvPT_DpOT0_>:
    9bbe:	55                   	push   %rbp
    9bbf:	48 89 e5             	mov    %rsp,%rbp
    9bc2:	41 55                	push   %r13
    9bc4:	41 54                	push   %r12
    9bc6:	53                   	push   %rbx
    9bc7:	48 83 ec 28          	sub    $0x28,%rsp
    9bcb:	48 89 7d d8          	mov    %rdi,-0x28(%rbp)
    9bcf:	48 89 75 d0          	mov    %rsi,-0x30(%rbp)
    9bd3:	48 89 55 c8          	mov    %rdx,-0x38(%rbp)
    9bd7:	48 8b 45 c8          	mov    -0x38(%rbp),%rax
    9bdb:	48 89 c7             	mov    %rax,%rdi
    9bde:	e8 85 cd ff ff       	callq  6968 <_ZSt7forwardIRKSt4pairIKiNSt7__cxx1112basic_stringIcSt11char_traitsIcESaIcEEEEEOT_RNSt16remove_referenceISB_E4typeE>
    9be3:	49 89 c5             	mov    %rax,%r13
    9be6:	4c 8b 65 d0          	mov    -0x30(%rbp),%r12
    9bea:	4c 89 e6             	mov    %r12,%rsi
    9bed:	bf 28 00 00 00       	mov    $0x28,%edi
    9bf2:	e8 b6 91 ff ff       	callq  2dad <_ZnwmPv>
    9bf7:	48 89 c3             	mov    %rax,%rbx
    9bfa:	48 85 db             	test   %rbx,%rbx
    9bfd:	74 26                	je     9c25 <_ZN9__gnu_cxx13new_allocatorISt4pairIKiNSt7__cxx1112basic_stringIcSt11char_traitsIcESaIcEEEEE9constructIS9_JRKS9_EEEvPT_DpOT0_+0x67>
    9bff:	4c 89 ee             	mov    %r13,%rsi
    9c02:	48 89 df             	mov    %rbx,%rdi
    9c05:	e8 7a ff ff ff       	callq  9b84 <_ZNSt4pairIKiNSt7__cxx1112basic_stringIcSt11char_traitsIcESaIcEEEEC1ERKS7_>
    9c0a:	eb 19                	jmp    9c25 <_ZN9__gnu_cxx13new_allocatorISt4pairIKiNSt7__cxx1112basic_stringIcSt11char_traitsIcESaIcEEEEE9constructIS9_JRKS9_EEEvPT_DpOT0_+0x67>
    9c0c:	49 89 c5             	mov    %rax,%r13
    9c0f:	4c 89 e6             	mov    %r12,%rsi
    9c12:	48 89 df             	mov    %rbx,%rdi
    9c15:	e8 a5 91 ff ff       	callq  2dbf <_ZdlPvS_>
    9c1a:	4c 89 e8             	mov    %r13,%rax
    9c1d:	48 89 c7             	mov    %rax,%rdi
    9c20:	e8 db 79 ff ff       	callq  1600 <_Unwind_Resume@plt>
    9c25:	90                   	nop
    9c26:	48 83 c4 28          	add    $0x28,%rsp
    9c2a:	5b                   	pop    %rbx
    9c2b:	41 5c                	pop    %r12
    9c2d:	41 5d                	pop    %r13
    9c2f:	5d                   	pop    %rbp
    9c30:	c3                   	retq   

0000000000009c31 <_ZNSt10__pair_getILm0EE5__getIKiNSt7__cxx1112basic_stringIcSt11char_traitsIcESaIcEEEEERT_RSt4pairIS9_T0_E>:
    9c31:	55                   	push   %rbp
    9c32:	48 89 e5             	mov    %rsp,%rbp
    9c35:	48 89 7d f8          	mov    %rdi,-0x8(%rbp)
    9c39:	48 8b 45 f8          	mov    -0x8(%rbp),%rax
    9c3d:	5d                   	pop    %rbp
    9c3e:	c3                   	retq   

0000000000009c3f <_ZNSt8__detail13_Equal_helperINSt7__cxx1112basic_stringIcSt11char_traitsIcESaIcEEESt4pairIKS6_mENS_10_Select1stESt8equal_toIS6_EmLb1EE9_S_equalsERKSC_RKSA_RS8_mPNS_10_Hash_nodeIS9_Lb1EEE>:
    9c3f:	55                   	push   %rbp
    9c40:	48 89 e5             	mov    %rsp,%rbp
    9c43:	48 83 ec 30          	sub    $0x30,%rsp
    9c47:	48 89 7d f8          	mov    %rdi,-0x8(%rbp)
    9c4b:	48 89 75 f0          	mov    %rsi,-0x10(%rbp)
    9c4f:	48 89 55 e8          	mov    %rdx,-0x18(%rbp)
    9c53:	48 89 4d e0          	mov    %rcx,-0x20(%rbp)
    9c57:	4c 89 45 d8          	mov    %r8,-0x28(%rbp)
    9c5b:	48 8b 45 d8          	mov    -0x28(%rbp),%rax
    9c5f:	48 8b 40 30          	mov    0x30(%rax),%rax
    9c63:	48 39 45 e0          	cmp    %rax,-0x20(%rbp)
    9c67:	75 3f                	jne    9ca8 <_ZNSt8__detail13_Equal_helperINSt7__cxx1112basic_stringIcSt11char_traitsIcESaIcEEESt4pairIKS6_mENS_10_Select1stESt8equal_toIS6_EmLb1EE9_S_equalsERKSC_RKSA_RS8_mPNS_10_Hash_nodeIS9_Lb1EEE+0x69>
    9c69:	48 8b 45 d8          	mov    -0x28(%rbp),%rax
    9c6d:	48 89 c7             	mov    %rax,%rdi
    9c70:	e8 29 f2 ff ff       	callq  8e9e <_ZNSt8__detail21_Hash_node_value_baseISt4pairIKNSt7__cxx1112basic_stringIcSt11char_traitsIcESaIcEEEmEE4_M_vEv>
    9c75:	48 89 c2             	mov    %rax,%rdx
    9c78:	48 8b 45 f0          	mov    -0x10(%rbp),%rax
    9c7c:	48 89 d6             	mov    %rdx,%rsi
    9c7f:	48 89 c7             	mov    %rax,%rdi
    9c82:	e8 31 f2 ff ff       	callq  8eb8 <_ZNKSt8__detail10_Select1stclIRSt4pairIKNSt7__cxx1112basic_stringIcSt11char_traitsIcESaIcEEEmEEEDTcl3getILi0EEcl7forwardIT_Efp_EEEOSC_>
    9c87:	48 89 c2             	mov    %rax,%rdx
    9c8a:	48 8b 4d e8          	mov    -0x18(%rbp),%rcx
    9c8e:	48 8b 45 f8          	mov    -0x8(%rbp),%rax
    9c92:	48 89 ce             	mov    %rcx,%rsi
    9c95:	48 89 c7             	mov    %rax,%rdi
    9c98:	e8 19 02 00 00       	callq  9eb6 <_ZNKSt8equal_toINSt7__cxx1112basic_stringIcSt11char_traitsIcESaIcEEEEclERKS5_S8_>
    9c9d:	84 c0                	test   %al,%al
    9c9f:	74 07                	je     9ca8 <_ZNSt8__detail13_Equal_helperINSt7__cxx1112basic_stringIcSt11char_traitsIcESaIcEEESt4pairIKS6_mENS_10_Select1stESt8equal_toIS6_EmLb1EE9_S_equalsERKSC_RKSA_RS8_mPNS_10_Hash_nodeIS9_Lb1EEE+0x69>
    9ca1:	b8 01 00 00 00       	mov    $0x1,%eax
    9ca6:	eb 05                	jmp    9cad <_ZNSt8__detail13_Equal_helperINSt7__cxx1112basic_stringIcSt11char_traitsIcESaIcEEESt4pairIKS6_mENS_10_Select1stESt8equal_toIS6_EmLb1EE9_S_equalsERKSC_RKSA_RS8_mPNS_10_Hash_nodeIS9_Lb1EEE+0x6e>
    9ca8:	b8 00 00 00 00       	mov    $0x0,%eax
    9cad:	c9                   	leaveq 
    9cae:	c3                   	retq   
    9caf:	90                   	nop

0000000000009cb0 <_ZNKSt8__detail15_Hashtable_baseINSt7__cxx1112basic_stringIcSt11char_traitsIcESaIcEEESt4pairIKS6_mENS_10_Select1stESt8equal_toIS6_ESt4hashIS6_ENS_18_Mod_range_hashingENS_20_Default_ranged_hashENS_17_Hashtable_traitsILb1ELb0ELb1EEEE5_M_eqEv>:
    9cb0:	55                   	push   %rbp
    9cb1:	48 89 e5             	mov    %rsp,%rbp
    9cb4:	48 83 ec 10          	sub    $0x10,%rsp
    9cb8:	48 89 7d f8          	mov    %rdi,-0x8(%rbp)
    9cbc:	48 8b 45 f8          	mov    -0x8(%rbp),%rax
    9cc0:	48 89 c7             	mov    %rax,%rdi
    9cc3:	e8 17 02 00 00       	callq  9edf <_ZNSt8__detail21_Hashtable_ebo_helperILi0ESt8equal_toINSt7__cxx1112basic_stringIcSt11char_traitsIcESaIcEEEELb1EE7_S_cgetERKS9_>
    9cc8:	c9                   	leaveq 
    9cc9:	c3                   	retq   

0000000000009cca <_ZNKSt8__detail15_Hash_code_baseINSt7__cxx1112basic_stringIcSt11char_traitsIcESaIcEEESt4pairIKS6_mENS_10_Select1stESt4hashIS6_ENS_18_Mod_range_hashingENS_20_Default_ranged_hashELb1EE10_M_extractEv>:
    9cca:	55                   	push   %rbp
    9ccb:	48 89 e5             	mov    %rsp,%rbp
    9cce:	48 83 ec 10          	sub    $0x10,%rsp
    9cd2:	48 89 7d f8          	mov    %rdi,-0x8(%rbp)
    9cd6:	48 8b 45 f8          	mov    -0x8(%rbp),%rax
    9cda:	48 89 c7             	mov    %rax,%rdi
    9cdd:	e8 14 fc ff ff       	callq  98f6 <_ZNSt8__detail21_Hashtable_ebo_helperILi0ENS_10_Select1stELb1EE7_S_cgetERKS2_>
    9ce2:	c9                   	leaveq 
    9ce3:	c3                   	retq   

0000000000009ce4 <_ZNKSt8__detail15_Hash_code_baseINSt7__cxx1112basic_stringIcSt11char_traitsIcESaIcEEESt4pairIKS6_mENS_10_Select1stESt4hashIS6_ENS_18_Mod_range_hashingENS_20_Default_ranged_hashELb1EE15_M_bucket_indexEPKNS_10_Hash_nodeIS9_Lb1EEEm>:
    9ce4:	55                   	push   %rbp
    9ce5:	48 89 e5             	mov    %rsp,%rbp
    9ce8:	48 83 ec 20          	sub    $0x20,%rsp
    9cec:	48 89 7d f8          	mov    %rdi,-0x8(%rbp)
    9cf0:	48 89 75 f0          	mov    %rsi,-0x10(%rbp)
    9cf4:	48 89 55 e8          	mov    %rdx,-0x18(%rbp)
    9cf8:	48 8b 45 f8          	mov    -0x8(%rbp),%rax
    9cfc:	48 89 c7             	mov    %rax,%rdi
    9cff:	e8 28 f9 ff ff       	callq  962c <_ZNKSt8__detail15_Hash_code_baseINSt7__cxx1112basic_stringIcSt11char_traitsIcESaIcEEESt4pairIKS6_mENS_10_Select1stESt4hashIS6_ENS_18_Mod_range_hashingENS_20_Default_ranged_hashELb1EE5_M_h2Ev>
    9d04:	48 89 c1             	mov    %rax,%rcx
    9d07:	48 8b 45 f0          	mov    -0x10(%rbp),%rax
    9d0b:	48 8b 40 30          	mov    0x30(%rax),%rax
    9d0f:	48 8b 55 e8          	mov    -0x18(%rbp),%rdx
    9d13:	48 89 c6             	mov    %rax,%rsi
    9d16:	48 89 cf             	mov    %rcx,%rdi
    9d19:	e8 86 91 ff ff       	callq  2ea4 <_ZNKSt8__detail18_Mod_range_hashingclEmm>
    9d1e:	c9                   	leaveq 
    9d1f:	c3                   	retq   

0000000000009d20 <_ZN9__gnu_cxx13new_allocatorINSt8__detail10_Hash_nodeISt4pairIKNSt7__cxx1112basic_stringIcSt11char_traitsIcESaIcEEEmELb1EEEE8allocateEmPKv>:
    9d20:	55                   	push   %rbp
    9d21:	48 89 e5             	mov    %rsp,%rbp
    9d24:	48 83 ec 20          	sub    $0x20,%rsp
    9d28:	48 89 7d f8          	mov    %rdi,-0x8(%rbp)
    9d2c:	48 89 75 f0          	mov    %rsi,-0x10(%rbp)
    9d30:	48 89 55 e8          	mov    %rdx,-0x18(%rbp)
    9d34:	48 8b 45 f8          	mov    -0x8(%rbp),%rax
    9d38:	48 89 c7             	mov    %rax,%rdi
    9d3b:	e8 ae 01 00 00       	callq  9eee <_ZNK9__gnu_cxx13new_allocatorINSt8__detail10_Hash_nodeISt4pairIKNSt7__cxx1112basic_stringIcSt11char_traitsIcESaIcEEEmELb1EEEE8max_sizeEv>
    9d40:	48 39 45 f0          	cmp    %rax,-0x10(%rbp)
    9d44:	0f 97 c0             	seta   %al
    9d47:	84 c0                	test   %al,%al
    9d49:	74 05                	je     9d50 <_ZN9__gnu_cxx13new_allocatorINSt8__detail10_Hash_nodeISt4pairIKNSt7__cxx1112basic_stringIcSt11char_traitsIcESaIcEEEmELb1EEEE8allocateEmPKv+0x30>
    9d4b:	e8 10 77 ff ff       	callq  1460 <_ZSt17__throw_bad_allocv@plt>
    9d50:	48 8b 55 f0          	mov    -0x10(%rbp),%rdx
    9d54:	48 89 d0             	mov    %rdx,%rax
    9d57:	48 c1 e0 03          	shl    $0x3,%rax
    9d5b:	48 29 d0             	sub    %rdx,%rax
    9d5e:	48 c1 e0 03          	shl    $0x3,%rax
    9d62:	48 89 c7             	mov    %rax,%rdi
    9d65:	e8 c6 77 ff ff       	callq  1530 <_Znwm@plt>
    9d6a:	c9                   	leaveq 
    9d6b:	c3                   	retq   

0000000000009d6c <_ZNSt4pairIKNSt7__cxx1112basic_stringIcSt11char_traitsIcESaIcEEEmEC1ERKS7_>:
    9d6c:	55                   	push   %rbp
    9d6d:	48 89 e5             	mov    %rsp,%rbp
    9d70:	48 83 ec 10          	sub    $0x10,%rsp
    9d74:	48 89 7d f8          	mov    %rdi,-0x8(%rbp)
    9d78:	48 89 75 f0          	mov    %rsi,-0x10(%rbp)
    9d7c:	48 8b 45 f8          	mov    -0x8(%rbp),%rax
    9d80:	48 8b 55 f0          	mov    -0x10(%rbp),%rdx
    9d84:	48 89 d6             	mov    %rdx,%rsi
    9d87:	48 89 c7             	mov    %rax,%rdi
    9d8a:	e8 f1 76 ff ff       	callq  1480 <_ZNSt7__cxx1112basic_stringIcSt11char_traitsIcESaIcEEC1ERKS4_@plt>
    9d8f:	48 8b 45 f0          	mov    -0x10(%rbp),%rax
    9d93:	48 8b 50 20          	mov    0x20(%rax),%rdx
    9d97:	48 8b 45 f8          	mov    -0x8(%rbp),%rax
    9d9b:	48 89 50 20          	mov    %rdx,0x20(%rax)
    9d9f:	90                   	nop
    9da0:	c9                   	leaveq 
    9da1:	c3                   	retq   

0000000000009da2 <_ZN9__gnu_cxx13new_allocatorISt4pairIKNSt7__cxx1112basic_stringIcSt11char_traitsIcESaIcEEEmEE9constructIS9_JRKS9_EEEvPT_DpOT0_>:
    9da2:	55                   	push   %rbp
    9da3:	48 89 e5             	mov    %rsp,%rbp
    9da6:	41 55                	push   %r13
    9da8:	41 54                	push   %r12
    9daa:	53                   	push   %rbx
    9dab:	48 83 ec 28          	sub    $0x28,%rsp
    9daf:	48 89 7d d8          	mov    %rdi,-0x28(%rbp)
    9db3:	48 89 75 d0          	mov    %rsi,-0x30(%rbp)
    9db7:	48 89 55 c8          	mov    %rdx,-0x38(%rbp)
    9dbb:	48 8b 45 c8          	mov    -0x38(%rbp),%rax
    9dbf:	48 89 c7             	mov    %rax,%rdi
    9dc2:	e8 95 cf ff ff       	callq  6d5c <_ZSt7forwardIRKSt4pairIKNSt7__cxx1112basic_stringIcSt11char_traitsIcESaIcEEEmEEOT_RNSt16remove_referenceISB_E4typeE>
    9dc7:	49 89 c5             	mov    %rax,%r13
    9dca:	4c 8b 65 d0          	mov    -0x30(%rbp),%r12
    9dce:	4c 89 e6             	mov    %r12,%rsi
    9dd1:	bf 28 00 00 00       	mov    $0x28,%edi
    9dd6:	e8 d2 8f ff ff       	callq  2dad <_ZnwmPv>
    9ddb:	48 89 c3             	mov    %rax,%rbx
    9dde:	48 85 db             	test   %rbx,%rbx
    9de1:	74 26                	je     9e09 <_ZN9__gnu_cxx13new_allocatorISt4pairIKNSt7__cxx1112basic_stringIcSt11char_traitsIcESaIcEEEmEE9constructIS9_JRKS9_EEEvPT_DpOT0_+0x67>
    9de3:	4c 89 ee             	mov    %r13,%rsi
    9de6:	48 89 df             	mov    %rbx,%rdi
    9de9:	e8 7e ff ff ff       	callq  9d6c <_ZNSt4pairIKNSt7__cxx1112basic_stringIcSt11char_traitsIcESaIcEEEmEC1ERKS7_>
    9dee:	eb 19                	jmp    9e09 <_ZN9__gnu_cxx13new_allocatorISt4pairIKNSt7__cxx1112basic_stringIcSt11char_traitsIcESaIcEEEmEE9constructIS9_JRKS9_EEEvPT_DpOT0_+0x67>
    9df0:	49 89 c5             	mov    %rax,%r13
    9df3:	4c 89 e6             	mov    %r12,%rsi
    9df6:	48 89 df             	mov    %rbx,%rdi
    9df9:	e8 c1 8f ff ff       	callq  2dbf <_ZdlPvS_>
    9dfe:	4c 89 e8             	mov    %r13,%rax
    9e01:	48 89 c7             	mov    %rax,%rdi
    9e04:	e8 f7 77 ff ff       	callq  1600 <_Unwind_Resume@plt>
    9e09:	90                   	nop
    9e0a:	48 83 c4 28          	add    $0x28,%rsp
    9e0e:	5b                   	pop    %rbx
    9e0f:	41 5c                	pop    %r12
    9e11:	41 5d                	pop    %r13
    9e13:	5d                   	pop    %rbp
    9e14:	c3                   	retq   

0000000000009e15 <_ZNSt10__pair_getILm0EE5__getIKNSt7__cxx1112basic_stringIcSt11char_traitsIcESaIcEEEmEERT_RSt4pairIS9_T0_E>:
    9e15:	55                   	push   %rbp
    9e16:	48 89 e5             	mov    %rsp,%rbp
    9e19:	48 89 7d f8          	mov    %rdi,-0x8(%rbp)
    9e1d:	48 8b 45 f8          	mov    -0x8(%rbp),%rax
    9e21:	5d                   	pop    %rbp
    9e22:	c3                   	retq   
    9e23:	90                   	nop

0000000000009e24 <_ZNKSt8__detail21_Hash_node_value_baseISt4pairIKPKcNSt7__cxx1112basic_stringIcSt11char_traitsIcESaIcEEEEE9_M_valptrEv>:
    9e24:	55                   	push   %rbp
    9e25:	48 89 e5             	mov    %rsp,%rbp
    9e28:	48 83 ec 10          	sub    $0x10,%rsp
    9e2c:	48 89 7d f8          	mov    %rdi,-0x8(%rbp)
    9e30:	48 8b 45 f8          	mov    -0x8(%rbp),%rax
    9e34:	48 83 c0 08          	add    $0x8,%rax
    9e38:	48 89 c7             	mov    %rax,%rdi
    9e3b:	e8 c2 00 00 00       	callq  9f02 <_ZNK9__gnu_cxx16__aligned_bufferISt4pairIKPKcNSt7__cxx1112basic_stringIcSt11char_traitsIcESaIcEEEEE6_M_ptrEv>
    9e40:	c9                   	leaveq 
    9e41:	c3                   	retq   

0000000000009e42 <_ZNK9__gnu_cxx13new_allocatorINSt8__detail10_Hash_nodeISt4pairIKPKcNSt7__cxx1112basic_stringIcSt11char_traitsIcESaIcEEEELb0EEEE8max_sizeEv>:
    9e42:	55                   	push   %rbp
    9e43:	48 89 e5             	mov    %rsp,%rbp
    9e46:	48 89 7d f8          	mov    %rdi,-0x8(%rbp)
    9e4a:	48 b8 55 55 55 55 55 	movabs $0x555555555555555,%rax
    9e51:	55 55 05 
    9e54:	5d                   	pop    %rbp
    9e55:	c3                   	retq   

0000000000009e56 <_ZNKSt8equal_toIiEclERKiS2_>:
    9e56:	55                   	push   %rbp
    9e57:	48 89 e5             	mov    %rsp,%rbp
    9e5a:	48 89 7d f8          	mov    %rdi,-0x8(%rbp)
    9e5e:	48 89 75 f0          	mov    %rsi,-0x10(%rbp)
    9e62:	48 89 55 e8          	mov    %rdx,-0x18(%rbp)
    9e66:	48 8b 45 f0          	mov    -0x10(%rbp),%rax
    9e6a:	8b 10                	mov    (%rax),%edx
    9e6c:	48 8b 45 e8          	mov    -0x18(%rbp),%rax
    9e70:	8b 00                	mov    (%rax),%eax
    9e72:	39 c2                	cmp    %eax,%edx
    9e74:	0f 94 c0             	sete   %al
    9e77:	5d                   	pop    %rbp
    9e78:	c3                   	retq   

0000000000009e79 <_ZNSt8__detail21_Hashtable_ebo_helperILi0ESt8equal_toIiELb1EE7_S_cgetERKS3_>:
    9e79:	55                   	push   %rbp
    9e7a:	48 89 e5             	mov    %rsp,%rbp
    9e7d:	48 89 7d f8          	mov    %rdi,-0x8(%rbp)
    9e81:	48 8b 45 f8          	mov    -0x8(%rbp),%rax
    9e85:	5d                   	pop    %rbp
    9e86:	c3                   	retq   
    9e87:	90                   	nop

0000000000009e88 <_ZNKSt8__detail21_Hash_node_value_baseISt4pairIKiNSt7__cxx1112basic_stringIcSt11char_traitsIcESaIcEEEEE4_M_vEv>:
    9e88:	55                   	push   %rbp
    9e89:	48 89 e5             	mov    %rsp,%rbp
    9e8c:	48 83 ec 10          	sub    $0x10,%rsp
    9e90:	48 89 7d f8          	mov    %rdi,-0x8(%rbp)
    9e94:	48 8b 45 f8          	mov    -0x8(%rbp),%rax
    9e98:	48 89 c7             	mov    %rax,%rdi
    9e9b:	e8 7c 00 00 00       	callq  9f1c <_ZNKSt8__detail21_Hash_node_value_baseISt4pairIKiNSt7__cxx1112basic_stringIcSt11char_traitsIcESaIcEEEEE9_M_valptrEv>
    9ea0:	c9                   	leaveq 
    9ea1:	c3                   	retq   

0000000000009ea2 <_ZNK9__gnu_cxx13new_allocatorINSt8__detail10_Hash_nodeISt4pairIKiNSt7__cxx1112basic_stringIcSt11char_traitsIcESaIcEEEELb0EEEE8max_sizeEv>:
    9ea2:	55                   	push   %rbp
    9ea3:	48 89 e5             	mov    %rsp,%rbp
    9ea6:	48 89 7d f8          	mov    %rdi,-0x8(%rbp)
    9eaa:	48 b8 55 55 55 55 55 	movabs $0x555555555555555,%rax
    9eb1:	55 55 05 
    9eb4:	5d                   	pop    %rbp
    9eb5:	c3                   	retq   

0000000000009eb6 <_ZNKSt8equal_toINSt7__cxx1112basic_stringIcSt11char_traitsIcESaIcEEEEclERKS5_S8_>:
    9eb6:	55                   	push   %rbp
    9eb7:	48 89 e5             	mov    %rsp,%rbp
    9eba:	48 83 ec 20          	sub    $0x20,%rsp
    9ebe:	48 89 7d f8          	mov    %rdi,-0x8(%rbp)
    9ec2:	48 89 75 f0          	mov    %rsi,-0x10(%rbp)
    9ec6:	48 89 55 e8          	mov    %rdx,-0x18(%rbp)
    9eca:	48 8b 55 e8          	mov    -0x18(%rbp),%rdx
    9ece:	48 8b 45 f0          	mov    -0x10(%rbp),%rax
    9ed2:	48 89 d6             	mov    %rdx,%rsi
    9ed5:	48 89 c7             	mov    %rax,%rdi
    9ed8:	e8 5d 00 00 00       	callq  9f3a <_ZSteqIcEN9__gnu_cxx11__enable_ifIXsrSt9__is_charIT_E7__valueEbE6__typeERKNSt7__cxx1112basic_stringIS3_St11char_traitsIS3_ESaIS3_EEESE_>
    9edd:	c9                   	leaveq 
    9ede:	c3                   	retq   

0000000000009edf <_ZNSt8__detail21_Hashtable_ebo_helperILi0ESt8equal_toINSt7__cxx1112basic_stringIcSt11char_traitsIcESaIcEEEELb1EE7_S_cgetERKS9_>:
    9edf:	55                   	push   %rbp
    9ee0:	48 89 e5             	mov    %rsp,%rbp
    9ee3:	48 89 7d f8          	mov    %rdi,-0x8(%rbp)
    9ee7:	48 8b 45 f8          	mov    -0x8(%rbp),%rax
    9eeb:	5d                   	pop    %rbp
    9eec:	c3                   	retq   
    9eed:	90                   	nop

0000000000009eee <_ZNK9__gnu_cxx13new_allocatorINSt8__detail10_Hash_nodeISt4pairIKNSt7__cxx1112basic_stringIcSt11char_traitsIcESaIcEEEmELb1EEEE8max_sizeEv>:
    9eee:	55                   	push   %rbp
    9eef:	48 89 e5             	mov    %rsp,%rbp
    9ef2:	48 89 7d f8          	mov    %rdi,-0x8(%rbp)
    9ef6:	48 b8 92 24 49 92 24 	movabs $0x492492492492492,%rax
    9efd:	49 92 04 
    9f00:	5d                   	pop    %rbp
    9f01:	c3                   	retq   

0000000000009f02 <_ZNK9__gnu_cxx16__aligned_bufferISt4pairIKPKcNSt7__cxx1112basic_stringIcSt11char_traitsIcESaIcEEEEE6_M_ptrEv>:
    9f02:	55                   	push   %rbp
    9f03:	48 89 e5             	mov    %rsp,%rbp
    9f06:	48 83 ec 10          	sub    $0x10,%rsp
    9f0a:	48 89 7d f8          	mov    %rdi,-0x8(%rbp)
    9f0e:	48 8b 45 f8          	mov    -0x8(%rbp),%rax
    9f12:	48 89 c7             	mov    %rax,%rdi
    9f15:	e8 a4 00 00 00       	callq  9fbe <_ZNK9__gnu_cxx16__aligned_bufferISt4pairIKPKcNSt7__cxx1112basic_stringIcSt11char_traitsIcESaIcEEEEE7_M_addrEv>
    9f1a:	c9                   	leaveq 
    9f1b:	c3                   	retq   

0000000000009f1c <_ZNKSt8__detail21_Hash_node_value_baseISt4pairIKiNSt7__cxx1112basic_stringIcSt11char_traitsIcESaIcEEEEE9_M_valptrEv>:
    9f1c:	55                   	push   %rbp
    9f1d:	48 89 e5             	mov    %rsp,%rbp
    9f20:	48 83 ec 10          	sub    $0x10,%rsp
    9f24:	48 89 7d f8          	mov    %rdi,-0x8(%rbp)
    9f28:	48 8b 45 f8          	mov    -0x8(%rbp),%rax
    9f2c:	48 83 c0 08          	add    $0x8,%rax
    9f30:	48 89 c7             	mov    %rax,%rdi
    9f33:	e8 94 00 00 00       	callq  9fcc <_ZNK9__gnu_cxx16__aligned_bufferISt4pairIKiNSt7__cxx1112basic_stringIcSt11char_traitsIcESaIcEEEEE6_M_ptrEv>
    9f38:	c9                   	leaveq 
    9f39:	c3                   	retq   

0000000000009f3a <_ZSteqIcEN9__gnu_cxx11__enable_ifIXsrSt9__is_charIT_E7__valueEbE6__typeERKNSt7__cxx1112basic_stringIS3_St11char_traitsIS3_ESaIS3_EEESE_>:
    9f3a:	55                   	push   %rbp
    9f3b:	48 89 e5             	mov    %rsp,%rbp
    9f3e:	41 54                	push   %r12
    9f40:	53                   	push   %rbx
    9f41:	48 83 ec 10          	sub    $0x10,%rsp
    9f45:	48 89 7d e8          	mov    %rdi,-0x18(%rbp)
    9f49:	48 89 75 e0          	mov    %rsi,-0x20(%rbp)
    9f4d:	48 8b 45 e8          	mov    -0x18(%rbp),%rax
    9f51:	48 89 c7             	mov    %rax,%rdi
    9f54:	e8 67 75 ff ff       	callq  14c0 <_ZNKSt7__cxx1112basic_stringIcSt11char_traitsIcESaIcEE4sizeEv@plt>
    9f59:	48 89 c3             	mov    %rax,%rbx
    9f5c:	48 8b 45 e0          	mov    -0x20(%rbp),%rax
    9f60:	48 89 c7             	mov    %rax,%rdi
    9f63:	e8 58 75 ff ff       	callq  14c0 <_ZNKSt7__cxx1112basic_stringIcSt11char_traitsIcESaIcEE4sizeEv@plt>
    9f68:	48 39 c3             	cmp    %rax,%rbx
    9f6b:	75 43                	jne    9fb0 <_ZSteqIcEN9__gnu_cxx11__enable_ifIXsrSt9__is_charIT_E7__valueEbE6__typeERKNSt7__cxx1112basic_stringIS3_St11char_traitsIS3_ESaIS3_EEESE_+0x76>
    9f6d:	48 8b 45 e8          	mov    -0x18(%rbp),%rax
    9f71:	48 89 c7             	mov    %rax,%rdi
    9f74:	e8 47 75 ff ff       	callq  14c0 <_ZNKSt7__cxx1112basic_stringIcSt11char_traitsIcESaIcEE4sizeEv@plt>
    9f79:	49 89 c4             	mov    %rax,%r12
    9f7c:	48 8b 45 e0          	mov    -0x20(%rbp),%rax
    9f80:	48 89 c7             	mov    %rax,%rdi
    9f83:	e8 f8 75 ff ff       	callq  1580 <_ZNKSt7__cxx1112basic_stringIcSt11char_traitsIcESaIcEE4dataEv@plt>
    9f88:	48 89 c3             	mov    %rax,%rbx
    9f8b:	48 8b 45 e8          	mov    -0x18(%rbp),%rax
    9f8f:	48 89 c7             	mov    %rax,%rdi
    9f92:	e8 e9 75 ff ff       	callq  1580 <_ZNKSt7__cxx1112basic_stringIcSt11char_traitsIcESaIcEE4dataEv@plt>
    9f97:	4c 89 e2             	mov    %r12,%rdx
    9f9a:	48 89 de             	mov    %rbx,%rsi
    9f9d:	48 89 c7             	mov    %rax,%rdi
    9fa0:	e8 29 8e ff ff       	callq  2dce <_ZNSt11char_traitsIcE7compareEPKcS2_m>
    9fa5:	85 c0                	test   %eax,%eax
    9fa7:	75 07                	jne    9fb0 <_ZSteqIcEN9__gnu_cxx11__enable_ifIXsrSt9__is_charIT_E7__valueEbE6__typeERKNSt7__cxx1112basic_stringIS3_St11char_traitsIS3_ESaIS3_EEESE_+0x76>
    9fa9:	b8 01 00 00 00       	mov    $0x1,%eax
    9fae:	eb 05                	jmp    9fb5 <_ZSteqIcEN9__gnu_cxx11__enable_ifIXsrSt9__is_charIT_E7__valueEbE6__typeERKNSt7__cxx1112basic_stringIS3_St11char_traitsIS3_ESaIS3_EEESE_+0x7b>
    9fb0:	b8 00 00 00 00       	mov    $0x0,%eax
    9fb5:	48 83 c4 10          	add    $0x10,%rsp
    9fb9:	5b                   	pop    %rbx
    9fba:	41 5c                	pop    %r12
    9fbc:	5d                   	pop    %rbp
    9fbd:	c3                   	retq   

0000000000009fbe <_ZNK9__gnu_cxx16__aligned_bufferISt4pairIKPKcNSt7__cxx1112basic_stringIcSt11char_traitsIcESaIcEEEEE7_M_addrEv>:
    9fbe:	55                   	push   %rbp
    9fbf:	48 89 e5             	mov    %rsp,%rbp
    9fc2:	48 89 7d f8          	mov    %rdi,-0x8(%rbp)
    9fc6:	48 8b 45 f8          	mov    -0x8(%rbp),%rax
    9fca:	5d                   	pop    %rbp
    9fcb:	c3                   	retq   

0000000000009fcc <_ZNK9__gnu_cxx16__aligned_bufferISt4pairIKiNSt7__cxx1112basic_stringIcSt11char_traitsIcESaIcEEEEE6_M_ptrEv>:
    9fcc:	55                   	push   %rbp
    9fcd:	48 89 e5             	mov    %rsp,%rbp
    9fd0:	48 83 ec 10          	sub    $0x10,%rsp
    9fd4:	48 89 7d f8          	mov    %rdi,-0x8(%rbp)
    9fd8:	48 8b 45 f8          	mov    -0x8(%rbp),%rax
    9fdc:	48 89 c7             	mov    %rax,%rdi
    9fdf:	e8 02 00 00 00       	callq  9fe6 <_ZNK9__gnu_cxx16__aligned_bufferISt4pairIKiNSt7__cxx1112basic_stringIcSt11char_traitsIcESaIcEEEEE7_M_addrEv>
    9fe4:	c9                   	leaveq 
    9fe5:	c3                   	retq   

0000000000009fe6 <_ZNK9__gnu_cxx16__aligned_bufferISt4pairIKiNSt7__cxx1112basic_stringIcSt11char_traitsIcESaIcEEEEE7_M_addrEv>:
    9fe6:	55                   	push   %rbp
    9fe7:	48 89 e5             	mov    %rsp,%rbp
    9fea:	48 89 7d f8          	mov    %rdi,-0x8(%rbp)
    9fee:	48 8b 45 f8          	mov    -0x8(%rbp),%rax
    9ff2:	5d                   	pop    %rbp
    9ff3:	c3                   	retq   
    9ff4:	66 2e 0f 1f 84 00 00 	nopw   %cs:0x0(%rax,%rax,1)
    9ffb:	00 00 00 
    9ffe:	66 90                	xchg   %ax,%ax

000000000000a000 <__libc_csu_init>:
    a000:	41 57                	push   %r15
    a002:	41 56                	push   %r14
    a004:	49 89 d7             	mov    %rdx,%r15
    a007:	41 55                	push   %r13
    a009:	41 54                	push   %r12
    a00b:	4c 8d 25 56 5b 20 00 	lea    0x205b56(%rip),%r12        # 20fb68 <__frame_dummy_init_array_entry>
    a012:	55                   	push   %rbp
    a013:	48 8d 2d 5e 5b 20 00 	lea    0x205b5e(%rip),%rbp        # 20fb78 <__init_array_end>
    a01a:	53                   	push   %rbx
    a01b:	41 89 fd             	mov    %edi,%r13d
    a01e:	49 89 f6             	mov    %rsi,%r14
    a021:	4c 29 e5             	sub    %r12,%rbp
    a024:	48 83 ec 08          	sub    $0x8,%rsp
    a028:	48 c1 fd 03          	sar    $0x3,%rbp
    a02c:	e8 df 73 ff ff       	callq  1410 <_init>
    a031:	48 85 ed             	test   %rbp,%rbp
    a034:	74 20                	je     a056 <__libc_csu_init+0x56>
    a036:	31 db                	xor    %ebx,%ebx
    a038:	0f 1f 84 00 00 00 00 	nopl   0x0(%rax,%rax,1)
    a03f:	00 
    a040:	4c 89 fa             	mov    %r15,%rdx
    a043:	4c 89 f6             	mov    %r14,%rsi
    a046:	44 89 ef             	mov    %r13d,%edi
    a049:	41 ff 14 dc          	callq  *(%r12,%rbx,8)
    a04d:	48 83 c3 01          	add    $0x1,%rbx
    a051:	48 39 dd             	cmp    %rbx,%rbp
    a054:	75 ea                	jne    a040 <__libc_csu_init+0x40>
    a056:	48 83 c4 08          	add    $0x8,%rsp
    a05a:	5b                   	pop    %rbx
    a05b:	5d                   	pop    %rbp
    a05c:	41 5c                	pop    %r12
    a05e:	41 5d                	pop    %r13
    a060:	41 5e                	pop    %r14
    a062:	41 5f                	pop    %r15
    a064:	c3                   	retq   
    a065:	90                   	nop
    a066:	66 2e 0f 1f 84 00 00 	nopw   %cs:0x0(%rax,%rax,1)
    a06d:	00 00 00 

000000000000a070 <__libc_csu_fini>:
    a070:	f3 c3                	repz retq 
